


ARM Macro Assembler    Page 1 Program Title for Listing Header Goes Here


    1 00000000                 TTL              Program Title for Listing Heade
r Goes Here
    2 00000000         ;*******************************************************
                       ********
    3 00000000         ;Controls a servo using the PWM and also uses DAC / ADC 
                       to restore
    4 00000000         ;and print value.
    5 00000000         ;Name:  David Desrochers
    6 00000000         ;Date:  4/15/2014
    7 00000000         ;Class:  CMPE-250
    8 00000000         ;Section:  Tuesday 11am
    9 00000000         ;-------------------------------------------------------
                       --------
   10 00000000         ;Template:  R. W. Melton
   11 00000000         ;           March 1, 2014
   12 00000000         ;           April 4, 2014
   13 00000000         ;*******************************************************
                       ********
   14 00000000         ;Assembler directives
   15 00000000                 THUMB
   17 00000000 00000100 
                       SSTACK_SIZE
                               EQU              0x00000100  ;Used by MKL25Z128x
                                                            xx4.s
   18 00000000         ;*******************************************************
                       ***************
   19 00000000         ;Include files
   20 00000000         ;  MK25Z128xxx4.s
   21 00000000                 GET              MKL25Z128xxx4.s
   23 00000100         ;*******************************************************
                       ********
   24 00000100         ;EQUates
   25 00000100         
   26 00000100         ;Max String length
   27 00000100 0000004F 
                       MAX_STRING
                               EQU              79
   28 00000100         
   29 00000100         ;EQUates for queue record management
   30 00000100 00000000 
                       IN_PTR  EQU              0
   31 00000100 00000004 
                       OUT_PTR EQU              4
   32 00000100 00000008 
                       BUF_STRT
                               EQU              8
   33 00000100 0000000C 
                       BUF_PAST
                               EQU              12
   34 00000100 00000010 
                       BUF_SIZE
                               EQU              16
   35 00000100 00000011 
                       NUM_ENQD
                               EQU              17
   36 00000100         
   37 00000100         ;EQUates for stucture sizes
   38 00000100 00000012 
                       Q_REC_SZ



ARM Macro Assembler    Page 2 Program Title for Listing Header Goes Here


                               EQU              18
   39 00000100 00000050 
                       Q_BUF_SZ
                               EQU              80
   40 00000100         
   41 00000100         ;Step info
   42 00000100 00001000 
                       DAC0_STEPS
                               EQU              4096
   43 00000100 00000005 
                       SERVO_POSITIONS
                               EQU              5
   44 00000100         
   45 00000100         ;EQUates for TPM
   46 00000100 0000EA60 
                       PWM_PERIOD_20ms
                               EQU              60000
   47 00000100 000007D0 
                       PWM_DUTY_5
                               EQU              2000
   48 00000100 00001770 
                       PWM_DUTY_10
                               EQU              6000
   49 00000100 0000000C 
                       TPM_EPWM_DIV16
                               EQU              0x0C
   50 00000100 00000028 
                       TPM_PWMH
                               EQU              0x28
   51 00000100         
   52 00000100         ;EQUates for DAC
   53 00000100 00000000 
                       DAC0_BUFFER_DISABLED
                               EQU              0x00
   54 00000100 000000C0 
                       DAC0_ENABLE
                               EQU              0xC0
   55 00000100 00000000 
                       DAC0_0v EQU              0x00
   56 00000100         
   57 00000100         ;Equates for ADC
   58 00000100 000000D9 
                       ADC0_LP_LONG_SGL10_3MHZ
                               EQU              0xD9
   59 00000100 00000000 
                       ADC0_CHAN_A_NORMAL_LONG
                               EQU              0x00
   60 00000100 00000001 
                       ADC0_SWTRIG_VDDA
                               EQU              0x01
   61 00000100 00000087 
                       ADC0_SC3_CAL
                               EQU              0x87
   62 00000100 00000000 
                       ADC0_SINGLE
                               EQU              0x00
   63 00000100 00000017 
                       ADC0_SGL_DAC
                               EQU              0x17



ARM Macro Assembler    Page 3 Program Title for Listing Header Goes Here


   64 00000100         
   65 00000100         ;EQUates for SIM
   66 00000100 00000000 
                       PTE30_MUX_DAC0_OUT
                               EQU              PIN_MUX_SELECT_0_MASK
   67 00000100 01000000 
                       SET_PTE30_DAC0_OUT
                               EQU              (PIN_ISF_MASK :OR: PTE30_MUX_DA
C0_OUT)
   68 00000100 00000300 
                       PTE22_MUX_TMP2_CH0_OUT
                               EQU              PIN_MUX_SELECT_3
   69 00000100 01000340 
                       SET_PTE22_TMP_2_CH0
                               EQU              (PIN_ISF_MASK :OR: PTE22_MUX_TM
P2_CH0_OUT :OR: PIN_DSE_MASK)
   70 00000100 01000000 
                       TPM_MCGPLLCLK_SEL
                               EQU              0x01000000
   71 00000100 01010000 
                       TPM_MCGPLLCLK_DIV2
                               EQU              (TPM_MCGPLLCLK_SEL :OR: SIM_SOP
T2_PLLFLLSEL_MASK)
   72 00000100         
   73 00000100         ;-------------------------------------------------------
                       --------
   74 00000100         ;EQUates to use UART1 for serial I/O
   75 00000100         ;PORTx_PCRn (Port x pin control register n [for pin n])
   76 00000100         ;___->10-08:Pin mux control (select 0 to 8)
   77 00000100 00000300 
                       PIN_MUX_SELECT_3
                               EQU              0x00000300
   78 00000100         ;-------------------------------------------------------
                       --------
   79 00000100         ;Port C
   80 00000100 00000300 
                       PTC3_MUX_UART1_RX
                               EQU              PIN_MUX_SELECT_3
   81 00000100 00000300 
                       PTC4_MUX_UART1_TX
                               EQU              PIN_MUX_SELECT_3
   82 00000100 01000300 
                       SET_PTC3_UART1_RX
                               EQU              (PIN_ISF_MASK :OR: PTC3_MUX_UAR
T1_RX)
   83 00000100 01000300 
                       SET_PTC4_UART1_TX
                               EQU              (PIN_ISF_MASK :OR: PTC4_MUX_UAR
T1_TX)
   84 00000100         ;-------------------------------------------------------
                       --------
   85 00000100         ;SIM_SCGC4
   86 00000100         ;1->11:UART1 clock gate control (enabled)
   87 00000100 00000800 
                       UART1CGC_MASK
                               EQU              SIM_SCGC4_UART1_MASK
   88 00000100         ;-------------------------------------------------------
                       --------
   89 00000100         ;SIM_SCGC5



ARM Macro Assembler    Page 4 Program Title for Listing Header Goes Here


   90 00000100         ;1->   11:Port C clock gate control (enabled)
   91 00000100 00000800 
                       PORTCCGC_MASK
                               EQU              SIM_SCGC5_PORTC_MASK
   92 00000100         ;-------------------------------------------------------
                       --------
   93 00000100         ;SIM_SOPT5
   94 00000100         ; 0->   17:UART1 open drain enable (disabled)
   95 00000100         ; 0->   06:UART1 receive data select (UART1_RX)
   96 00000100         ;00->05-04:UART1 transmit data select source (UART1_TX)
   97 00000100 00020070 
                       UART1_EXTERN_MASK_CLEAR
                               EQU              (UART1ODE_MASK :OR: UART1RXSRC_
MASK :OR: UART1TXSRC_MASK)
   98 00000100         ;-------------------------------------------------------
                       --------
   99 00000100         ;UARTx_BDH
  100 00000100         ;    0->  7:LIN break detect IE (disabled)
  101 00000100         ;    0->  6:RxD input active edge IE (disabled)
  102 00000100         ;    0->  5:Stop bit number select (1)
  103 00000100         ;00000->4-0:SBR[12:0] (BUSCLK / (16 x 9600))
  104 00000100         ;BUSCLK = CORECLK / 2 = PLLCLK / 4
  105 00000100         ;PLLCLK is 96 MHz
  106 00000100         ;BUSCLK is 24 MHz
  107 00000100         ;SBR = 24 MHz / (16 x 9600) = 156.25 --> 156 = 0x009C
  108 00000100 00000000 
                       UART_9600H
                               EQU              0x00
  109 00000100         ;-------------------------------------------------------
                       --------
  110 00000100         ;UARTx_BDL
  111 00000100         ;26->7-0:SBR[7:0] (BUSCLK / 16 x 9600))
  112 00000100         ;BUSCLK = CORECLK / 2 = PLLCLK / 4
  113 00000100         ;PLLCLK is 96 MHz
  114 00000100         ;BUSCLK is 24 MHz
  115 00000100         ;SBR = 24 MHz / (16 x 9600) = 156.25 --> 0x9C
  116 00000100 0000009C 
                       UART_9600L
                               EQU              0x9C
  117 00000100         ;-------------------------------------------------------
                       --------
  118 00000100         ;UARTx_C1
  119 00000100         ;0-->7:LOOPS=loops select (normal)
  120 00000100         ;0-->6:UARTSWAI=UART stop in wait mode (disabled)
  121 00000100         ;0-->5:RSRC=receiver source select (internal--no effect 
                       LOOPS=0)
  122 00000100         ;0-->4:M=9- or 8-bit mode select (1 start, 8 data [lsb f
                       irst], 1 stop)
  123 00000100         ;0-->3:WAKE=receiver wakeup method select (idle)
  124 00000100         ;0-->2:IDLE=idle line type select (idle begins after sta
                       rt bit)
  125 00000100         ;0-->1:PE=parity enable (disabled)
  126 00000100         ;0-->0:PT=parity type (even parity--no effect PE=0)
  127 00000100 00000000 
                       UART_8N1
                               EQU              0x00
  128 00000100         ;-------------------------------------------------------
                       --------
  129 00000100         ;UARTx_C2



ARM Macro Assembler    Page 5 Program Title for Listing Header Goes Here


  130 00000100         ;0-->7:TIE=transmit IE for TDRE (disabled)
  131 00000100         ;0-->6:TCIE=trasmission complete IE for TC (disabled)
  132 00000100         ;0-->5:RIE=receiver IE for RDRF (disabled)
  133 00000100         ;0-->4:ILIE=idle line IE for IDLE (disabled)
  134 00000100         ;1-->3:TE=transmitter enable (enabled)
  135 00000100         ;1-->2:RE=receiver enable (enabled)
  136 00000100         ;0-->1:RWU=receiver wakeup control (normal)
  137 00000100         ;0-->0:SBK=send break (disabled, normal)
  138 00000100 0000002C 
                       UART_T_RI
                               EQU              (UART_TE_MASK :OR: UART_RE_MASK
 :OR: UART_RIE_MASK)
  139 00000100 000000AC 
                       UART_TI_RI
                               EQU              (UART_TE_MASK :OR: UART_RE_MASK
 :OR: UART_RIE_MASK :OR: UART_TIE_MASK)
  140 00000100 00000003 
                       UART1_IRQ_PRI
                               EQU              3
  141 00000100         ;-------------------------------------------------------
                       --------
  142 00000100         ;UARTx_C3
  143 00000100         ;0-->7:R8=9th data bit for receiver (not used M=0)
  144 00000100         ;0-->6:T8=9th data bit for transmitter (not used M=0)
  145 00000100         ;0-->5:TXDIR=TxD pin direction in single-wire mode (no e
                       ffect LOOPS=0)
  146 00000100         ;0-->4:TXINV=transmit data inversion (not invereted)
  147 00000100         ;0-->3:ORIE=overrun IE for OR (disabled)
  148 00000100         ;0-->2:NEIE=noise error IE for NF (disabled)
  149 00000100         ;0-->1:FEIE=framing error IE for FE (disabled)
  150 00000100         ;0-->0:PEIE=parity error IE for PF (disabled)
  151 00000100 00000000 
                       UART_TX_NOT_INVERTED
                               EQU              0x00
  152 00000100         ;-------------------------------------------------------
                       --------
  153 00000100         ;UARTx_C4
  154 00000100         ;0-->  7:TDMAS=transmitter DMA select (disabled)
  155 00000100         ;0-->  6:Reserved; read-only; always 0
  156 00000100         ;0-->  5:RDMAS=receiver full DMA select (disabled)
  157 00000100         ;0-->  4:Reserved; read-only; always 0
  158 00000100         ;0-->  3:Reserved; read-only; always 0
  159 00000100         ;0-->2-0:Reserved; read-only; always 0
  160 00000100 00000000 
                       UART_NO_DMA
                               EQU              0x00
  161 00000100         ;*******************************************************
                       ***************
  162 00000100         ;Program
  163 00000100         ;Linker requires Reset_Handler
  164 00000100                 AREA             MyCode,CODE,READONLY
  165 00000000                 ENTRY
  166 00000000                 EXPORT           Reset_Handler
  167 00000000         Reset_Handler
  168 00000000         main
  169 00000000         ;-------------------------------------------------------
                       --------
  170 00000000         ;begin program code
  171 00000000 F7FF FFFE       BL               SystemInit



ARM Macro Assembler    Page 6 Program Title for Listing Header Goes Here


  172 00000004         ;Mask interrupts
  173 00000004 B672            CPSID            I
  174 00000006         ;Configure 48-MHz system clock
  175 00000006 F7FF FFFE       BL               SetClock48MHz
  176 0000000A         ;Init DAC0
  177 0000000A F000 F927       BL               DAC0__Init
  178 0000000E         ;Init ADC0
  179 0000000E F000 F93D       BL               ADC0__Init
  180 00000012         ;Init TPM
  181 00000012 F000 F981       BL               TPM0__Init
  182 00000016         ;Init UART1
  183 00000016 F000 F99F       BL               UART1__Init
  184 0000001A         ;Init NVIC for UART1 IRQ's
  185 0000001A F000 F9C0       BL               NVIC__Init
  186 0000001E         ;Init queues for UART Tx,Rx
  187 0000001E 48ED            LDR              R0,=TxRec
  188 00000020 49ED            LDR              R1,=TxBuff
  189 00000022 F000 F90F       BL               Q_init
  190 00000026 48ED            LDR              R0,=RxRec
  191 00000028 49ED            LDR              R1,=RxBuff
  192 0000002A F000 F90B       BL               Q_init
  193 0000002E         ;UnMask interrupts
  194 0000002E B662            CPSIE            I
  195 00000030         ;-------------------------------------------------------
                       --------
  196 00000030         ;begin program code
  197 00000030         ;Stay here
  198 00000030         ;Main prompt
  199 00000030 48EC    Main    LDR              R0, =UserPrmp
  200 00000032 F000 F85D       BL               PutString
  201 00000036 F000 F848 
                       Invalid BL               GetChar
  202 0000003A         ;Check range
  203 0000003A 2830            CMP              R0, #'0'
  204 0000003C D3FB            BLO              Invalid
  205 0000003E 2835            CMP              R0, #'5'
  206 00000040 D8F9            BHI              Invalid
  207 00000042         ;Echo and print next line
  208 00000042 B401            PUSH             {R0}
  209 00000044 F000 F849       BL               PutChar
  210 00000048 48E7            LDR              R0, =NewLineP
  211 0000004A F000 F851       BL               PutString
  212 0000004E 48E7            LDR              R0, =OrgnPrmp
  213 00000050 F000 F84E       BL               PutString
  214 00000054         ;Convert ascii value into integer index
  215 00000054 BC01            POP              {R0}
  216 00000056 3831            SUBS             R0, #'1'
  217 00000058 2102            MOVS             R1, #2
  218 0000005A 4348            MULS             R0, R1, R0
  219 0000005C         ;Retrvive digital value from table and print
  220 0000005C 49E4    GetDAC0Val
                               LDR              R1, =DAC0_TABLE
  221 0000005E 5A09            LDRH             R1, [R1, R0]
  222 00000060 0008            MOVS             R0, R1
  223 00000062 F000 F84F 
                       PrintDAC
                               BL               PutNumHex
  224 00000066 B401            PUSH             {R0}
  225 00000068 48DF            LDR              R0, =NewLineP



ARM Macro Assembler    Page 7 Program Title for Listing Header Goes Here


  226 0000006A F000 F841       BL               PutString
  227 0000006E 48E1            LDR              R0, =NewPrmp
  228 00000070 F000 F83E       BL               PutString
  229 00000074 BC01            POP              {R0}
  230 00000076         ;Write value into DAC to convert
  231 00000076 49E1    PutVal  LDR              R1, =DAC0_BASE
  232 00000078 7008            STRB             R0, [R1, #DAC0_DAT0L_OFFSET]
  233 0000007A 0A00            LSRS             R0, #8
  234 0000007C 7048            STRB             R0, [R1, #DAC0_DAT0H_OFFSET]
  235 0000007E         ;Start ADC conversion
  236 0000007E 48E0    GetVal  LDR              R0, =ADC0_BASE
  237 00000080 2117            MOVS             R1, #ADC0_SGL_DAC
  238 00000082 6001            STR              R1, [R0, #ADC0_SC1A_OFFSET]
  239 00000084 2280            MOVS             R2, #ADC_COCO_MASK
  240 00000086         ;Wait for conversion complete flag
  241 00000086 6801    NotDone LDR              R1, [R0, #ADC0_SC1A_OFFSET]
  242 00000088 4011            ANDS             R1, R2
  243 0000008A D0FC            BEQ              NotDone
  244 0000008C         ;Retrive conversion result and print
  245 0000008C 6900            LDR              R0, [R0, #ADC0_RA_OFFSET]
  246 0000008E F000 F839 
                       PrintADC
                               BL               PutNumHex
  247 00000092 B401            PUSH             {R0}
  248 00000094 48D4            LDR              R0, =NewLineP
  249 00000096 F000 F82B       BL               PutString
  250 0000009A BC01            POP              {R0}
  251 0000009C         ;Find index in PWM table with division
  252 0000009C         ;by repeated division
  253 0000009C 2100            MOVS             R1, #0
  254 0000009E 28CC    GetPWMI CMP              R0, #204
  255 000000A0 D302            BLO              GotI
  256 000000A2 38CC            SUBS             R0, #204
  257 000000A4 3101            ADDS             R1, #1
  258 000000A6 E7FA            B                GetPWMI
  259 000000A8         ;Print position integer on screen
  260 000000A8 48D3    GotI    LDR              R0, =SerPPrmp
  261 000000AA F000 F821       BL               PutString
  262 000000AE 0008            MOVS             R0, R1
  263 000000B0 3001            ADDS             R0, #1
  264 000000B2 F000 F845       BL               PutNumU
  265 000000B6 48CC            LDR              R0, =NewLineP
  266 000000B8 F000 F81A       BL               PutString
  267 000000BC         ;Load PWM value from table
  268 000000BC 48D1            LDR              R0, =PWM_DUTY_TABLE
  269 000000BE 2202            MOVS             R2, #2
  270 000000C0 4351            MULS             R1, R2, R1
  271 000000C2 5A41            LDRH             R1, [R0, R1]
  272 000000C4 48D3            LDR              R0, =TPM2_BASE
  273 000000C6         ;Write value to the TMP module to change pulse width
  274 000000C6 6101            STR              R1, [R0, #TPM_C0V_OFFSET]
  275 000000C8 E7B2            B                Main
  276 000000CA         
  277 000000CA         ;Subroutines
  278 000000CA         ;*******************************************************
                       *******
  279 000000CA         ;Dequeues a character from the recive queue and returns 
                       it in R0
  280 000000CA         ;if operation fails C flag will be set on return



ARM Macro Assembler    Page 8 Program Title for Listing Header Goes Here


  281 000000CA         ;recive queue record should be named RxRec
  282 000000CA         ;Input: None
  283 000000CA         ;Output: R0: charater read
  284 000000CA         ;Modify: R0, PSR
  285 000000CA         ;*******************************************************
                       *******
  286 000000CA B502    GetChar PUSH             {R1,LR}
  287 000000CC 49C3            LDR              R1, =RxRec
  288 000000CE         ;Disable interupts for critical section
  289 000000CE B672    WaitForC
                               CPSID            I
  290 000000D0 F000 F867       BL               Dequeue
  291 000000D4 B662            CPSIE            I
  292 000000D6 D2FA            BCS              WaitForC
  293 000000D8 BD02            POP              {R1,PC}
  294 000000DA         
  295 000000DA         ;*******************************************************
                       *******
  296 000000DA         ;Enqueues the character from R0 to the transmit queue
  297 000000DA         ;if operation fails C flag will be set on return
  298 000000DA         ;transmit queue record should be named TxRec
  299 000000DA         ;Input: R0: Character to enqueue
  300 000000DA         ;Output: None
  301 000000DA         ;Modify: PSR
  302 000000DA         ;*******************************************************
                       ******* 
  303 000000DA B506    PutChar PUSH             {R1-R2,LR}
  304 000000DC 49BD            LDR              R1, =TxRec
  305 000000DE         ;Disable interupts for critical section
  306 000000DE B672    QNotRDY CPSID            I
  307 000000E0 F000 F887       BL               Enqueue
  308 000000E4 B662            CPSIE            I
  309 000000E6         ;Turns on UART tranmit interupts because there is
  310 000000E6         ;now data to send
  311 000000E6 D2FA            BCS              QNotRDY
  312 000000E8 49CD            LDR              R1, =UART1_BASE
  313 000000EA 22AC            MOVS             R2, #UART_TI_RI
  314 000000EC 70CA            STRB             R2, [R1, #UART_C2_OFFSET]
  315 000000EE BD06            POP              {R1-R2,PC}
  316 000000F0         
  317 000000F0         ;*******************************************************
                       *******
  318 000000F0         ;Displays a null-terinated string from memory starting
  319 000000F0         ;at the address in R0 to the terminal.
  320 000000F0         ;Input: R0: base memory location
  321 000000F0         ;Output: None
  322 000000F0         ;Modify: PSR
  323 000000F0         ;*******************************************************
                       ******* 
  324 000000F0         ;R0: Char to put
  325 000000F0         ;R1: Current memory address
  326 000000F0 B503    PutString
                               PUSH             {R0-R1,LR}
  327 000000F2 0001            MOVS             R1, R0
  328 000000F4         ;Get character
  329 000000F4 7808    NextCharP
                               LDRB             R0, [R1, #0]
  330 000000F6 3101            ADDS             R1, #0x01
  331 000000F8         ;While not null add character to queue



ARM Macro Assembler    Page 9 Program Title for Listing Header Goes Here


  332 000000F8 2800            CMP              R0, #0x00
  333 000000FA D002            BEQ              Terminate
  334 000000FC F7FF FFED       BL               PutChar
  335 00000100 E7F8            B                NextCharP
  336 00000102 BD03    Terminate
                               POP              {R0-R1,PC}
  337 00000104         
  338 00000104         ;*******************************************************
                       *******
  339 00000104         ;PutNumHex writes the hex number in R0 onto the screen.
  340 00000104         ;Inputs R0: Number to write
  341 00000104         ;Outputs : None
  342 00000104         ;Modifies: PSR
  343 00000104         ;*******************************************************
                       *******
  344 00000104         ;R0: working space
  345 00000104         ;R1: index
  346 00000104         ;R2: Byte ANDS mask
  347 00000104         ;R3: shift length
  348 00000104 B50F    PutNumHex
                               PUSH             {R0-R3,LR}
  349 00000106         ;Init registers
  350 00000106 2100            MOVS             R1, #0
  351 00000108 220F            MOVS             R2, #0xF
  352 0000010A 231C            MOVS             R3, #0x1C
  353 0000010C         ;Print the 0x prefix
  354 0000010C 2030            MOVS             R0, #"0"
  355 0000010E F7FF FFE4       BL               PutChar
  356 00000112 2078            MOVS             R0, #"x"
  357 00000114 F7FF FFE1       BL               PutChar
  358 00000118 BC01            POP              {R0}
  359 0000011A         ;Loop eight times
  360 0000011A 2908    PrintingH
                               CMP              R1, #8
  361 0000011C D20F            BHS              EndHex
  362 0000011E         ;Rotate to get most significant byte
  363 0000011E 41D8            RORS             R0, R3
  364 00000120 3101            ADDS             R1, #1
  365 00000122 B401            PUSH             {R0}
  366 00000124         ;Mask register to only contain first byte
  367 00000124 4010            ANDS             R0, R2
  368 00000126         ;Compare to determine the ascii value then print
  369 00000126 280A            CMP              R0, #0xA
  370 00000128 D204            BHS              Letter
  371 0000012A 3030    Number  ADDS             R0, #0x30
  372 0000012C F7FF FFD5       BL               PutChar
  373 00000130 BC01            POP              {R0}
  374 00000132 E7F2            B                PrintingH
  375 00000134 3037    Letter  ADDS             R0, #0x37
  376 00000136 F7FF FFD0       BL               PutChar
  377 0000013A BC01            POP              {R0}
  378 0000013C E7ED            B                PrintingH
  379 0000013E BD0E    EndHex  POP              {R1-R3, PC}
  380 00000140         
  381 00000140         ;*******************************************************
                       *******
  382 00000140         ;PutNumU writes the hex number in R0 in decimal onto the
                        screen.
  383 00000140         ;Inputs R0: Number to write



ARM Macro Assembler    Page 10 Program Title for Listing Header Goes Here


  384 00000140         ;Outputs : None
  385 00000140         ;Modifies: PSR
  386 00000140         ;*******************************************************
                       *******
  387 00000140         ;R0 : number to convert / dividend
  388 00000140         ;R1 : remainder / divisor
  389 00000140         ;R2 : number of chacaters on stack
  390 00000140 B507    PutNumU PUSH             {R0-R2, LR}
  391 00000142         ;Zero check
  392 00000142 2800            CMP              R0, #0
  393 00000144 D010            BEQ              PZero
  394 00000146 2200            MOVS             R2, #0
  395 00000148         ;Loop until quotient is zero
  396 00000148 2800    Conv    CMP              R0, #0
  397 0000014A D005            BEQ              PrintingNU
  398 0000014C         ;Divide by 10
  399 0000014C 210A            MOVS             R1, #10
  400 0000014E F000 F80F       BL               DIVU
  401 00000152         ;Push reaminder onto stack
  402 00000152 B402            PUSH             {R1}
  403 00000154 3201            ADDS             R2, #1
  404 00000156 E7F7            B                Conv
  405 00000158         ;Loop until stack has no more characters
  406 00000158 2A00    PrintingNU
                               CMP              R2, #0
  407 0000015A D008            BEQ              doneNU
  408 0000015C BC01            POP              {R0}
  409 0000015E 3A01            SUBS             R2, #1
  410 00000160         ;Add acsii offset for numbers then print
  411 00000160 3030            ADDS             R0, #0x30
  412 00000162 F7FF FFBA       BL               PutChar
  413 00000166 E7F7            B                PrintingNU
  414 00000168 2030    PZero   MOVS             R0, #0x30
  415 0000016A F7FF FFB6       BL               PutChar
  416 0000016E BD07    doneNU  POP              {R0-R2, PC}
  417 00000170         
  418 00000170         ;*******************************************************
                       *******
  419 00000170         ;Division Subroutine
  420 00000170         ;Input: R0: divisor 
  421 00000170         ;       R1: dividend
  422 00000170         ;Output:R0: integer result
  423 00000170         ;  R1: Remainder
  424 00000170         ;Modify:R0,R1 PSR
  425 00000170         ;*******************************************************
                       ******* 
  426 00000170 2900    DIVU    CMP              R1, #0      ;Check if dividing 
                                                            by zero
  427 00000172 D00A            BEQ              DivByZero   ;Branch if dividing
                                                             by zero
  428 00000174         
  429 00000174 B404    startDiv
                               PUSH             {R2}        ;Push register on s
                                                            tack to be restore 
                                                            it later
  430 00000176 2200            MOVS             R2, #0      ;Set R2 to 0, will 
                                                            be used as integer 
                                                            result
  431 00000178         



ARM Macro Assembler    Page 11 Program Title for Listing Header Goes Here


  432 00000178 4288    Dividing
                               CMP              R0, R1      ;Check if demoninat
                                                            or is bigger then n
                                                            umberator
  433 0000017A D302            BLO              DoneDiv     ;Branch to finish i
                                                            f above is true
  434 0000017C 1A40            SUBS             R0, R1      ;Subtract demoninat
                                                            or from numerator
  435 0000017E 3201            ADDS             R2, #1      ;Add one to result
  436 00000180 E7FA            B                Dividing    ;Continue dividing 
                                                            if above is false
  437 00000182         
  438 00000182 0001    DoneDiv MOVS             R1, R0
  439 00000184 4610            MOV              R0, R2      ;Move result in cor
                                                            rect register
  440 00000186 BC04            POP              {R2}        ;Restore data in R2
                                                             from the stack
  441 00000188 4770            BX               LR          ;Return from call
  442 0000018A         
  443 0000018A B402    DivByZero
                               PUSH             {R1}        ;Push register onto
                                                             stack to restore l
                                                            ater
  444 0000018C B401            PUSH             {R0}        ;Push register onto
                                                             stack to restore l
                                                            ater
  445 0000018E F3EF 8100       MRS              R1, APSR    ;Move the APSR into
                                                             R0
  446 00000192 2020            MOVS             R0, #0x20   ;Change the flags 
  447 00000194 0600            LSLS             R0, R0, #24 ;Shift into correct
                                                             position
  448 00000196 4301            ORRS             R1, R0
  449 00000198 F381 8800       MSR              APSR, R1    ;Write the represen
                                                            tation of the flags
                                                             into the APSR
  450 0000019C BC01            POP              {R0}        ;Restore R1 from st
                                                            ack
  451 0000019E BC02            POP              {R1}        ;Restore R2 form st
                                                            ack
  452 000001A0 4770            BX               LR          ;Return from call
  453 000001A2         
  454 000001A2         ;*******************************************************
                       *******
  455 000001A2         ;Dequeue attempts to get a charater from the ques whose 
                       record 
  456 000001A2         ;structure is in R1, if empty operation fails and set C 
                       flag
  457 000001A2         ;Input: R1: base memory of record 
  458 000001A2         ;Output: R0: character from queue
  459 000001A2         ;Modify: PSR, R0, RAM
  460 000001A2         ;*******************************************************
                       ******* 
  461 000001A2 B40C    Dequeue PUSH{R2,R3}
  462 000001A4 7C4A            LDRB             R2,[R1, #NUM_ENQD]
  463 000001A6 2A00            CMP              R2, #0      ;If queue empty
  464 000001A8 D016            BEQ              QEMP
  465 000001AA 3A01            SUBS             R2, #1
  466 000001AC 744A            STRB             R2, [R1, #NUM_ENQD]
  467 000001AE 684A            LDR              R2, [R1, #OUT_PTR] 



ARM Macro Assembler    Page 12 Program Title for Listing Header Goes Here


                                                            ;Load out pointer
  468 000001B0 7810            LDRB             R0, [R2, #0] ;Get character 
  469 000001B2 3201            ADDS             R2, #1
  470 000001B4 68CB            LDR              R3, [R1, #BUF_PAST] 
                                                            ;Check boundry
  471 000001B6 429A            CMP              R2, R3
  472 000001B8 D300            BLO              NOTSTR
  473 000001BA 688A            LDR              R2, [R1, #BUF_STRT]
  474 000001BC         ;Update record data and clear C flag
  475 000001BC 604A    NOTSTR  STR              R2, [R1, #OUT_PTR]
  476 000001BE B401            PUSH             {R0}
  477 000001C0 B402            PUSH             {R1}
  478 000001C2 F3EF 8000       MRS              R0, APSR
  479 000001C6 2120            MOVS             R1, #0x20
  480 000001C8 0609            LSLS             R1, R1, #24
  481 000001CA 4388            BICS             R0, R1
  482 000001CC F380 8800       MSR              APSR, R0
  483 000001D0 BC02            POP              {R1}
  484 000001D2 BC01            POP              {R0}
  485 000001D4 BC0C            POP              {R2,R3}
  486 000001D6 4770            BX               LR
  487 000001D8         
  488 000001D8         ;Set C flag in failure case
  489 000001D8 B401    QEMP    PUSH             {R0}
  490 000001DA B402            PUSH             {R1}
  491 000001DC F3EF 8000       MRS              R0, APSR
  492 000001E0 2120            MOVS             R1, #0x20
  493 000001E2 0609            LSLS             R1, R1, #24
  494 000001E4 4308            ORRS             R0, R1
  495 000001E6 F380 8800       MSR              APSR, R0
  496 000001EA BC02            POP              {R1}
  497 000001EC BC01            POP              {R0}
  498 000001EE BC0C            POP              {R2,R3}
  499 000001F0 4770            BX               LR
  500 000001F2         
  501 000001F2         ;*******************************************************
                       *******
  502 000001F2         ;Enqueue attempts to put a charater in the queue whose r
                       ecord 
  503 000001F2         ;address is in R1, if not full enqueues character in R0 
                       to queue
  504 000001F2         ;C flag set is operation fails
  505 000001F2         ;Input: R1: base memory of record 
  506 000001F2         ;Output: R0: character to queue
  507 000001F2         ;Modify: PSR, R0, RAM
  508 000001F2         ;*******************************************************
                       ******* 
  509 000001F2         
  510 000001F2 B40C    Enqueue PUSH{R2,R3}
  511 000001F4 7C4A            LDRB             R2,[R1, #NUM_ENQD]
  512 000001F6 7C0B            LDRB             R3, [R1, #BUF_SIZE]
  513 000001F8 429A            CMP              R2, R3      ;If queue Full
  514 000001FA D016            BEQ              QFUL
  515 000001FC 3201            ADDS             R2, #1
  516 000001FE 744A            STRB             R2, [R1, #NUM_ENQD]
  517 00000200 680A            LDR              R2, [R1, #IN_PTR] 
                                                            ;Load in pointer
  518 00000202 7010            STRB             R0, [R2, #0] ;Put character
  519 00000204 3201            ADDS             R2, #1



ARM Macro Assembler    Page 13 Program Title for Listing Header Goes Here


  520 00000206 68CB            LDR              R3, [R1, #BUF_PAST]
  521 00000208 429A            CMP              R2, R3      ;Check boundry
  522 0000020A D300            BLO              NOTEND
  523 0000020C 688A            LDR              R2, [R1, #BUF_STRT]
  524 0000020E         ;Update record data and clear C flag
  525 0000020E 600A    NOTEND  STR              R2, [R1, #IN_PTR]
  526 00000210 B401            PUSH             {R0}
  527 00000212 B402            PUSH             {R1}
  528 00000214 F3EF 8000       MRS              R0, APSR
  529 00000218 2120            MOVS             R1, #0x20
  530 0000021A 0609            LSLS             R1, R1, #24
  531 0000021C 4388            BICS             R0, R1
  532 0000021E F380 8800       MSR              APSR, R0
  533 00000222 BC02            POP              {R1}
  534 00000224 BC01            POP              {R0}
  535 00000226 BC0C            POP              {R2,R3}
  536 00000228 4770            BX               LR
  537 0000022A         
  538 0000022A         ;Set C flag in failure case
  539 0000022A B401    QFUL    PUSH             {R0}
  540 0000022C B402            PUSH             {R1}
  541 0000022E F3EF 8000       MRS              R0, APSR
  542 00000232 2120            MOVS             R1, #0x20
  543 00000234 0609            LSLS             R1, R1, #24
  544 00000236 4308            ORRS             R0, R1
  545 00000238 F380 8800       MSR              APSR, R0
  546 0000023C BC02            POP              {R1}
  547 0000023E BC01            POP              {R0}
  548 00000240 BC0C            POP              {R2,R3}
  549 00000242 4770            BX               LR
  550 00000244         
  551 00000244         ;*******************************************************
                       *******
  552 00000244         ;Init for queue record at QRecord space, QBuffer needs t
                       o also
  553 00000244         ;be defined. 
  554 00000244         ;Input: R0: Memory location for new record
  555 00000244         ;  R1: Memory location for new buffer
  556 00000244         ;Modify: PSR
  557 00000244         ;*******************************************************
                       ******* 
  558 00000244         
  559 00000244         ;Instantiate all pointers/conters
  560 00000244 B402    Q_init  PUSH             {R1}
  561 00000246 6001            STR              R1, [R0, #IN_PTR]
  562 00000248 6041            STR              R1, [R0, #OUT_PTR]
  563 0000024A 6081            STR              R1, [R0, #BUF_STRT]
  564 0000024C 3150            ADDS             R1, #Q_BUF_SZ
  565 0000024E 60C1            STR              R1, [R0, #BUF_PAST]
  566 00000250 2150            MOVS             R1, #Q_BUF_SZ
  567 00000252 7401            STRB             R1, [R0, #BUF_SIZE]
  568 00000254 2100            MOVS             R1, #0
  569 00000256 7441            STRB             R1, [R0, #NUM_ENQD]
  570 00000258 BC02            POP              {R1}
  571 0000025A 4770            BX               LR
  572 0000025C         
  573 0000025C         ;*******************************************************
                       *******
  574 0000025C         ;DAC init



ARM Macro Assembler    Page 14 Program Title for Listing Header Goes Here


  575 0000025C         ;*******************************************************
                       *******
  576 0000025C         DAC0__Init
  577 0000025C         ;SIM setup
  578 0000025C         ;Setup DAC0 clk
  579 0000025C 4871            LDR              R0, =SIM_SCGC6
  580 0000025E 4972            LDR              R1, =SIM_SCGC6_DAC0_MASK
  581 00000260 6802            LDR              R2, [R0, #0]
  582 00000262 430A            ORRS             R2, R1
  583 00000264 6002            STR              R2, [R0, #0]
  584 00000266         ;Setup PortE clk
  585 00000266 4871            LDR              R0, =SIM_SCGC5
  586 00000268 4971            LDR              R1, =SIM_SCGC5_PORTE_MASK
  587 0000026A 6802            LDR              R2, [R0, #0]
  588 0000026C 430A            ORRS             R2, R1
  589 0000026E 6002            STR              R2, [R0, #0]
  590 00000270         ;DAC0 pin select
  591 00000270 4870            LDR              R0, =PORTE_PCR30
  592 00000272 4971            LDR              R1, =SET_PTE30_DAC0_OUT
  593 00000274 6001            STR              R1, [R0, #0]
  594 00000276         ;DAC config
  595 00000276 4861            LDR              R0, =DAC0_BASE
  596 00000278         ;Disable buffering
  597 00000278 2100            MOVS             R1, #DAC0_BUFFER_DISABLED
  598 0000027A 2222            MOVS             R2, #DAC0_C1_OFFSET
  599 0000027C 5481            STRB             R1, [R0, R2]
  600 0000027E         ;Enable Module
  601 0000027E 21C0            MOVS             R1, #DAC0_ENABLE
  602 00000280 2221            MOVS             R2, #DAC0_C0_OFFSET
  603 00000282 5481            STRB             R1, [R0, R2]
  604 00000284         ;Set init V to min
  605 00000284 2100            MOVS             R1, #DAC0_0v
  606 00000286 7001            STRB             R1, [R0, #DAC0_DAT0L_OFFSET]
  607 00000288 7041            STRB             R1, [R0, #DAC0_DAT0H_OFFSET]
  608 0000028A 4770            BX               LR
  609 0000028C         
  610 0000028C         ;*******************************************************
                       *******
  611 0000028C         ;ADC init
  612 0000028C         ;*******************************************************
                       *******
  613 0000028C         ADC0__Init
  614 0000028C         ;SIM setup
  615 0000028C         ;Enable Clk
  616 0000028C 4865            LDR              R0, =SIM_SCGC6
  617 0000028E 6801            LDR              R1, [R0, #0]
  618 00000290 4A6A            LDR              R2, =SIM_SCGC6_ADC0_MASK
  619 00000292 430A            ORRS             R2, R1
  620 00000294 6002            STR              R2, [R0, #0]
  621 00000296         ;ADC Config
  622 00000296         ;Config Reg1
  623 00000296 485A            LDR              R0, =ADC0_BASE
  624 00000298 21D9            MOVS             R1, #ADC0_LP_LONG_SGL10_3MHZ
  625 0000029A 6081            STR              R1, [R0, #ADC0_CFG1_OFFSET]
  626 0000029C         ;Config Reg2
  627 0000029C 2100            MOVS             R1, #ADC0_CHAN_A_NORMAL_LONG
  628 0000029E 60C1            STR              R1, [R0,#ADC0_CFG2_OFFSET]
  629 000002A0         ;Control/status Reg2
  630 000002A0 2120            MOVS             R1, #ADC0_SC2_OFFSET



ARM Macro Assembler    Page 15 Program Title for Listing Header Goes Here


  631 000002A2 2201            MOVS             R2, #ADC0_SWTRIG_VDDA
  632 000002A4 5042            STR              R2, [R0, R1]
  633 000002A6         ;Control/status Reg3, Calibration
  634 000002A6 2124            MOVS             R1, #ADC0_SC3_OFFSET
  635 000002A8 2287    Calb    MOVS             R2, #ADC0_SC3_CAL
  636 000002AA 5042            STR              R2, [R0, R1]
  637 000002AC 2280            MOVS             R2, #ADC_CAL_MASK
  638 000002AE         ;Wait for Calibration complete, reapeat if fail
  639 000002AE 5843    CalIP   LDR              R3, [R0, R1]
  640 000002B0 4013            ANDS             R3, R2
  641 000002B2 D1FC            BNE              CalIP
  642 000002B4 2240            MOVS             R2, #ADC_CALF_MASK
  643 000002B6 5843            LDR              R3, [R0, R1]
  644 000002B8 4013            ANDS             R3, R2
  645 000002BA D1F5            BNE              Calb
  646 000002BC         ;Save calibration values
  647 000002BC         ;Plus Side
  648 000002BC 2100            MOVS             R1, #0
  649 000002BE 6CC2            LDR              R2, [R0, #ADC0_CLP0_OFFSET]
  650 000002C0 1889            ADDS             R1, R2
  651 000002C2 6C82            LDR              R2, [R0, #ADC0_CLP1_OFFSET]
  652 000002C4 1889            ADDS             R1, R2
  653 000002C6 6C42            LDR              R2, [R0, #ADC0_CLP2_OFFSET]
  654 000002C8 1889            ADDS             R1, R2
  655 000002CA 6C02            LDR              R2, [R0, #ADC0_CLP3_OFFSET]
  656 000002CC 1889            ADDS             R1, R2
  657 000002CE 6BC2            LDR              R2, [R0, #ADC0_CLP4_OFFSET]
  658 000002D0 1889            ADDS             R1, R2
  659 000002D2 6B82            LDR              R2, [R0, #ADC0_CLPS_OFFSET]
  660 000002D4 1889            ADDS             R1, R2
  661 000002D6 0849            LSRS             R1, #1
  662 000002D8 2308            MOVS             R3, #0x8
  663 000002DA 031B            LSLS             R3, #12
  664 000002DC 4319            ORRS             R1, R3
  665 000002DE 62C1            STR              R1, [R0, #ADC0_PG_OFFSET]
  666 000002E0         ;Minus Side
  667 000002E0 2100            MOVS             R1, #0
  668 000002E2 6EC2            LDR              R2, [R0, #ADC0_CLM0_OFFSET]
  669 000002E4 1889            ADDS             R1, R2
  670 000002E6 6E82            LDR              R2, [R0, #ADC0_CLM1_OFFSET]
  671 000002E8 1889            ADDS             R1, R2
  672 000002EA 6E42            LDR              R2, [R0, #ADC0_CLM2_OFFSET]
  673 000002EC 1889            ADDS             R1, R2
  674 000002EE 6E02            LDR              R2, [R0, #ADC0_CLM3_OFFSET]
  675 000002F0 1889            ADDS             R1, R2
  676 000002F2 6DC2            LDR              R2, [R0, #ADC0_CLM4_OFFSET]
  677 000002F4 1889            ADDS             R1, R2
  678 000002F6 6D82            LDR              R2, [R0, #ADC0_CLMS_OFFSET]
  679 000002F8 1889            ADDS             R1, R2
  680 000002FA 0849            LSRS             R1, #1
  681 000002FC 2308            MOVS             R3, #0x8
  682 000002FE 031B            LSLS             R3, #12
  683 00000300 4319            ORRS             R1, R3
  684 00000302 6301            STR              R1, [R0, #ADC0_MG_OFFSET]
  685 00000304         ;Select single end conversion
  686 00000304 2124    CalSuc  MOVS             R1, #ADC0_SC3_OFFSET
  687 00000306 2200            MOVS             R2, #ADC0_SINGLE
  688 00000308 5042            STR              R2, [R0,R1]
  689 0000030A         ;Channel A S/C reg



ARM Macro Assembler    Page 16 Program Title for Listing Header Goes Here


  690 0000030A 2117            MOVS             R1, #ADC0_SGL_DAC
  691 0000030C 6001            STR              R1, [R0, #ADC0_SC1A_OFFSET]
  692 0000030E         ;Wait for COCO flag
  693 0000030E 2280            MOVS             R2, #ADC_COCO_MASK
  694 00000310 6801    ADCCon  LDR              R1, [R0, #ADC0_SC1A_OFFSET]
  695 00000312 4011            ANDS             R1, R2
  696 00000314 D0FC            BEQ              ADCCon
  697 00000316 4770            BX               LR
  698 00000318         
  699 00000318         ;*******************************************************
                       *******
  700 00000318         ;TPM init
  701 00000318         ;*******************************************************
                       *******
  702 00000318         TPM0__Init
  703 00000318         ;SIM setup
  704 00000318         ;Enable Clk
  705 00000318 4842            LDR              R0, =SIM_SCGC6
  706 0000031A 4949            LDR              R1, =SIM_SCGC6_TPM2_MASK
  707 0000031C 6802            LDR              R2, [R0, #0]
  708 0000031E 430A            ORRS             R2, R1
  709 00000320 6002            STR              R2, [R0, #0]
  710 00000322         ;Clock PortE enable
  711 00000322 4842            LDR              R0, =SIM_SCGC5
  712 00000324 4942            LDR              R1, =SIM_SCGC5_PORTE_MASK
  713 00000326 6802            LDR              R2, [R0,#0]
  714 00000328 430A            ORRS             R2,R2,R1
  715 0000032A 6002            STR              R2,[R0,#0]
  716 0000032C         ;Output Pin select
  717 0000032C 4845            LDR              R0, =PORTE_PCR22
  718 0000032E 4936            LDR              R1, =SET_PTE22_TMP_2_CH0
  719 00000330 6001            STR              R1, [R0, #0]
  720 00000332         ;Clk select
  721 00000332 4846            LDR              R0, =SIM_SOPT2
  722 00000334 4946            LDR              R1, =TPM_MCGPLLCLK_DIV2
  723 00000336 4A47            LDR              R2, =SIM_SOPT2_TPMSRC_MASK
  724 00000338 6803            LDR              R3, [R0, #0]
  725 0000033A 4393            BICS             R3, R2
  726 0000033C 430B            ORRS             R3, R1
  727 0000033E 6003            STR              R3, [R0, #0]
  728 00000340         ;Set Counter
  729 00000340 4834            LDR              R0, =TPM2_BASE
  730 00000342 2100            MOVS             R1, #0
  731 00000344 6041            STR              R1, [R0, #TPM_CNT_OFFSET]
  732 00000346         ;Set mod
  733 00000346 4944            LDR              R1, =PWM_PERIOD_20ms
  734 00000348 6081            STR              R1, [R0, #TPM_MOD_OFFSET]
  735 0000034A         ;Status / Control config
  736 0000034A 210C            MOVS             R1, #TPM_EPWM_DIV16
  737 0000034C 6001            STR              R1, [R0, #TPM_SC_OFFSET]
  738 0000034E 2128            MOVS             R1, #TPM_PWMH
  739 00000350 60C1            STR              R1, [R0, #TPM_C0SC_OFFSET]
  740 00000352 4942            LDR              R1, =PWM_DUTY_5
  741 00000354 6101            STR              R1, [R0, #TPM_C0V_OFFSET]
  742 00000356 4770            BX               LR
  743 00000358         
  744 00000358         ;*******************************************************
                       *******
  745 00000358         ;Configure and initalize UART1 model for commincation



ARM Macro Assembler    Page 17 Program Title for Listing Header Goes Here


  746 00000358         ;*******************************************************
                       ******* 
  747 00000358         UART1__Init                          ;External Comms
  748 00000358 4841            LDR              R0, =SIM_SOPT5
  749 0000035A 4942            LDR              R1, =UART1_EXTERN_MASK_CLEAR
  750 0000035C 6802            LDR              R2,[R0,#0]
  751 0000035E 438A            BICS             R2,R2,R1
  752 00000360 6002            STR              R2,[R0,#0]
  753 00000362         ;Clock UART1 enable
  754 00000362 4841            LDR              R0, =SIM_SCGC4
  755 00000364 4941            LDR              R1, =UART1CGC_MASK
  756 00000366 6802            LDR              R2,[R0,#0]
  757 00000368 430A            ORRS             R2,R2,R1
  758 0000036A 6002            STR              R2,[R0,#0]
  759 0000036C         ;Clock PortC enable
  760 0000036C 482F            LDR              R0, =SIM_SCGC5
  761 0000036E 493F            LDR              R1, =PORTCCGC_MASK
  762 00000370 6802            LDR              R2, [R0,#0]
  763 00000372 430A            ORRS             R2,R2,R1
  764 00000374 6002            STR              R2,[R0,#0]
  765 00000376         ;UART1 Rx to PCT3
  766 00000376 483E            LDR              R0, =PORTC_PCR3
  767 00000378 493E            LDR              R1, =SET_PTC3_UART1_RX
  768 0000037A 6001            STR              R1, [R0,#0]
  769 0000037C         ;UART Tc to PCT4
  770 0000037C 483E            LDR              R0, =PORTC_PCR4
  771 0000037E 493D            LDR              R1, =SET_PTC4_UART1_TX
  772 00000380 6001            STR              R1, [R0,#0]
  773 00000382         ;Load buad rate
  774 00000382 4827            LDR              R0, =UART1_BASE
  775 00000384 2100            MOVS             R1, #UART_9600H
  776 00000386 7001            STRB             R1, [R0, #UART_BDH_OFFSET]
  777 00000388 219C            MOVS             R1, #UART_9600L
  778 0000038A 7041            STRB             R1, [R0, #UART_BDL_OFFSET]
  779 0000038C 2100            MOVS             R1, #UART_8N1
  780 0000038E         ;Set control registers
  781 0000038E 7081            STRB             R1, [R0, #UART_C1_OFFSET]
  782 00000390 2100            MOVS             R1, #UART_TX_NOT_INVERTED
  783 00000392 7181            STRB             R1, [R0, #UART_C3_OFFSET]
  784 00000394 2100            MOVS             R1, #UART_NO_DMA
  785 00000396 7201            STRB             R1, [R0, #UART_C4_OFFSET]
  786 00000398         ;Turn on and enable interupts
  787 00000398 212C            MOVS             R1, #UART_T_RI
  788 0000039A 70C1            STRB             R1, [R0, #UART_C2_OFFSET]
  789 0000039C 4770            BX               LR
  790 0000039E         
  791 0000039E         ;*******************************************************
                       *******
  792 0000039E         ;Inits NVIC for UART1 interupts
  793 0000039E         ;*******************************************************
                       *******
  794 0000039E 4837    NVIC__Init
                               LDR              R0, =NVIC_ISER
  795 000003A0 4923            LDR              R1, =UART1_IRQ_MASK
  796 000003A2         ;Unmask UART1 interupts
  797 000003A2 6001            STR              R1, [R0, #0]
  798 000003A4         ;Set prority
  799 000003A4 4836            LDR              R0, =UART1_IPR
  800 000003A6 4937            LDR              R1, =(UART1_IRQ_PRI << UART1_PR



ARM Macro Assembler    Page 18 Program Title for Listing Header Goes Here


I_POS)
  801 000003A8 6001            STR              R1, [R0, #0]
  802 000003AA 4770            BX               LR
  803 000003AC         
  804 000003AC         ;*******************************************************
                       *******
  805 000003AC         ;UART1_ISR handles interupts produced by the UART device
                       
  806 000003AC         ;enqueues or dequeues to the recive or transmitt queues
  807 000003AC         ;If revice queue is full, characters will be lost
  808 000003AC         ;Disables transmit interrupts if tranmit queue is empty
  809 000003AC         ;*******************************************************
                       *******
  810 000003AC B500    UART1_ISR
                               PUSH             {LR}
  811 000003AE         ;Check for recive flag, otherwise perform transmit opera
                       tion
  812 000003AE 4B1C            LDR              R3, =UART1_BASE
  813 000003B0 7919            LDRB             R1, [R3,#UART_S1_OFFSET]
  814 000003B2 2220            MOVS             R2, #UART_RDRF_MASK
  815 000003B4 4011            ANDS             R1,R1,R2
  816 000003B6 D108            BNE              RxInter
  817 000003B8         ;Dequeue from transmit queue
  818 000003B8 4906    TxInter LDR              R1, =TxRec
  819 000003BA F7FF FEF2       BL               Dequeue
  820 000003BE         ;If dequeue fails, disable transmit interupts 
  821 000003BE D201            BCS              TxFail
  822 000003C0 71D8            STRB             R0, [R3,#UART_D_OFFSET]
  823 000003C2 D306            BCC              EndU1ISR
  824 000003C4 212C    TxFail  MOVS             R1, #UART_T_RI
  825 000003C6 70D9            STRB             R1, [R3, #UART_C2_OFFSET]
  826 000003C8 BD00            POP              {PC}
  827 000003CA         ;Enqueue data to reviced data queue
  828 000003CA 4904    RxInter LDR              R1, =RxRec
  829 000003CC 79D8            LDRB             R0, [R3,#UART_D_OFFSET]
  830 000003CE F7FF FF10       BL               Enqueue
  831 000003D2 BD00    EndU1ISR
                               POP              {PC}
  832 000003D4         
  833 000003D4         ;end program code
  834 000003D4                 ALIGN
  835 000003D4         __EndMyCode
  836 000003D4         ;*******************************************************
                       ********
  837 000003D4         ;Vector Table Mapped to Address 0 at Reset
  838 000003D4         ;Linker requires __Vectors to be exported
  839 000003D4 00000000 
              00000000 
              00000000 
              00000000 
              00000000 
              00000000 
              00000000 
              00000000 
              00000000 
              00000000 
              4003F000 
              4003B000 
              00000000 



ARM Macro Assembler    Page 19 Program Title for Listing Header Goes Here


              01000340 
              00000000 
              00000000 
              4003A000 
              00000000 
              00000000 
              4006B000 
              4004803C 
              80000000 
              40048038 
              00002000 
              4004D078 
              01000000 
              08000000 
              04000000 
              4004D058 
              00000000 
              40048004 
              01010000 
              03000000 
              0000EA60 
              000007D0 
              40048010 
              00020070 
              40048034 
              00000800 
              4004B00C 
              01000300 
              4004B010 
              E000E100 
              E000E40C 
              0000C000 
              00000000 
              00000000         AREA             RESET, DATA, READONLY
  840 00000000                 EXPORT           __Vectors
  841 00000000         __Vectors
  842 00000000         ;ARM core vectors
  843 00000000 00000000        DCD              SP_INIT     ;00:end of stack
  844 00000004 00000000        DCD              Reset_Handler ;01:reset vector
  845 00000008 00000000        DCD              Dummy_Handler ;02:NMI
  846 0000000C 00000000        DCD              Dummy_Handler ;03:hard fault
  847 00000010 00000000        DCD              Dummy_Handler ;04:(reserved)
  848 00000014 00000000        DCD              Dummy_Handler ;05:(reserved)
  849 00000018 00000000        DCD              Dummy_Handler ;06:(reserved)
  850 0000001C 00000000        DCD              Dummy_Handler ;07:(reserved)
  851 00000020 00000000        DCD              Dummy_Handler ;08:(reserved)
  852 00000024 00000000        DCD              Dummy_Handler ;09:(reserved)
  853 00000028 00000000        DCD              Dummy_Handler ;10:(reserved)
  854 0000002C 00000000        DCD              Dummy_Handler ;11:SVCall (super
                                                            visor call)
  855 00000030 00000000        DCD              Dummy_Handler ;12:(reserved)
  856 00000034 00000000        DCD              Dummy_Handler ;13:(reserved)
  857 00000038 00000000        DCD              Dummy_Handler ;14:PendableSrvRe
                                                            q (pendable request
                                                             
  858 0000003C         ;   for system service)
  859 0000003C 00000000        DCD              Dummy_Handler ;15:SysTick (syst
                                                            em tick timer)
  860 00000040 00000000        DCD              Dummy_Handler ;16:DMA channel 0



ARM Macro Assembler    Page 20 Program Title for Listing Header Goes Here


                                                             xfer complete/erro
                                                            r
  861 00000044 00000000        DCD              Dummy_Handler ;17:DMA channel 1
                                                             xfer complete/erro
                                                            r
  862 00000048 00000000        DCD              Dummy_Handler ;18:DMA channel 2
                                                             xfer complete/erro
                                                            r
  863 0000004C 00000000        DCD              Dummy_Handler ;19:DMA channel 3
                                                             xfer complete/erro
                                                            r
  864 00000050 00000000        DCD              Dummy_Handler ;20:(reserved)
  865 00000054 00000000        DCD              Dummy_Handler ;21:command compl
                                                            ete; read collision
                                                            
  866 00000058 00000000        DCD              Dummy_Handler ;22:low-voltage d
                                                            etect;
  867 0000005C         ;   low-voltage warning
  868 0000005C 00000000        DCD              Dummy_Handler ;23:low leakage w
                                                            akeup
  869 00000060 00000000        DCD              Dummy_Handler ;24:I2C0
  870 00000064 00000000        DCD              Dummy_Handler ;25:I2C1
  871 00000068 00000000        DCD              Dummy_Handler ;26:SPI0 (all IRQ
                                                             sources)
  872 0000006C 00000000        DCD              Dummy_Handler ;27:SPI1 (all IRQ
                                                             sources)
  873 00000070 00000000        DCD              Dummy_Handler ;28:UART0 (status
                                                            ; error)
  874 00000074 00000000        DCD              UART1_ISR   ;29:UART1 (status; 
                                                            error)
  875 00000078 00000000        DCD              Dummy_Handler ;30:UART2 (status
                                                            ; error)
  876 0000007C 00000000        DCD              Dummy_Handler ;31:ADC0
  877 00000080 00000000        DCD              Dummy_Handler ;32:CMP0
  878 00000084 00000000        DCD              Dummy_Handler ;33:TPM0
  879 00000088 00000000        DCD              Dummy_Handler ;34:TPM1
  880 0000008C 00000000        DCD              Dummy_Handler ;35:TPM2
  881 00000090 00000000        DCD              Dummy_Handler ;36:RTC (alarm)
  882 00000094 00000000        DCD              Dummy_Handler ;37:RTC (seconds)
                                                            
  883 00000098 00000000        DCD              Dummy_Handler ;38:PIT (all IRQ 
                                                            sources)
  884 0000009C 00000000        DCD              Dummy_Handler ;39:(reserved)
  885 000000A0 00000000        DCD              Dummy_Handler ;40:USB OTG
  886 000000A4 00000000        DCD              Dummy_Handler ;41:DAC0
  887 000000A8 00000000        DCD              Dummy_Handler ;42:TSI0
  888 000000AC 00000000        DCD              Dummy_Handler ;43:MCG
  889 000000B0 00000000        DCD              Dummy_Handler ;44:LPTMR0
  890 000000B4 00000000        DCD              Dummy_Handler ;45:(reserved)
  891 000000B8 00000000        DCD              Dummy_Handler ;46:PORTA pin det
                                                            ect
  892 000000BC 00000000        DCD              Dummy_Handler ;47:PORTD pin det
                                                            ect
  893 000000C0                 ALIGN
  894 000000C0         ;*******************************************************
                       ***************
  895 000000C0         ;Constants
  896 000000C0                 AREA             MyConst,DATA,READONLY
  897 00000000         ;begin constants here



ARM Macro Assembler    Page 21 Program Title for Listing Header Goes Here


  898 00000000         
  899 00000000         ;Prompts for terminal
  900 00000000 0A 0D 00 
                       NewLineP
                               DCB              0x0A, 0x0D, 0x00
  901 00000003 54 79 70 
              65 20 61 
              20 6E 75 
              6D 62 65 
              72 20 66 
              72 6F 6D 
              20 31 20 
              74 6F 20 
              35 3A 20 
              00       UserPrmp
                               DCB              "Type a number from 1 to 5: ", 
0x00
  902 0000001F 4F 72 69 
              67 69 6E 
              61 6C 20 
              64 69 67 
              69 74 61 
              6C 20 76 
              61 6C 75 
              65 3A 20 
              00       OrgnPrmp
                               DCB              "Original digital value: ", 0x0
0
  903 00000038 4E 65 77 
              20 64 69 
              67 69 74 
              61 6C 20 
              76 61 6C 
              75 65 3A 
              20 00    NewPrmp DCB              "New digital value: ", 0x00
  904 0000004C 53 65 72 
              76 6F 20 
              50 6F 73 
              69 74 69 
              6F 6E 3A 
              20 00    SerPPrmp
                               DCB              "Servo Position: ", 0x00
  905 0000005D 00 00 00        ALIGN
  906 00000060         
  907 00000060         ;DAC value table
  908 00000060         DAC0_TABLE
  909 00000060 99 01           DCW              (DAC0_STEPS / (SERVO_POSITIONS*
2))
  910 00000062 CC 04           DCW              ((DAC0_STEPS*3) / (SERVO_POSITI
ONS*2))
  911 00000064 00 08           DCW              ((DAC0_STEPS*5) / (SERVO_POSITI
ONS*2))
  912 00000066 33 0B           DCW              ((DAC0_STEPS*7) / (SERVO_POSITI
ONS*2))
  913 00000068 66 0E           DCW              ((DAC0_STEPS*9) / (SERVO_POSITI
ONS*2))
  914 0000006A         
  915 0000006A         ;Servo Positions
  916 0000006A         PWM_DUTY_TABLE



ARM Macro Assembler    Page 22 Program Title for Listing Header Goes Here


  917 0000006A 70 17           DCW              PWM_DUTY_10
  918 0000006C 88 13           DCW              ((3*(PWM_DUTY_10-PWM_DUTY_5)/4)
+PWM_DUTY_5)
  919 0000006E A0 0F           DCW              (((PWM_DUTY_10-PWM_DUTY_5)/2)+P
WM_DUTY_5)
  920 00000070 B8 0B           DCW              (((PWM_DUTY_10-PWM_DUTY_5)/4)+P
WM_DUTY_5)
  921 00000072 D0 07           DCW              PWM_DUTY_5
  922 00000074                 ALIGN
  923 00000074         
  924 00000074         ;end constants here
  925 00000074         ;*******************************************************
                       ***************
  926 00000074         ;Variables
  927 00000074                 AREA             MyData,DATA,READWRITE
  928 00000000         ;begin variables here
  929 00000000 00 00 00 
              00 00 00 
              00 00 00 
              00 00 00 
              00 00 00 
              00 00 00 TxRec   SPACE            Q_REC_SZ
  930 00000012 00 00           ALIGN
  931 00000014 00 00 00 
              00 00 00 
              00 00 00 
              00 00 00 
              00 00 00 
              00 00 00 
              00 00 00 
              00 00 00 
              00 00 00 
              00 00 00 
              00 00 00 
              00 00 00 
              00 00 00 
              00 00 00 
              00 00 00 
              00 00 00 
              00 00 00 
              00 00 00 
              00 00 00 
              00 00 00 
              00 00 00 
              00 00 00 
              00 00 00 
              00 00 00 
              00 00 00 
              00 00 00 
              00 00    TxBuff  SPACE            Q_BUF_SZ
  932 00000064                 ALIGN
  933 00000064 00 00 00 
              00 00 00 
              00 00 00 
              00 00 00 
              00 00 00 
              00 00 00 RxRec   SPACE            Q_REC_SZ
  934 00000076 00 00           ALIGN
  935 00000078 00 00 00 



ARM Macro Assembler    Page 23 Program Title for Listing Header Goes Here


              00 00 00 
              00 00 00 
              00 00 00 
              00 00 00 
              00 00 00 
              00 00 00 
              00 00 00 
              00 00 00 
              00 00 00 
              00 00 00 
              00 00 00 
              00 00 00 
              00 00 00 
              00 00 00 
              00 00 00 
              00 00 00 
              00 00 00 
              00 00 00 
              00 00 00 
              00 00 00 
              00 00 00 
              00 00 00 
              00 00 00 
              00 00 00 
              00 00 00 
              00 00    RxBuff  SPACE            Q_BUF_SZ
  936 000000C8                 ALIGN
  937 000000C8         ;end variables here
  938 000000C8                 END
Command Line: --debug --xref --cpu=Cortex-M0+ --apcs=interwork --depend=.\servo
control.d -o.\servocontrol.o -ID:\Keil\ARM\RV31\INC -ID:\Keil\ARM\PACK\ARM\CMSI
S\3.20.4\CMSIS\Include -ID:\Keil\ARM\Inc\Freescale\Kinetis --predefine="__EVAL 
SETA 1" --list=.\servocontrol.lst ServoControl.s



ARM Macro Assembler    Page 1 Alphabetic symbol ordering
Relocatable symbols

.ARM.__at_0x400 00000000

Symbol: .ARM.__at_0x400
   Definitions
      At line 665 in file MKL25Z128xxx4.s
   Uses
      None
Comment: .ARM.__at_0x400 unused
1 symbol



ARM Macro Assembler    Page 1 Alphabetic symbol ordering
Relocatable symbols

Dummy_Handler 000000D4

Symbol: Dummy_Handler
   Definitions
      At line 2289 in file MKL25Z128xxx4.s
   Uses
      At line 845 in file ServoControl.s
      At line 846 in file ServoControl.s
      At line 847 in file ServoControl.s
      At line 848 in file ServoControl.s
      At line 849 in file ServoControl.s
      At line 850 in file ServoControl.s
      At line 851 in file ServoControl.s
      At line 852 in file ServoControl.s
      At line 853 in file ServoControl.s
      At line 854 in file ServoControl.s
      At line 855 in file ServoControl.s
      At line 856 in file ServoControl.s
      At line 857 in file ServoControl.s
      At line 859 in file ServoControl.s
      At line 860 in file ServoControl.s
      At line 861 in file ServoControl.s
      At line 862 in file ServoControl.s
      At line 863 in file ServoControl.s
      At line 864 in file ServoControl.s
      At line 865 in file ServoControl.s
      At line 866 in file ServoControl.s
      At line 868 in file ServoControl.s
      At line 869 in file ServoControl.s
      At line 870 in file ServoControl.s
      At line 871 in file ServoControl.s
      At line 872 in file ServoControl.s
      At line 873 in file ServoControl.s
      At line 875 in file ServoControl.s
      At line 876 in file ServoControl.s
      At line 877 in file ServoControl.s
      At line 878 in file ServoControl.s
      At line 879 in file ServoControl.s
      At line 880 in file ServoControl.s
      At line 881 in file ServoControl.s
      At line 882 in file ServoControl.s
      At line 883 in file ServoControl.s
      At line 884 in file ServoControl.s
      At line 885 in file ServoControl.s
      At line 886 in file ServoControl.s
      At line 887 in file ServoControl.s
      At line 888 in file ServoControl.s
      At line 889 in file ServoControl.s
      At line 890 in file ServoControl.s
      At line 891 in file ServoControl.s
      At line 892 in file ServoControl.s

SetClock48MHz 00000036

Symbol: SetClock48MHz
   Definitions
      At line 2142 in file MKL25Z128xxx4.s
   Uses
      At line 175 in file ServoControl.s



ARM Macro Assembler    Page 2 Alphabetic symbol ordering
Relocatable symbols

Comment: SetClock48MHz used once
Start 00000000

Symbol: Start
   Definitions
      At line 2096 in file MKL25Z128xxx4.s
   Uses
      None
Comment: Start unused
SystemInit 00000000

Symbol: SystemInit
   Definitions
      At line 2097 in file MKL25Z128xxx4.s
   Uses
      At line 171 in file ServoControl.s
Comment: SystemInit used once
__MCG_CLKST_EXT 0000006E

Symbol: __MCG_CLKST_EXT
   Definitions
      At line 2202 in file MKL25Z128xxx4.s
   Uses
      At line 2199 in file MKL25Z128xxx4.s
Comment: __MCG_CLKST_EXT used once
__MCG_CLKST_PLL 000000CE

Symbol: __MCG_CLKST_PLL
   Definitions
      At line 2276 in file MKL25Z128xxx4.s
   Uses
      At line 2273 in file MKL25Z128xxx4.s
Comment: __MCG_CLKST_PLL used once
__MCG_IREFST_Clear 0000005E

Symbol: __MCG_IREFST_Clear
   Definitions
      At line 2189 in file MKL25Z128xxx4.s
   Uses
      At line 2186 in file MKL25Z128xxx4.s
Comment: __MCG_IREFST_Clear used once
__MCG_LOCK0 000000AE

Symbol: __MCG_LOCK0
   Definitions
      At line 2248 in file MKL25Z128xxx4.s
   Uses
      At line 2245 in file MKL25Z128xxx4.s
Comment: __MCG_LOCK0 used once
__MCG_OSCINIT0 00000050

Symbol: __MCG_OSCINIT0
   Definitions
      At line 2178 in file MKL25Z128xxx4.s
   Uses
      At line 2175 in file MKL25Z128xxx4.s
Comment: __MCG_OSCINIT0 used once
__MCG_PLLST 000000A0




ARM Macro Assembler    Page 3 Alphabetic symbol ordering
Relocatable symbols

Symbol: __MCG_PLLST
   Definitions
      At line 2237 in file MKL25Z128xxx4.s
   Uses
      At line 2234 in file MKL25Z128xxx4.s
Comment: __MCG_PLLST used once
__MCG_Wait_CLKST_EXT 00000062

Symbol: __MCG_Wait_CLKST_EXT
   Definitions
      At line 2195 in file MKL25Z128xxx4.s
   Uses
      At line 2201 in file MKL25Z128xxx4.s
Comment: __MCG_Wait_CLKST_EXT used once
__MCG_Wait_CLKST_PLL 000000C2

Symbol: __MCG_Wait_CLKST_PLL
   Definitions
      At line 2269 in file MKL25Z128xxx4.s
   Uses
      At line 2275 in file MKL25Z128xxx4.s
Comment: __MCG_Wait_CLKST_PLL used once
__MCG_Wait_IREFST_Clear 00000054

Symbol: __MCG_Wait_IREFST_Clear
   Definitions
      At line 2183 in file MKL25Z128xxx4.s
   Uses
      At line 2188 in file MKL25Z128xxx4.s
Comment: __MCG_Wait_IREFST_Clear used once
__MCG_Wait_LOCK0 000000A4

Symbol: __MCG_Wait_LOCK0
   Definitions
      At line 2242 in file MKL25Z128xxx4.s
   Uses
      At line 2247 in file MKL25Z128xxx4.s
Comment: __MCG_Wait_LOCK0 used once
__MCG_Wait_OSCINIT0 00000046

Symbol: __MCG_Wait_OSCINIT0
   Definitions
      At line 2172 in file MKL25Z128xxx4.s
   Uses
      At line 2177 in file MKL25Z128xxx4.s
Comment: __MCG_Wait_OSCINIT0 used once
__MCG_Wait_PLLST 00000096

Symbol: __MCG_Wait_PLLST
   Definitions
      At line 2231 in file MKL25Z128xxx4.s
   Uses
      At line 2236 in file MKL25Z128xxx4.s
Comment: __MCG_Wait_PLLST used once
16 symbols



ARM Macro Assembler    Page 1 Alphabetic symbol ordering
Relocatable symbols

SP_INIT 00000100

Symbol: SP_INIT
   Definitions
      At line 2303 in file MKL25Z128xxx4.s
   Uses
      At line 843 in file ServoControl.s
Comment: SP_INIT used once
SSTACK 00000000

Symbol: SSTACK
   Definitions
      At line 2296 in file MKL25Z128xxx4.s
   Uses
      None
Comment: SSTACK unused
2 symbols



ARM Macro Assembler    Page 1 Alphabetic symbol ordering
Relocatable symbols

ADC0__Init 0000028C

Symbol: ADC0__Init
   Definitions
      At line 613 in file ServoControl.s
   Uses
      At line 179 in file ServoControl.s
Comment: ADC0__Init used once
ADCCon 00000310

Symbol: ADCCon
   Definitions
      At line 694 in file ServoControl.s
   Uses
      At line 696 in file ServoControl.s
Comment: ADCCon used once
CalIP 000002AE

Symbol: CalIP
   Definitions
      At line 639 in file ServoControl.s
   Uses
      At line 641 in file ServoControl.s
Comment: CalIP used once
CalSuc 00000304

Symbol: CalSuc
   Definitions
      At line 686 in file ServoControl.s
   Uses
      None
Comment: CalSuc unused
Calb 000002A8

Symbol: Calb
   Definitions
      At line 635 in file ServoControl.s
   Uses
      At line 645 in file ServoControl.s
Comment: Calb used once
Conv 00000148

Symbol: Conv
   Definitions
      At line 396 in file ServoControl.s
   Uses
      At line 404 in file ServoControl.s
Comment: Conv used once
DAC0__Init 0000025C

Symbol: DAC0__Init
   Definitions
      At line 576 in file ServoControl.s
   Uses
      At line 177 in file ServoControl.s
Comment: DAC0__Init used once
DIVU 00000170

Symbol: DIVU



ARM Macro Assembler    Page 2 Alphabetic symbol ordering
Relocatable symbols

   Definitions
      At line 426 in file ServoControl.s
   Uses
      At line 400 in file ServoControl.s
Comment: DIVU used once
Dequeue 000001A2

Symbol: Dequeue
   Definitions
      At line 461 in file ServoControl.s
   Uses
      At line 290 in file ServoControl.s
      At line 819 in file ServoControl.s

DivByZero 0000018A

Symbol: DivByZero
   Definitions
      At line 443 in file ServoControl.s
   Uses
      At line 427 in file ServoControl.s
Comment: DivByZero used once
Dividing 00000178

Symbol: Dividing
   Definitions
      At line 432 in file ServoControl.s
   Uses
      At line 436 in file ServoControl.s
Comment: Dividing used once
DoneDiv 00000182

Symbol: DoneDiv
   Definitions
      At line 438 in file ServoControl.s
   Uses
      At line 433 in file ServoControl.s
Comment: DoneDiv used once
EndHex 0000013E

Symbol: EndHex
   Definitions
      At line 379 in file ServoControl.s
   Uses
      At line 361 in file ServoControl.s
Comment: EndHex used once
EndU1ISR 000003D2

Symbol: EndU1ISR
   Definitions
      At line 831 in file ServoControl.s
   Uses
      At line 823 in file ServoControl.s
Comment: EndU1ISR used once
Enqueue 000001F2

Symbol: Enqueue
   Definitions
      At line 510 in file ServoControl.s



ARM Macro Assembler    Page 3 Alphabetic symbol ordering
Relocatable symbols

   Uses
      At line 307 in file ServoControl.s
      At line 830 in file ServoControl.s

GetChar 000000CA

Symbol: GetChar
   Definitions
      At line 286 in file ServoControl.s
   Uses
      At line 201 in file ServoControl.s
Comment: GetChar used once
GetDAC0Val 0000005C

Symbol: GetDAC0Val
   Definitions
      At line 220 in file ServoControl.s
   Uses
      None
Comment: GetDAC0Val unused
GetPWMI 0000009E

Symbol: GetPWMI
   Definitions
      At line 254 in file ServoControl.s
   Uses
      At line 258 in file ServoControl.s
Comment: GetPWMI used once
GetVal 0000007E

Symbol: GetVal
   Definitions
      At line 236 in file ServoControl.s
   Uses
      None
Comment: GetVal unused
GotI 000000A8

Symbol: GotI
   Definitions
      At line 260 in file ServoControl.s
   Uses
      At line 255 in file ServoControl.s
Comment: GotI used once
Invalid 00000036

Symbol: Invalid
   Definitions
      At line 201 in file ServoControl.s
   Uses
      At line 204 in file ServoControl.s
      At line 206 in file ServoControl.s

Letter 00000134

Symbol: Letter
   Definitions
      At line 375 in file ServoControl.s
   Uses



ARM Macro Assembler    Page 4 Alphabetic symbol ordering
Relocatable symbols

      At line 370 in file ServoControl.s
Comment: Letter used once
Main 00000030

Symbol: Main
   Definitions
      At line 199 in file ServoControl.s
   Uses
      At line 275 in file ServoControl.s
Comment: Main used once
MyCode 00000000

Symbol: MyCode
   Definitions
      At line 164 in file ServoControl.s
   Uses
      None
Comment: MyCode unused
NOTEND 0000020E

Symbol: NOTEND
   Definitions
      At line 525 in file ServoControl.s
   Uses
      At line 522 in file ServoControl.s
Comment: NOTEND used once
NOTSTR 000001BC

Symbol: NOTSTR
   Definitions
      At line 475 in file ServoControl.s
   Uses
      At line 472 in file ServoControl.s
Comment: NOTSTR used once
NVIC__Init 0000039E

Symbol: NVIC__Init
   Definitions
      At line 794 in file ServoControl.s
   Uses
      At line 185 in file ServoControl.s
Comment: NVIC__Init used once
NextCharP 000000F4

Symbol: NextCharP
   Definitions
      At line 329 in file ServoControl.s
   Uses
      At line 335 in file ServoControl.s
Comment: NextCharP used once
NotDone 00000086

Symbol: NotDone
   Definitions
      At line 241 in file ServoControl.s
   Uses
      At line 243 in file ServoControl.s
Comment: NotDone used once
Number 0000012A



ARM Macro Assembler    Page 5 Alphabetic symbol ordering
Relocatable symbols


Symbol: Number
   Definitions
      At line 371 in file ServoControl.s
   Uses
      None
Comment: Number unused
PZero 00000168

Symbol: PZero
   Definitions
      At line 414 in file ServoControl.s
   Uses
      At line 393 in file ServoControl.s
Comment: PZero used once
PrintADC 0000008E

Symbol: PrintADC
   Definitions
      At line 246 in file ServoControl.s
   Uses
      None
Comment: PrintADC unused
PrintDAC 00000062

Symbol: PrintDAC
   Definitions
      At line 223 in file ServoControl.s
   Uses
      None
Comment: PrintDAC unused
PrintingH 0000011A

Symbol: PrintingH
   Definitions
      At line 360 in file ServoControl.s
   Uses
      At line 374 in file ServoControl.s
      At line 378 in file ServoControl.s

PrintingNU 00000158

Symbol: PrintingNU
   Definitions
      At line 406 in file ServoControl.s
   Uses
      At line 397 in file ServoControl.s
      At line 413 in file ServoControl.s

PutChar 000000DA

Symbol: PutChar
   Definitions
      At line 303 in file ServoControl.s
   Uses
      At line 209 in file ServoControl.s
      At line 334 in file ServoControl.s
      At line 355 in file ServoControl.s
      At line 357 in file ServoControl.s



ARM Macro Assembler    Page 6 Alphabetic symbol ordering
Relocatable symbols

      At line 372 in file ServoControl.s
      At line 376 in file ServoControl.s
      At line 412 in file ServoControl.s
      At line 415 in file ServoControl.s

PutNumHex 00000104

Symbol: PutNumHex
   Definitions
      At line 348 in file ServoControl.s
   Uses
      At line 223 in file ServoControl.s
      At line 246 in file ServoControl.s

PutNumU 00000140

Symbol: PutNumU
   Definitions
      At line 390 in file ServoControl.s
   Uses
      At line 264 in file ServoControl.s
Comment: PutNumU used once
PutString 000000F0

Symbol: PutString
   Definitions
      At line 326 in file ServoControl.s
   Uses
      At line 200 in file ServoControl.s
      At line 211 in file ServoControl.s
      At line 213 in file ServoControl.s
      At line 226 in file ServoControl.s
      At line 228 in file ServoControl.s
      At line 249 in file ServoControl.s
      At line 261 in file ServoControl.s
      At line 266 in file ServoControl.s

PutVal 00000076

Symbol: PutVal
   Definitions
      At line 231 in file ServoControl.s
   Uses
      None
Comment: PutVal unused
QEMP 000001D8

Symbol: QEMP
   Definitions
      At line 489 in file ServoControl.s
   Uses
      At line 464 in file ServoControl.s
Comment: QEMP used once
QFUL 0000022A

Symbol: QFUL
   Definitions
      At line 539 in file ServoControl.s
   Uses



ARM Macro Assembler    Page 7 Alphabetic symbol ordering
Relocatable symbols

      At line 514 in file ServoControl.s
Comment: QFUL used once
QNotRDY 000000DE

Symbol: QNotRDY
   Definitions
      At line 306 in file ServoControl.s
   Uses
      At line 311 in file ServoControl.s
Comment: QNotRDY used once
Q_init 00000244

Symbol: Q_init
   Definitions
      At line 560 in file ServoControl.s
   Uses
      At line 189 in file ServoControl.s
      At line 192 in file ServoControl.s

Reset_Handler 00000000

Symbol: Reset_Handler
   Definitions
      At line 167 in file ServoControl.s
   Uses
      At line 166 in file ServoControl.s
      At line 844 in file ServoControl.s

RxInter 000003CA

Symbol: RxInter
   Definitions
      At line 828 in file ServoControl.s
   Uses
      At line 816 in file ServoControl.s
Comment: RxInter used once
TPM0__Init 00000318

Symbol: TPM0__Init
   Definitions
      At line 702 in file ServoControl.s
   Uses
      At line 181 in file ServoControl.s
Comment: TPM0__Init used once
Terminate 00000102

Symbol: Terminate
   Definitions
      At line 336 in file ServoControl.s
   Uses
      At line 333 in file ServoControl.s
Comment: Terminate used once
TxFail 000003C4

Symbol: TxFail
   Definitions
      At line 824 in file ServoControl.s
   Uses
      At line 821 in file ServoControl.s



ARM Macro Assembler    Page 8 Alphabetic symbol ordering
Relocatable symbols

Comment: TxFail used once
TxInter 000003B8

Symbol: TxInter
   Definitions
      At line 818 in file ServoControl.s
   Uses
      None
Comment: TxInter unused
UART1_ISR 000003AC

Symbol: UART1_ISR
   Definitions
      At line 810 in file ServoControl.s
   Uses
      At line 874 in file ServoControl.s
Comment: UART1_ISR used once
UART1__Init 00000358

Symbol: UART1__Init
   Definitions
      At line 747 in file ServoControl.s
   Uses
      At line 183 in file ServoControl.s
Comment: UART1__Init used once
WaitForC 000000CE

Symbol: WaitForC
   Definitions
      At line 289 in file ServoControl.s
   Uses
      At line 292 in file ServoControl.s
Comment: WaitForC used once
__EndMyCode 000003D4

Symbol: __EndMyCode
   Definitions
      At line 835 in file ServoControl.s
   Uses
      None
Comment: __EndMyCode unused
doneNU 0000016E

Symbol: doneNU
   Definitions
      At line 416 in file ServoControl.s
   Uses
      At line 407 in file ServoControl.s
Comment: doneNU used once
main 00000000

Symbol: main
   Definitions
      At line 168 in file ServoControl.s
   Uses
      None
Comment: main unused
startDiv 00000174




ARM Macro Assembler    Page 9 Alphabetic symbol ordering
Relocatable symbols

Symbol: startDiv
   Definitions
      At line 429 in file ServoControl.s
   Uses
      None
Comment: startDiv unused
57 symbols



ARM Macro Assembler    Page 1 Alphabetic symbol ordering
Relocatable symbols

RESET 00000000

Symbol: RESET
   Definitions
      At line 839 in file ServoControl.s
   Uses
      None
Comment: RESET unused
__Vectors 00000000

Symbol: __Vectors
   Definitions
      At line 841 in file ServoControl.s
   Uses
      At line 840 in file ServoControl.s
Comment: __Vectors used once
2 symbols



ARM Macro Assembler    Page 1 Alphabetic symbol ordering
Relocatable symbols

DAC0_TABLE 00000060

Symbol: DAC0_TABLE
   Definitions
      At line 908 in file ServoControl.s
   Uses
      At line 220 in file ServoControl.s
Comment: DAC0_TABLE used once
MyConst 00000000

Symbol: MyConst
   Definitions
      At line 896 in file ServoControl.s
   Uses
      None
Comment: MyConst unused
NewLineP 00000000

Symbol: NewLineP
   Definitions
      At line 900 in file ServoControl.s
   Uses
      At line 210 in file ServoControl.s
      At line 225 in file ServoControl.s
      At line 248 in file ServoControl.s
      At line 265 in file ServoControl.s

NewPrmp 00000038

Symbol: NewPrmp
   Definitions
      At line 903 in file ServoControl.s
   Uses
      At line 227 in file ServoControl.s
Comment: NewPrmp used once
OrgnPrmp 0000001F

Symbol: OrgnPrmp
   Definitions
      At line 902 in file ServoControl.s
   Uses
      At line 212 in file ServoControl.s
Comment: OrgnPrmp used once
PWM_DUTY_TABLE 0000006A

Symbol: PWM_DUTY_TABLE
   Definitions
      At line 916 in file ServoControl.s
   Uses
      At line 268 in file ServoControl.s
Comment: PWM_DUTY_TABLE used once
SerPPrmp 0000004C

Symbol: SerPPrmp
   Definitions
      At line 904 in file ServoControl.s
   Uses
      At line 260 in file ServoControl.s
Comment: SerPPrmp used once



ARM Macro Assembler    Page 2 Alphabetic symbol ordering
Relocatable symbols

UserPrmp 00000003

Symbol: UserPrmp
   Definitions
      At line 901 in file ServoControl.s
   Uses
      At line 199 in file ServoControl.s
Comment: UserPrmp used once
8 symbols



ARM Macro Assembler    Page 1 Alphabetic symbol ordering
Relocatable symbols

MyData 00000000

Symbol: MyData
   Definitions
      At line 927 in file ServoControl.s
   Uses
      None
Comment: MyData unused
RxBuff 00000078

Symbol: RxBuff
   Definitions
      At line 935 in file ServoControl.s
   Uses
      At line 191 in file ServoControl.s
Comment: RxBuff used once
RxRec 00000064

Symbol: RxRec
   Definitions
      At line 933 in file ServoControl.s
   Uses
      At line 190 in file ServoControl.s
      At line 287 in file ServoControl.s
      At line 828 in file ServoControl.s

TxBuff 00000014

Symbol: TxBuff
   Definitions
      At line 931 in file ServoControl.s
   Uses
      At line 188 in file ServoControl.s
Comment: TxBuff used once
TxRec 00000000

Symbol: TxRec
   Definitions
      At line 929 in file ServoControl.s
   Uses
      At line 187 in file ServoControl.s
      At line 304 in file ServoControl.s
      At line 818 in file ServoControl.s

5 symbols



ARM Macro Assembler    Page 1 Alphabetic symbol ordering
Absolute symbols

ADC0_BASE 4003B000

Symbol: ADC0_BASE
   Definitions
      At line 94 in file MKL25Z128xxx4.s
   Uses
      At line 122 in file MKL25Z128xxx4.s
      At line 123 in file MKL25Z128xxx4.s
      At line 124 in file MKL25Z128xxx4.s
      At line 125 in file MKL25Z128xxx4.s
      At line 126 in file MKL25Z128xxx4.s
      At line 127 in file MKL25Z128xxx4.s
      At line 128 in file MKL25Z128xxx4.s
      At line 129 in file MKL25Z128xxx4.s
      At line 130 in file MKL25Z128xxx4.s
      At line 131 in file MKL25Z128xxx4.s
      At line 132 in file MKL25Z128xxx4.s
      At line 133 in file MKL25Z128xxx4.s
      At line 134 in file MKL25Z128xxx4.s
      At line 135 in file MKL25Z128xxx4.s
      At line 136 in file MKL25Z128xxx4.s
      At line 137 in file MKL25Z128xxx4.s
      At line 138 in file MKL25Z128xxx4.s
      At line 139 in file MKL25Z128xxx4.s
      At line 140 in file MKL25Z128xxx4.s
      At line 141 in file MKL25Z128xxx4.s
      At line 142 in file MKL25Z128xxx4.s
      At line 143 in file MKL25Z128xxx4.s
      At line 144 in file MKL25Z128xxx4.s
      At line 145 in file MKL25Z128xxx4.s
      At line 146 in file MKL25Z128xxx4.s
      At line 147 in file MKL25Z128xxx4.s
      At line 148 in file MKL25Z128xxx4.s
      At line 236 in file ServoControl.s
      At line 623 in file ServoControl.s

ADC0_CFG1 4003B008

Symbol: ADC0_CFG1
   Definitions
      At line 122 in file MKL25Z128xxx4.s
   Uses
      None
Comment: ADC0_CFG1 unused
ADC0_CFG1_OFFSET 00000008

Symbol: ADC0_CFG1_OFFSET
   Definitions
      At line 97 in file MKL25Z128xxx4.s
   Uses
      At line 122 in file MKL25Z128xxx4.s
      At line 625 in file ServoControl.s

ADC0_CFG2 4003B00C

Symbol: ADC0_CFG2
   Definitions
      At line 123 in file MKL25Z128xxx4.s
   Uses



ARM Macro Assembler    Page 2 Alphabetic symbol ordering
Absolute symbols

      None
Comment: ADC0_CFG2 unused
ADC0_CFG2_OFFSET 0000000C

Symbol: ADC0_CFG2_OFFSET
   Definitions
      At line 98 in file MKL25Z128xxx4.s
   Uses
      At line 123 in file MKL25Z128xxx4.s
      At line 628 in file ServoControl.s

ADC0_CHAN_A_NORMAL_LONG 00000000

Symbol: ADC0_CHAN_A_NORMAL_LONG
   Definitions
      At line 59 in file ServoControl.s
   Uses
      At line 627 in file ServoControl.s
Comment: ADC0_CHAN_A_NORMAL_LONG used once
ADC0_CLM0 4003B06C

Symbol: ADC0_CLM0
   Definitions
      At line 126 in file MKL25Z128xxx4.s
   Uses
      None
Comment: ADC0_CLM0 unused
ADC0_CLM0_MASK 0000003F

Symbol: ADC0_CLM0_MASK
   Definitions
      At line 214 in file MKL25Z128xxx4.s
   Uses
      None
Comment: ADC0_CLM0_MASK unused
ADC0_CLM0_OFFSET 0000006C

Symbol: ADC0_CLM0_OFFSET
   Definitions
      At line 121 in file MKL25Z128xxx4.s
   Uses
      At line 126 in file MKL25Z128xxx4.s
      At line 668 in file ServoControl.s

ADC0_CLM1 4003B068

Symbol: ADC0_CLM1
   Definitions
      At line 127 in file MKL25Z128xxx4.s
   Uses
      None
Comment: ADC0_CLM1 unused
ADC0_CLM1_MASK 0000007F

Symbol: ADC0_CLM1_MASK
   Definitions
      At line 219 in file MKL25Z128xxx4.s
   Uses
      None



ARM Macro Assembler    Page 3 Alphabetic symbol ordering
Absolute symbols

Comment: ADC0_CLM1_MASK unused
ADC0_CLM1_OFFSET 00000068

Symbol: ADC0_CLM1_OFFSET
   Definitions
      At line 120 in file MKL25Z128xxx4.s
   Uses
      At line 127 in file MKL25Z128xxx4.s
      At line 670 in file ServoControl.s

ADC0_CLM2 4003B064

Symbol: ADC0_CLM2
   Definitions
      At line 128 in file MKL25Z128xxx4.s
   Uses
      None
Comment: ADC0_CLM2 unused
ADC0_CLM2_MASK 000000FF

Symbol: ADC0_CLM2_MASK
   Definitions
      At line 224 in file MKL25Z128xxx4.s
   Uses
      None
Comment: ADC0_CLM2_MASK unused
ADC0_CLM2_OFFSET 00000064

Symbol: ADC0_CLM2_OFFSET
   Definitions
      At line 119 in file MKL25Z128xxx4.s
   Uses
      At line 128 in file MKL25Z128xxx4.s
      At line 672 in file ServoControl.s

ADC0_CLM3 4003B060

Symbol: ADC0_CLM3
   Definitions
      At line 129 in file MKL25Z128xxx4.s
   Uses
      None
Comment: ADC0_CLM3 unused
ADC0_CLM3_MASK 000001FF

Symbol: ADC0_CLM3_MASK
   Definitions
      At line 229 in file MKL25Z128xxx4.s
   Uses
      None
Comment: ADC0_CLM3_MASK unused
ADC0_CLM3_OFFSET 00000060

Symbol: ADC0_CLM3_OFFSET
   Definitions
      At line 118 in file MKL25Z128xxx4.s
   Uses
      At line 129 in file MKL25Z128xxx4.s
      At line 674 in file ServoControl.s



ARM Macro Assembler    Page 4 Alphabetic symbol ordering
Absolute symbols


ADC0_CLM4 4003B05C

Symbol: ADC0_CLM4
   Definitions
      At line 130 in file MKL25Z128xxx4.s
   Uses
      None
Comment: ADC0_CLM4 unused
ADC0_CLM4_MASK 000003FF

Symbol: ADC0_CLM4_MASK
   Definitions
      At line 234 in file MKL25Z128xxx4.s
   Uses
      None
Comment: ADC0_CLM4_MASK unused
ADC0_CLM4_OFFSET 0000005C

Symbol: ADC0_CLM4_OFFSET
   Definitions
      At line 117 in file MKL25Z128xxx4.s
   Uses
      At line 130 in file MKL25Z128xxx4.s
      At line 676 in file ServoControl.s

ADC0_CLMD 4003B054

Symbol: ADC0_CLMD
   Definitions
      At line 124 in file MKL25Z128xxx4.s
   Uses
      None
Comment: ADC0_CLMD unused
ADC0_CLMD_MASK 0000003F

Symbol: ADC0_CLMD_MASK
   Definitions
      At line 204 in file MKL25Z128xxx4.s
   Uses
      None
Comment: ADC0_CLMD_MASK unused
ADC0_CLMD_OFFSET 00000054

Symbol: ADC0_CLMD_OFFSET
   Definitions
      At line 115 in file MKL25Z128xxx4.s
   Uses
      At line 124 in file MKL25Z128xxx4.s
Comment: ADC0_CLMD_OFFSET used once
ADC0_CLMS 4003B058

Symbol: ADC0_CLMS
   Definitions
      At line 125 in file MKL25Z128xxx4.s
   Uses
      None
Comment: ADC0_CLMS unused
ADC0_CLMS_MASK 0000003F



ARM Macro Assembler    Page 5 Alphabetic symbol ordering
Absolute symbols


Symbol: ADC0_CLMS_MASK
   Definitions
      At line 209 in file MKL25Z128xxx4.s
   Uses
      None
Comment: ADC0_CLMS_MASK unused
ADC0_CLMS_OFFSET 00000058

Symbol: ADC0_CLMS_OFFSET
   Definitions
      At line 116 in file MKL25Z128xxx4.s
   Uses
      At line 125 in file MKL25Z128xxx4.s
      At line 678 in file ServoControl.s

ADC0_CLP0 4003B04C

Symbol: ADC0_CLP0
   Definitions
      At line 133 in file MKL25Z128xxx4.s
   Uses
      None
Comment: ADC0_CLP0 unused
ADC0_CLP0_MASK 0000003F

Symbol: ADC0_CLP0_MASK
   Definitions
      At line 249 in file MKL25Z128xxx4.s
   Uses
      None
Comment: ADC0_CLP0_MASK unused
ADC0_CLP0_OFFSET 0000004C

Symbol: ADC0_CLP0_OFFSET
   Definitions
      At line 114 in file MKL25Z128xxx4.s
   Uses
      At line 133 in file MKL25Z128xxx4.s
      At line 649 in file ServoControl.s

ADC0_CLP1 4003B048

Symbol: ADC0_CLP1
   Definitions
      At line 134 in file MKL25Z128xxx4.s
   Uses
      None
Comment: ADC0_CLP1 unused
ADC0_CLP1_MASK 0000007F

Symbol: ADC0_CLP1_MASK
   Definitions
      At line 254 in file MKL25Z128xxx4.s
   Uses
      None
Comment: ADC0_CLP1_MASK unused
ADC0_CLP1_OFFSET 00000048




ARM Macro Assembler    Page 6 Alphabetic symbol ordering
Absolute symbols

Symbol: ADC0_CLP1_OFFSET
   Definitions
      At line 113 in file MKL25Z128xxx4.s
   Uses
      At line 134 in file MKL25Z128xxx4.s
      At line 651 in file ServoControl.s

ADC0_CLP2 4003B044

Symbol: ADC0_CLP2
   Definitions
      At line 135 in file MKL25Z128xxx4.s
   Uses
      None
Comment: ADC0_CLP2 unused
ADC0_CLP2_MASK 000000FF

Symbol: ADC0_CLP2_MASK
   Definitions
      At line 259 in file MKL25Z128xxx4.s
   Uses
      None
Comment: ADC0_CLP2_MASK unused
ADC0_CLP2_OFFSET 00000044

Symbol: ADC0_CLP2_OFFSET
   Definitions
      At line 112 in file MKL25Z128xxx4.s
   Uses
      At line 135 in file MKL25Z128xxx4.s
      At line 653 in file ServoControl.s

ADC0_CLP3 4003B040

Symbol: ADC0_CLP3
   Definitions
      At line 136 in file MKL25Z128xxx4.s
   Uses
      None
Comment: ADC0_CLP3 unused
ADC0_CLP3_MASK 000001FF

Symbol: ADC0_CLP3_MASK
   Definitions
      At line 264 in file MKL25Z128xxx4.s
   Uses
      None
Comment: ADC0_CLP3_MASK unused
ADC0_CLP3_OFFSET 00000040

Symbol: ADC0_CLP3_OFFSET
   Definitions
      At line 111 in file MKL25Z128xxx4.s
   Uses
      At line 136 in file MKL25Z128xxx4.s
      At line 655 in file ServoControl.s

ADC0_CLP4 4003B03C




ARM Macro Assembler    Page 7 Alphabetic symbol ordering
Absolute symbols

Symbol: ADC0_CLP4
   Definitions
      At line 137 in file MKL25Z128xxx4.s
   Uses
      None
Comment: ADC0_CLP4 unused
ADC0_CLP4_MASK 000003FF

Symbol: ADC0_CLP4_MASK
   Definitions
      At line 269 in file MKL25Z128xxx4.s
   Uses
      None
Comment: ADC0_CLP4_MASK unused
ADC0_CLP4_OFFSET 0000003C

Symbol: ADC0_CLP4_OFFSET
   Definitions
      At line 110 in file MKL25Z128xxx4.s
   Uses
      At line 137 in file MKL25Z128xxx4.s
      At line 657 in file ServoControl.s

ADC0_CLPD 4003B034

Symbol: ADC0_CLPD
   Definitions
      At line 131 in file MKL25Z128xxx4.s
   Uses
      None
Comment: ADC0_CLPD unused
ADC0_CLPD_MASK 0000003F

Symbol: ADC0_CLPD_MASK
   Definitions
      At line 239 in file MKL25Z128xxx4.s
   Uses
      None
Comment: ADC0_CLPD_MASK unused
ADC0_CLPD_OFFSET 00000034

Symbol: ADC0_CLPD_OFFSET
   Definitions
      At line 108 in file MKL25Z128xxx4.s
   Uses
      At line 131 in file MKL25Z128xxx4.s
Comment: ADC0_CLPD_OFFSET used once
ADC0_CLPS 4003B038

Symbol: ADC0_CLPS
   Definitions
      At line 132 in file MKL25Z128xxx4.s
   Uses
      None
Comment: ADC0_CLPS unused
ADC0_CLPS_MASK 0000003F

Symbol: ADC0_CLPS_MASK
   Definitions



ARM Macro Assembler    Page 8 Alphabetic symbol ordering
Absolute symbols

      At line 244 in file MKL25Z128xxx4.s
   Uses
      None
Comment: ADC0_CLPS_MASK unused
ADC0_CLPS_OFFSET 00000038

Symbol: ADC0_CLPS_OFFSET
   Definitions
      At line 109 in file MKL25Z128xxx4.s
   Uses
      At line 132 in file MKL25Z128xxx4.s
      At line 659 in file ServoControl.s

ADC0_CV1 4003B018

Symbol: ADC0_CV1
   Definitions
      At line 138 in file MKL25Z128xxx4.s
   Uses
      None
Comment: ADC0_CV1 unused
ADC0_CV1_OFFSET 00000018

Symbol: ADC0_CV1_OFFSET
   Definitions
      At line 101 in file MKL25Z128xxx4.s
   Uses
      At line 138 in file MKL25Z128xxx4.s
Comment: ADC0_CV1_OFFSET used once
ADC0_CV2 4003B01C

Symbol: ADC0_CV2
   Definitions
      At line 139 in file MKL25Z128xxx4.s
   Uses
      None
Comment: ADC0_CV2 unused
ADC0_CV2_OFFSET 0000001C

Symbol: ADC0_CV2_OFFSET
   Definitions
      At line 102 in file MKL25Z128xxx4.s
   Uses
      At line 139 in file MKL25Z128xxx4.s
Comment: ADC0_CV2_OFFSET used once
ADC0_IPR E000E40C

Symbol: ADC0_IPR
   Definitions
      At line 914 in file MKL25Z128xxx4.s
   Uses
      None
Comment: ADC0_IPR unused
ADC0_IRQ 0000000F

Symbol: ADC0_IRQ
   Definitions
      At line 984 in file MKL25Z128xxx4.s
   Uses



ARM Macro Assembler    Page 9 Alphabetic symbol ordering
Absolute symbols

      At line 1018 in file MKL25Z128xxx4.s
Comment: ADC0_IRQ used once
ADC0_IRQ_MASK 00008000

Symbol: ADC0_IRQ_MASK
   Definitions
      At line 1018 in file MKL25Z128xxx4.s
   Uses
      None
Comment: ADC0_IRQ_MASK unused
ADC0_LP_LONG_SGL10_3MHZ 000000D9

Symbol: ADC0_LP_LONG_SGL10_3MHZ
   Definitions
      At line 58 in file ServoControl.s
   Uses
      At line 624 in file ServoControl.s
Comment: ADC0_LP_LONG_SGL10_3MHZ used once
ADC0_MG 4003B030

Symbol: ADC0_MG
   Definitions
      At line 140 in file MKL25Z128xxx4.s
   Uses
      None
Comment: ADC0_MG unused
ADC0_MG_MASK 0000FFFF

Symbol: ADC0_MG_MASK
   Definitions
      At line 281 in file MKL25Z128xxx4.s
   Uses
      None
Comment: ADC0_MG_MASK unused
ADC0_MG_OFFSET 00000030

Symbol: ADC0_MG_OFFSET
   Definitions
      At line 107 in file MKL25Z128xxx4.s
   Uses
      At line 140 in file MKL25Z128xxx4.s
      At line 684 in file ServoControl.s

ADC0_OFS 4003B028

Symbol: ADC0_OFS
   Definitions
      At line 141 in file MKL25Z128xxx4.s
   Uses
      None
Comment: ADC0_OFS unused
ADC0_OFS_MASK 0000FFFF

Symbol: ADC0_OFS_MASK
   Definitions
      At line 286 in file MKL25Z128xxx4.s
   Uses
      None
Comment: ADC0_OFS_MASK unused



ARM Macro Assembler    Page 10 Alphabetic symbol ordering
Absolute symbols

ADC0_OFS_OFFSET 00000028

Symbol: ADC0_OFS_OFFSET
   Definitions
      At line 105 in file MKL25Z128xxx4.s
   Uses
      At line 141 in file MKL25Z128xxx4.s
Comment: ADC0_OFS_OFFSET used once
ADC0_PG 4003B02C

Symbol: ADC0_PG
   Definitions
      At line 142 in file MKL25Z128xxx4.s
   Uses
      None
Comment: ADC0_PG unused
ADC0_PG_MASK 0000FFFF

Symbol: ADC0_PG_MASK
   Definitions
      At line 291 in file MKL25Z128xxx4.s
   Uses
      None
Comment: ADC0_PG_MASK unused
ADC0_PG_OFFSET 0000002C

Symbol: ADC0_PG_OFFSET
   Definitions
      At line 106 in file MKL25Z128xxx4.s
   Uses
      At line 142 in file MKL25Z128xxx4.s
      At line 665 in file ServoControl.s

ADC0_PRI_POS 0000001E

Symbol: ADC0_PRI_POS
   Definitions
      At line 950 in file MKL25Z128xxx4.s
   Uses
      None
Comment: ADC0_PRI_POS unused
ADC0_RA 4003B010

Symbol: ADC0_RA
   Definitions
      At line 143 in file MKL25Z128xxx4.s
   Uses
      None
Comment: ADC0_RA unused
ADC0_RA_OFFSET 00000010

Symbol: ADC0_RA_OFFSET
   Definitions
      At line 99 in file MKL25Z128xxx4.s
   Uses
      At line 143 in file MKL25Z128xxx4.s
      At line 245 in file ServoControl.s

ADC0_RB 4003B014



ARM Macro Assembler    Page 11 Alphabetic symbol ordering
Absolute symbols


Symbol: ADC0_RB
   Definitions
      At line 144 in file MKL25Z128xxx4.s
   Uses
      None
Comment: ADC0_RB unused
ADC0_RB_OFFSET 00000014

Symbol: ADC0_RB_OFFSET
   Definitions
      At line 100 in file MKL25Z128xxx4.s
   Uses
      At line 144 in file MKL25Z128xxx4.s
Comment: ADC0_RB_OFFSET used once
ADC0_SC1A 4003B000

Symbol: ADC0_SC1A
   Definitions
      At line 145 in file MKL25Z128xxx4.s
   Uses
      None
Comment: ADC0_SC1A unused
ADC0_SC1A_OFFSET 00000000

Symbol: ADC0_SC1A_OFFSET
   Definitions
      At line 95 in file MKL25Z128xxx4.s
   Uses
      At line 145 in file MKL25Z128xxx4.s
      At line 238 in file ServoControl.s
      At line 241 in file ServoControl.s
      At line 691 in file ServoControl.s
      At line 694 in file ServoControl.s

ADC0_SC1B 4003B004

Symbol: ADC0_SC1B
   Definitions
      At line 146 in file MKL25Z128xxx4.s
   Uses
      None
Comment: ADC0_SC1B unused
ADC0_SC1B_OFFSET 00000004

Symbol: ADC0_SC1B_OFFSET
   Definitions
      At line 96 in file MKL25Z128xxx4.s
   Uses
      At line 146 in file MKL25Z128xxx4.s
Comment: ADC0_SC1B_OFFSET used once
ADC0_SC2 4003B020

Symbol: ADC0_SC2
   Definitions
      At line 147 in file MKL25Z128xxx4.s
   Uses
      None
Comment: ADC0_SC2 unused



ARM Macro Assembler    Page 12 Alphabetic symbol ordering
Absolute symbols

ADC0_SC2_OFFSET 00000020

Symbol: ADC0_SC2_OFFSET
   Definitions
      At line 103 in file MKL25Z128xxx4.s
   Uses
      At line 147 in file MKL25Z128xxx4.s
      At line 630 in file ServoControl.s

ADC0_SC3 4003B024

Symbol: ADC0_SC3
   Definitions
      At line 148 in file MKL25Z128xxx4.s
   Uses
      None
Comment: ADC0_SC3 unused
ADC0_SC3_CAL 00000087

Symbol: ADC0_SC3_CAL
   Definitions
      At line 61 in file ServoControl.s
   Uses
      At line 635 in file ServoControl.s
Comment: ADC0_SC3_CAL used once
ADC0_SC3_OFFSET 00000024

Symbol: ADC0_SC3_OFFSET
   Definitions
      At line 104 in file MKL25Z128xxx4.s
   Uses
      At line 148 in file MKL25Z128xxx4.s
      At line 634 in file ServoControl.s
      At line 686 in file ServoControl.s

ADC0_SGL_DAC 00000017

Symbol: ADC0_SGL_DAC
   Definitions
      At line 63 in file ServoControl.s
   Uses
      At line 237 in file ServoControl.s
      At line 690 in file ServoControl.s

ADC0_SINGLE 00000000

Symbol: ADC0_SINGLE
   Definitions
      At line 62 in file ServoControl.s
   Uses
      At line 687 in file ServoControl.s
Comment: ADC0_SINGLE used once
ADC0_SWTRIG_VDDA 00000001

Symbol: ADC0_SWTRIG_VDDA
   Definitions
      At line 60 in file ServoControl.s
   Uses
      At line 631 in file ServoControl.s



ARM Macro Assembler    Page 13 Alphabetic symbol ordering
Absolute symbols

Comment: ADC0_SWTRIG_VDDA used once
ADC0_Vector 0000001F

Symbol: ADC0_Vector
   Definitions
      At line 1068 in file MKL25Z128xxx4.s
   Uses
      None
Comment: ADC0_Vector unused
ADC_ACFE_MASK 00000020

Symbol: ADC_ACFE_MASK
   Definitions
      At line 367 in file MKL25Z128xxx4.s
   Uses
      None
Comment: ADC_ACFE_MASK unused
ADC_ACFGT_MASK 00000010

Symbol: ADC_ACFGT_MASK
   Definitions
      At line 368 in file MKL25Z128xxx4.s
   Uses
      None
Comment: ADC_ACFGT_MASK unused
ADC_ACREN_MASK 00000008

Symbol: ADC_ACREN_MASK
   Definitions
      At line 369 in file MKL25Z128xxx4.s
   Uses
      None
Comment: ADC_ACREN_MASK unused
ADC_ADACKEN_MASK 00000008

Symbol: ADC_ADACKEN_MASK
   Definitions
      At line 197 in file MKL25Z128xxx4.s
   Uses
      None
Comment: ADC_ADACKEN_MASK unused
ADC_ADACT_MASK 00000080

Symbol: ADC_ADACT_MASK
   Definitions
      At line 365 in file MKL25Z128xxx4.s
   Uses
      None
Comment: ADC_ADACT_MASK unused
ADC_ADCH_MASK 0000001F

Symbol: ADC_ADCH_MASK
   Definitions
      At line 343 in file MKL25Z128xxx4.s
   Uses
      None
Comment: ADC_ADCH_MASK unused
ADC_ADCO_MASK 00000008




ARM Macro Assembler    Page 14 Alphabetic symbol ordering
Absolute symbols

Symbol: ADC_ADCO_MASK
   Definitions
      At line 387 in file MKL25Z128xxx4.s
   Uses
      None
Comment: ADC_ADCO_MASK unused
ADC_ADHSC_MASK 00000004

Symbol: ADC_ADHSC_MASK
   Definitions
      At line 198 in file MKL25Z128xxx4.s
   Uses
      None
Comment: ADC_ADHSC_MASK unused
ADC_ADICLK_MASK 00000003

Symbol: ADC_ADICLK_MASK
   Definitions
      At line 176 in file MKL25Z128xxx4.s
   Uses
      None
Comment: ADC_ADICLK_MASK unused
ADC_ADIV_MASK 00000060

Symbol: ADC_ADIV_MASK
   Definitions
      At line 173 in file MKL25Z128xxx4.s
   Uses
      None
Comment: ADC_ADIV_MASK unused
ADC_ADLPC_MASK 00000080

Symbol: ADC_ADLPC_MASK
   Definitions
      At line 172 in file MKL25Z128xxx4.s
   Uses
      None
Comment: ADC_ADLPC_MASK unused
ADC_ADLSMP_MASK 00000010

Symbol: ADC_ADLSMP_MASK
   Definitions
      At line 174 in file MKL25Z128xxx4.s
   Uses
      None
Comment: ADC_ADLSMP_MASK unused
ADC_ADLSTS_MASK 00000003

Symbol: ADC_ADLSTS_MASK
   Definitions
      At line 199 in file MKL25Z128xxx4.s
   Uses
      None
Comment: ADC_ADLSTS_MASK unused
ADC_ADTRG_MASK 00000040

Symbol: ADC_ADTRG_MASK
   Definitions
      At line 366 in file MKL25Z128xxx4.s



ARM Macro Assembler    Page 15 Alphabetic symbol ordering
Absolute symbols

   Uses
      None
Comment: ADC_ADTRG_MASK unused
ADC_AIEN_MASK 00000040

Symbol: ADC_AIEN_MASK
   Definitions
      At line 341 in file MKL25Z128xxx4.s
   Uses
      None
Comment: ADC_AIEN_MASK unused
ADC_AVGE_MASK 00000004

Symbol: ADC_AVGE_MASK
   Definitions
      At line 388 in file MKL25Z128xxx4.s
   Uses
      None
Comment: ADC_AVGE_MASK unused
ADC_AVGS_MASK 00000003

Symbol: ADC_AVGS_MASK
   Definitions
      At line 389 in file MKL25Z128xxx4.s
   Uses
      None
Comment: ADC_AVGS_MASK unused
ADC_CALF_MASK 00000040

Symbol: ADC_CALF_MASK
   Definitions
      At line 386 in file MKL25Z128xxx4.s
   Uses
      At line 642 in file ServoControl.s
Comment: ADC_CALF_MASK used once
ADC_CAL_MASK 00000080

Symbol: ADC_CAL_MASK
   Definitions
      At line 385 in file MKL25Z128xxx4.s
   Uses
      At line 637 in file ServoControl.s
Comment: ADC_CAL_MASK used once
ADC_COCO_MASK 00000080

Symbol: ADC_COCO_MASK
   Definitions
      At line 340 in file MKL25Z128xxx4.s
   Uses
      At line 239 in file ServoControl.s
      At line 693 in file ServoControl.s

ADC_CV_MASK 0000FFFF

Symbol: ADC_CV_MASK
   Definitions
      At line 276 in file MKL25Z128xxx4.s
   Uses
      None



ARM Macro Assembler    Page 16 Alphabetic symbol ordering
Absolute symbols

Comment: ADC_CV_MASK unused
ADC_DIFF_MASK 00000020

Symbol: ADC_DIFF_MASK
   Definitions
      At line 342 in file MKL25Z128xxx4.s
   Uses
      None
Comment: ADC_DIFF_MASK unused
ADC_DMAEN_MASK 00000004

Symbol: ADC_DMAEN_MASK
   Definitions
      At line 370 in file MKL25Z128xxx4.s
   Uses
      None
Comment: ADC_DMAEN_MASK unused
ADC_D_MASK 0000FFFF

Symbol: ADC_D_MASK
   Definitions
      At line 296 in file MKL25Z128xxx4.s
   Uses
      None
Comment: ADC_D_MASK unused
ADC_MODE_MASK 0000000C

Symbol: ADC_MODE_MASK
   Definitions
      At line 175 in file MKL25Z128xxx4.s
   Uses
      None
Comment: ADC_MODE_MASK unused
ADC_MUXSEL_MASK 00000010

Symbol: ADC_MUXSEL_MASK
   Definitions
      At line 196 in file MKL25Z128xxx4.s
   Uses
      None
Comment: ADC_MUXSEL_MASK unused
ADC_REFSEL_MASK 00000003

Symbol: ADC_REFSEL_MASK
   Definitions
      At line 371 in file MKL25Z128xxx4.s
   Uses
      None
Comment: ADC_REFSEL_MASK unused
APSR_C_MASK 20000000

Symbol: APSR_C_MASK
   Definitions
      At line 59 in file MKL25Z128xxx4.s
   Uses
      At line 88 in file MKL25Z128xxx4.s
Comment: APSR_C_MASK used once
APSR_N_MASK 80000000




ARM Macro Assembler    Page 17 Alphabetic symbol ordering
Absolute symbols

Symbol: APSR_N_MASK
   Definitions
      At line 57 in file MKL25Z128xxx4.s
   Uses
      At line 86 in file MKL25Z128xxx4.s
Comment: APSR_N_MASK used once
APSR_V_MASK 10000000

Symbol: APSR_V_MASK
   Definitions
      At line 60 in file MKL25Z128xxx4.s
   Uses
      At line 89 in file MKL25Z128xxx4.s
Comment: APSR_V_MASK used once
APSR_Z_MASK 40000000

Symbol: APSR_Z_MASK
   Definitions
      At line 58 in file MKL25Z128xxx4.s
   Uses
      At line 87 in file MKL25Z128xxx4.s
Comment: APSR_Z_MASK used once
BUF_PAST 0000000C

Symbol: BUF_PAST
   Definitions
      At line 33 in file ServoControl.s
   Uses
      At line 470 in file ServoControl.s
      At line 520 in file ServoControl.s
      At line 565 in file ServoControl.s

BUF_SIZE 00000010

Symbol: BUF_SIZE
   Definitions
      At line 34 in file ServoControl.s
   Uses
      At line 512 in file ServoControl.s
      At line 567 in file ServoControl.s

BUF_STRT 00000008

Symbol: BUF_STRT
   Definitions
      At line 32 in file ServoControl.s
   Uses
      At line 473 in file ServoControl.s
      At line 523 in file ServoControl.s
      At line 563 in file ServoControl.s

CMP0_IPR E000E410

Symbol: CMP0_IPR
   Definitions
      At line 915 in file MKL25Z128xxx4.s
   Uses
      None
Comment: CMP0_IPR unused



ARM Macro Assembler    Page 18 Alphabetic symbol ordering
Absolute symbols

CMP0_IRQ 00000010

Symbol: CMP0_IRQ
   Definitions
      At line 985 in file MKL25Z128xxx4.s
   Uses
      At line 1019 in file MKL25Z128xxx4.s
Comment: CMP0_IRQ used once
CMP0_IRQ_MASK 00010000

Symbol: CMP0_IRQ_MASK
   Definitions
      At line 1019 in file MKL25Z128xxx4.s
   Uses
      None
Comment: CMP0_IRQ_MASK unused
CMP0_PRI_POS 00000006

Symbol: CMP0_PRI_POS
   Definitions
      At line 951 in file MKL25Z128xxx4.s
   Uses
      None
Comment: CMP0_PRI_POS unused
CMP0_Vector 00000020

Symbol: CMP0_Vector
   Definitions
      At line 1069 in file MKL25Z128xxx4.s
   Uses
      None
Comment: CMP0_Vector unused
COP_COPCLKS_MASK 00000002

Symbol: COP_COPCLKS_MASK
   Definitions
      At line 1651 in file MKL25Z128xxx4.s
   Uses
      None
Comment: COP_COPCLKS_MASK unused
COP_COPT_MASK 0000000C

Symbol: COP_COPT_MASK
   Definitions
      At line 1650 in file MKL25Z128xxx4.s
   Uses
      None
Comment: COP_COPT_MASK unused
COP_COPW_MASK 00000001

Symbol: COP_COPW_MASK
   Definitions
      At line 1652 in file MKL25Z128xxx4.s
   Uses
      None
Comment: COP_COPW_MASK unused
COP_DISABLE 00000000

Symbol: COP_DISABLE



ARM Macro Assembler    Page 19 Alphabetic symbol ordering
Absolute symbols

   Definitions
      At line 1653 in file MKL25Z128xxx4.s
   Uses
      At line 2115 in file MKL25Z128xxx4.s
Comment: COP_DISABLE used once
DAC0_0v 00000000

Symbol: DAC0_0v
   Definitions
      At line 55 in file ServoControl.s
   Uses
      At line 605 in file ServoControl.s
Comment: DAC0_0v used once
DAC0_BASE 4003F000

Symbol: DAC0_BASE
   Definitions
      At line 392 in file MKL25Z128xxx4.s
   Uses
      At line 401 in file MKL25Z128xxx4.s
      At line 402 in file MKL25Z128xxx4.s
      At line 403 in file MKL25Z128xxx4.s
      At line 404 in file MKL25Z128xxx4.s
      At line 405 in file MKL25Z128xxx4.s
      At line 406 in file MKL25Z128xxx4.s
      At line 407 in file MKL25Z128xxx4.s
      At line 408 in file MKL25Z128xxx4.s
      At line 231 in file ServoControl.s
      At line 595 in file ServoControl.s

DAC0_BUFFER_DISABLED 00000000

Symbol: DAC0_BUFFER_DISABLED
   Definitions
      At line 53 in file ServoControl.s
   Uses
      At line 597 in file ServoControl.s
Comment: DAC0_BUFFER_DISABLED used once
DAC0_C0 4003F021

Symbol: DAC0_C0
   Definitions
      At line 406 in file MKL25Z128xxx4.s
   Uses
      None
Comment: DAC0_C0 unused
DAC0_C0_OFFSET 00000021

Symbol: DAC0_C0_OFFSET
   Definitions
      At line 398 in file MKL25Z128xxx4.s
   Uses
      At line 406 in file MKL25Z128xxx4.s
      At line 602 in file ServoControl.s

DAC0_C1 4003F022

Symbol: DAC0_C1
   Definitions



ARM Macro Assembler    Page 20 Alphabetic symbol ordering
Absolute symbols

      At line 407 in file MKL25Z128xxx4.s
   Uses
      None
Comment: DAC0_C1 unused
DAC0_C1_OFFSET 00000022

Symbol: DAC0_C1_OFFSET
   Definitions
      At line 399 in file MKL25Z128xxx4.s
   Uses
      At line 407 in file MKL25Z128xxx4.s
      At line 598 in file ServoControl.s

DAC0_C2 4003F023

Symbol: DAC0_C2
   Definitions
      At line 408 in file MKL25Z128xxx4.s
   Uses
      None
Comment: DAC0_C2 unused
DAC0_C2_OFFSET 00000023

Symbol: DAC0_C2_OFFSET
   Definitions
      At line 400 in file MKL25Z128xxx4.s
   Uses
      At line 408 in file MKL25Z128xxx4.s
Comment: DAC0_C2_OFFSET used once
DAC0_DACBBIEN_MASK 00000001

Symbol: DAC0_DACBBIEN_MASK
   Definitions
      At line 451 in file MKL25Z128xxx4.s
   Uses
      None
Comment: DAC0_DACBBIEN_MASK unused
DAC0_DACBFEN_MASK 00000001

Symbol: DAC0_DACBFEN_MASK
   Definitions
      At line 465 in file MKL25Z128xxx4.s
   Uses
      None
Comment: DAC0_DACBFEN_MASK unused
DAC0_DACBFMD_MASK 00000004

Symbol: DAC0_DACBFMD_MASK
   Definitions
      At line 464 in file MKL25Z128xxx4.s
   Uses
      None
Comment: DAC0_DACBFMD_MASK unused
DAC0_DACBFRPBF_MASK 00000001

Symbol: DAC0_DACBFRPBF_MASK
   Definitions
      At line 483 in file MKL25Z128xxx4.s
   Uses



ARM Macro Assembler    Page 21 Alphabetic symbol ordering
Absolute symbols

      None
Comment: DAC0_DACBFRPBF_MASK unused
DAC0_DACBFRPTF_MASK 00000002

Symbol: DAC0_DACBFRPTF_MASK
   Definitions
      At line 482 in file MKL25Z128xxx4.s
   Uses
      None
Comment: DAC0_DACBFRPTF_MASK unused
DAC0_DACBFRP_MASK 00000010

Symbol: DAC0_DACBFRP_MASK
   Definitions
      At line 472 in file MKL25Z128xxx4.s
   Uses
      None
Comment: DAC0_DACBFRP_MASK unused
DAC0_DACBFUP_MASK 00000001

Symbol: DAC0_DACBFUP_MASK
   Definitions
      At line 473 in file MKL25Z128xxx4.s
   Uses
      None
Comment: DAC0_DACBFUP_MASK unused
DAC0_DACBTIEN_MASK 00000002

Symbol: DAC0_DACBTIEN_MASK
   Definitions
      At line 450 in file MKL25Z128xxx4.s
   Uses
      None
Comment: DAC0_DACBTIEN_MASK unused
DAC0_DACEN_MASK 00000080

Symbol: DAC0_DACEN_MASK
   Definitions
      At line 445 in file MKL25Z128xxx4.s
   Uses
      None
Comment: DAC0_DACEN_MASK unused
DAC0_DACRFS_MASK 00000040

Symbol: DAC0_DACRFS_MASK
   Definitions
      At line 446 in file MKL25Z128xxx4.s
   Uses
      None
Comment: DAC0_DACRFS_MASK unused
DAC0_DACSWTRG_MASK 00000010

Symbol: DAC0_DACSWTRG_MASK
   Definitions
      At line 448 in file MKL25Z128xxx4.s
   Uses
      None
Comment: DAC0_DACSWTRG_MASK unused
DAC0_DACTRGSEL_MASK 00000020



ARM Macro Assembler    Page 22 Alphabetic symbol ordering
Absolute symbols


Symbol: DAC0_DACTRGSEL_MASK
   Definitions
      At line 447 in file MKL25Z128xxx4.s
   Uses
      None
Comment: DAC0_DACTRGSEL_MASK unused
DAC0_DAT0H 4003F001

Symbol: DAC0_DAT0H
   Definitions
      At line 402 in file MKL25Z128xxx4.s
   Uses
      None
Comment: DAC0_DAT0H unused
DAC0_DAT0H_OFFSET 00000001

Symbol: DAC0_DAT0H_OFFSET
   Definitions
      At line 394 in file MKL25Z128xxx4.s
   Uses
      At line 402 in file MKL25Z128xxx4.s
      At line 234 in file ServoControl.s
      At line 607 in file ServoControl.s

DAC0_DAT0L 4003F000

Symbol: DAC0_DAT0L
   Definitions
      At line 401 in file MKL25Z128xxx4.s
   Uses
      None
Comment: DAC0_DAT0L unused
DAC0_DAT0L_OFFSET 00000000

Symbol: DAC0_DAT0L_OFFSET
   Definitions
      At line 393 in file MKL25Z128xxx4.s
   Uses
      At line 401 in file MKL25Z128xxx4.s
      At line 232 in file ServoControl.s
      At line 606 in file ServoControl.s

DAC0_DAT1H 4003F003

Symbol: DAC0_DAT1H
   Definitions
      At line 404 in file MKL25Z128xxx4.s
   Uses
      None
Comment: DAC0_DAT1H unused
DAC0_DAT1H_OFFSET 00000003

Symbol: DAC0_DAT1H_OFFSET
   Definitions
      At line 396 in file MKL25Z128xxx4.s
   Uses
      At line 404 in file MKL25Z128xxx4.s
Comment: DAC0_DAT1H_OFFSET used once



ARM Macro Assembler    Page 23 Alphabetic symbol ordering
Absolute symbols

DAC0_DAT1L 4003F002

Symbol: DAC0_DAT1L
   Definitions
      At line 403 in file MKL25Z128xxx4.s
   Uses
      None
Comment: DAC0_DAT1L unused
DAC0_DAT1L_OFFSET 00000002

Symbol: DAC0_DAT1L_OFFSET
   Definitions
      At line 395 in file MKL25Z128xxx4.s
   Uses
      At line 403 in file MKL25Z128xxx4.s
Comment: DAC0_DAT1L_OFFSET used once
DAC0_DMAEN_MASK 00000080

Symbol: DAC0_DMAEN_MASK
   Definitions
      At line 463 in file MKL25Z128xxx4.s
   Uses
      None
Comment: DAC0_DMAEN_MASK unused
DAC0_ENABLE 000000C0

Symbol: DAC0_ENABLE
   Definitions
      At line 54 in file ServoControl.s
   Uses
      At line 601 in file ServoControl.s
Comment: DAC0_ENABLE used once
DAC0_IPR E000E418

Symbol: DAC0_IPR
   Definitions
      At line 924 in file MKL25Z128xxx4.s
   Uses
      None
Comment: DAC0_IPR unused
DAC0_IRQ 00000019

Symbol: DAC0_IRQ
   Definitions
      At line 994 in file MKL25Z128xxx4.s
   Uses
      At line 1028 in file MKL25Z128xxx4.s
Comment: DAC0_IRQ used once
DAC0_IRQ_MASK 02000000

Symbol: DAC0_IRQ_MASK
   Definitions
      At line 1028 in file MKL25Z128xxx4.s
   Uses
      None
Comment: DAC0_IRQ_MASK unused
DAC0_LPEN_MASK 00000008

Symbol: DAC0_LPEN_MASK



ARM Macro Assembler    Page 24 Alphabetic symbol ordering
Absolute symbols

   Definitions
      At line 449 in file MKL25Z128xxx4.s
   Uses
      None
Comment: DAC0_LPEN_MASK unused
DAC0_PRI_POS 0000000E

Symbol: DAC0_PRI_POS
   Definitions
      At line 960 in file MKL25Z128xxx4.s
   Uses
      None
Comment: DAC0_PRI_POS unused
DAC0_SR 4003F020

Symbol: DAC0_SR
   Definitions
      At line 405 in file MKL25Z128xxx4.s
   Uses
      None
Comment: DAC0_SR unused
DAC0_SR_OFFSET 00000020

Symbol: DAC0_SR_OFFSET
   Definitions
      At line 397 in file MKL25Z128xxx4.s
   Uses
      At line 405 in file MKL25Z128xxx4.s
Comment: DAC0_SR_OFFSET used once
DAC0_STEPS 00001000

Symbol: DAC0_STEPS
   Definitions
      At line 42 in file ServoControl.s
   Uses
      At line 909 in file ServoControl.s
      At line 910 in file ServoControl.s
      At line 911 in file ServoControl.s
      At line 912 in file ServoControl.s
      At line 913 in file ServoControl.s

DAC0_Vector 00000029

Symbol: DAC0_Vector
   Definitions
      At line 1078 in file MKL25Z128xxx4.s
   Uses
      None
Comment: DAC0_Vector unused
DMA0_IPR E000E400

Symbol: DMA0_IPR
   Definitions
      At line 899 in file MKL25Z128xxx4.s
   Uses
      None
Comment: DMA0_IPR unused
DMA0_IRQ 00000000




ARM Macro Assembler    Page 25 Alphabetic symbol ordering
Absolute symbols

Symbol: DMA0_IRQ
   Definitions
      At line 969 in file MKL25Z128xxx4.s
   Uses
      At line 1003 in file MKL25Z128xxx4.s
Comment: DMA0_IRQ used once
DMA0_IRQ_MASK 00000001

Symbol: DMA0_IRQ_MASK
   Definitions
      At line 1003 in file MKL25Z128xxx4.s
   Uses
      None
Comment: DMA0_IRQ_MASK unused
DMA0_PRI_POS 00000006

Symbol: DMA0_PRI_POS
   Definitions
      At line 935 in file MKL25Z128xxx4.s
   Uses
      None
Comment: DMA0_PRI_POS unused
DMA0_Vector 00000010

Symbol: DMA0_Vector
   Definitions
      At line 1053 in file MKL25Z128xxx4.s
   Uses
      None
Comment: DMA0_Vector unused
DMA1_IPR E000E400

Symbol: DMA1_IPR
   Definitions
      At line 900 in file MKL25Z128xxx4.s
   Uses
      None
Comment: DMA1_IPR unused
DMA1_IRQ 00000001

Symbol: DMA1_IRQ
   Definitions
      At line 970 in file MKL25Z128xxx4.s
   Uses
      At line 1004 in file MKL25Z128xxx4.s
Comment: DMA1_IRQ used once
DMA1_IRQ_MASK 00000002

Symbol: DMA1_IRQ_MASK
   Definitions
      At line 1004 in file MKL25Z128xxx4.s
   Uses
      None
Comment: DMA1_IRQ_MASK unused
DMA1_PRI_POS 0000000E

Symbol: DMA1_PRI_POS
   Definitions
      At line 936 in file MKL25Z128xxx4.s



ARM Macro Assembler    Page 26 Alphabetic symbol ordering
Absolute symbols

   Uses
      None
Comment: DMA1_PRI_POS unused
DMA1_Vector 00000011

Symbol: DMA1_Vector
   Definitions
      At line 1054 in file MKL25Z128xxx4.s
   Uses
      None
Comment: DMA1_Vector unused
DMA2_IPR E000E400

Symbol: DMA2_IPR
   Definitions
      At line 901 in file MKL25Z128xxx4.s
   Uses
      None
Comment: DMA2_IPR unused
DMA2_IRQ 00000002

Symbol: DMA2_IRQ
   Definitions
      At line 971 in file MKL25Z128xxx4.s
   Uses
      At line 1005 in file MKL25Z128xxx4.s
Comment: DMA2_IRQ used once
DMA2_IRQ_MASK 00000004

Symbol: DMA2_IRQ_MASK
   Definitions
      At line 1005 in file MKL25Z128xxx4.s
   Uses
      None
Comment: DMA2_IRQ_MASK unused
DMA2_PRI_POS 00000016

Symbol: DMA2_PRI_POS
   Definitions
      At line 937 in file MKL25Z128xxx4.s
   Uses
      None
Comment: DMA2_PRI_POS unused
DMA2_Vector 00000012

Symbol: DMA2_Vector
   Definitions
      At line 1055 in file MKL25Z128xxx4.s
   Uses
      None
Comment: DMA2_Vector unused
DMA3_IPR E000E400

Symbol: DMA3_IPR
   Definitions
      At line 902 in file MKL25Z128xxx4.s
   Uses
      None
Comment: DMA3_IPR unused



ARM Macro Assembler    Page 27 Alphabetic symbol ordering
Absolute symbols

DMA3_IRQ 00000003

Symbol: DMA3_IRQ
   Definitions
      At line 972 in file MKL25Z128xxx4.s
   Uses
      At line 1006 in file MKL25Z128xxx4.s
Comment: DMA3_IRQ used once
DMA3_IRQ_MASK 00000008

Symbol: DMA3_IRQ_MASK
   Definitions
      At line 1006 in file MKL25Z128xxx4.s
   Uses
      None
Comment: DMA3_IRQ_MASK unused
DMA3_PRI_POS 0000001E

Symbol: DMA3_PRI_POS
   Definitions
      At line 938 in file MKL25Z128xxx4.s
   Uses
      None
Comment: DMA3_PRI_POS unused
DMA3_Vector 00000013

Symbol: DMA3_Vector
   Definitions
      At line 1056 in file MKL25Z128xxx4.s
   Uses
      None
Comment: DMA3_Vector unused
EPSR_T_MASK 01000000

Symbol: EPSR_T_MASK
   Definitions
      At line 66 in file MKL25Z128xxx4.s
   Uses
      At line 90 in file MKL25Z128xxx4.s
Comment: EPSR_T_MASK used once
FCF_BACKDOOR_KEY0 000000FF

Symbol: FCF_BACKDOOR_KEY0
   Definitions
      At line 546 in file MKL25Z128xxx4.s
   Uses
      At line 666 in file MKL25Z128xxx4.s
Comment: FCF_BACKDOOR_KEY0 used once
FCF_BACKDOOR_KEY1 000000FF

Symbol: FCF_BACKDOOR_KEY1
   Definitions
      At line 550 in file MKL25Z128xxx4.s
   Uses
      At line 666 in file MKL25Z128xxx4.s
Comment: FCF_BACKDOOR_KEY1 used once
FCF_BACKDOOR_KEY2 000000FF

Symbol: FCF_BACKDOOR_KEY2



ARM Macro Assembler    Page 28 Alphabetic symbol ordering
Absolute symbols

   Definitions
      At line 554 in file MKL25Z128xxx4.s
   Uses
      At line 667 in file MKL25Z128xxx4.s
Comment: FCF_BACKDOOR_KEY2 used once
FCF_BACKDOOR_KEY3 000000FF

Symbol: FCF_BACKDOOR_KEY3
   Definitions
      At line 558 in file MKL25Z128xxx4.s
   Uses
      At line 667 in file MKL25Z128xxx4.s
Comment: FCF_BACKDOOR_KEY3 used once
FCF_BACKDOOR_KEY4 000000FF

Symbol: FCF_BACKDOOR_KEY4
   Definitions
      At line 562 in file MKL25Z128xxx4.s
   Uses
      At line 668 in file MKL25Z128xxx4.s
Comment: FCF_BACKDOOR_KEY4 used once
FCF_BACKDOOR_KEY5 000000FF

Symbol: FCF_BACKDOOR_KEY5
   Definitions
      At line 566 in file MKL25Z128xxx4.s
   Uses
      At line 668 in file MKL25Z128xxx4.s
Comment: FCF_BACKDOOR_KEY5 used once
FCF_BACKDOOR_KEY6 000000FF

Symbol: FCF_BACKDOOR_KEY6
   Definitions
      At line 570 in file MKL25Z128xxx4.s
   Uses
      At line 669 in file MKL25Z128xxx4.s
Comment: FCF_BACKDOOR_KEY6 used once
FCF_BACKDOOR_KEY7 000000FF

Symbol: FCF_BACKDOOR_KEY7
   Definitions
      At line 574 in file MKL25Z128xxx4.s
   Uses
      At line 669 in file MKL25Z128xxx4.s
Comment: FCF_BACKDOOR_KEY7 used once
FCF_FOPT 000000FF

Symbol: FCF_FOPT
   Definitions
      At line 585 in file MKL25Z128xxx4.s
   Uses
      At line 671 in file MKL25Z128xxx4.s
Comment: FCF_FOPT used once
FCF_FPROT0 000000FF

Symbol: FCF_FPROT0
   Definitions
      At line 600 in file MKL25Z128xxx4.s
   Uses



ARM Macro Assembler    Page 29 Alphabetic symbol ordering
Absolute symbols

      At line 670 in file MKL25Z128xxx4.s
Comment: FCF_FPROT0 used once
FCF_FPROT1 000000FF

Symbol: FCF_FPROT1
   Definitions
      At line 611 in file MKL25Z128xxx4.s
   Uses
      At line 670 in file MKL25Z128xxx4.s
Comment: FCF_FPROT1 used once
FCF_FPROT2 000000FF

Symbol: FCF_FPROT2
   Definitions
      At line 622 in file MKL25Z128xxx4.s
   Uses
      At line 670 in file MKL25Z128xxx4.s
Comment: FCF_FPROT2 used once
FCF_FPROT3 000000FF

Symbol: FCF_FPROT3
   Definitions
      At line 633 in file MKL25Z128xxx4.s
   Uses
      At line 670 in file MKL25Z128xxx4.s
Comment: FCF_FPROT3 used once
FCF_FSEC 0000007E

Symbol: FCF_FSEC
   Definitions
      At line 662 in file MKL25Z128xxx4.s
   Uses
      At line 671 in file MKL25Z128xxx4.s
Comment: FCF_FSEC used once
FGPIOA_BASE F80FF000

Symbol: FGPIOA_BASE
   Definitions
      At line 494 in file MKL25Z128xxx4.s
   Uses
      At line 495 in file MKL25Z128xxx4.s
      At line 496 in file MKL25Z128xxx4.s
      At line 497 in file MKL25Z128xxx4.s
      At line 498 in file MKL25Z128xxx4.s
      At line 499 in file MKL25Z128xxx4.s
      At line 500 in file MKL25Z128xxx4.s

FGPIOA_PCOR F80FF008

Symbol: FGPIOA_PCOR
   Definitions
      At line 497 in file MKL25Z128xxx4.s
   Uses
      None
Comment: FGPIOA_PCOR unused
FGPIOA_PDDR F80FF014

Symbol: FGPIOA_PDDR
   Definitions



ARM Macro Assembler    Page 30 Alphabetic symbol ordering
Absolute symbols

      At line 500 in file MKL25Z128xxx4.s
   Uses
      None
Comment: FGPIOA_PDDR unused
FGPIOA_PDIR F80FF010

Symbol: FGPIOA_PDIR
   Definitions
      At line 499 in file MKL25Z128xxx4.s
   Uses
      None
Comment: FGPIOA_PDIR unused
FGPIOA_PDOR F80FF000

Symbol: FGPIOA_PDOR
   Definitions
      At line 495 in file MKL25Z128xxx4.s
   Uses
      None
Comment: FGPIOA_PDOR unused
FGPIOA_PSOR F80FF004

Symbol: FGPIOA_PSOR
   Definitions
      At line 496 in file MKL25Z128xxx4.s
   Uses
      None
Comment: FGPIOA_PSOR unused
FGPIOA_PTOR F80FF00C

Symbol: FGPIOA_PTOR
   Definitions
      At line 498 in file MKL25Z128xxx4.s
   Uses
      None
Comment: FGPIOA_PTOR unused
FGPIOB_BASE F80FF040

Symbol: FGPIOB_BASE
   Definitions
      At line 502 in file MKL25Z128xxx4.s
   Uses
      At line 503 in file MKL25Z128xxx4.s
      At line 504 in file MKL25Z128xxx4.s
      At line 505 in file MKL25Z128xxx4.s
      At line 506 in file MKL25Z128xxx4.s
      At line 507 in file MKL25Z128xxx4.s
      At line 508 in file MKL25Z128xxx4.s

FGPIOB_PCOR F80FF048

Symbol: FGPIOB_PCOR
   Definitions
      At line 505 in file MKL25Z128xxx4.s
   Uses
      None
Comment: FGPIOB_PCOR unused
FGPIOB_PDDR F80FF054




ARM Macro Assembler    Page 31 Alphabetic symbol ordering
Absolute symbols

Symbol: FGPIOB_PDDR
   Definitions
      At line 508 in file MKL25Z128xxx4.s
   Uses
      None
Comment: FGPIOB_PDDR unused
FGPIOB_PDIR F80FF050

Symbol: FGPIOB_PDIR
   Definitions
      At line 507 in file MKL25Z128xxx4.s
   Uses
      None
Comment: FGPIOB_PDIR unused
FGPIOB_PDOR F80FF040

Symbol: FGPIOB_PDOR
   Definitions
      At line 503 in file MKL25Z128xxx4.s
   Uses
      None
Comment: FGPIOB_PDOR unused
FGPIOB_PSOR F80FF044

Symbol: FGPIOB_PSOR
   Definitions
      At line 504 in file MKL25Z128xxx4.s
   Uses
      None
Comment: FGPIOB_PSOR unused
FGPIOB_PTOR F80FF04C

Symbol: FGPIOB_PTOR
   Definitions
      At line 506 in file MKL25Z128xxx4.s
   Uses
      None
Comment: FGPIOB_PTOR unused
FGPIOC_BASE F80FF080

Symbol: FGPIOC_BASE
   Definitions
      At line 510 in file MKL25Z128xxx4.s
   Uses
      At line 511 in file MKL25Z128xxx4.s
      At line 512 in file MKL25Z128xxx4.s
      At line 513 in file MKL25Z128xxx4.s
      At line 514 in file MKL25Z128xxx4.s
      At line 515 in file MKL25Z128xxx4.s
      At line 516 in file MKL25Z128xxx4.s

FGPIOC_PCOR F80FF088

Symbol: FGPIOC_PCOR
   Definitions
      At line 513 in file MKL25Z128xxx4.s
   Uses
      None
Comment: FGPIOC_PCOR unused



ARM Macro Assembler    Page 32 Alphabetic symbol ordering
Absolute symbols

FGPIOC_PDDR F80FF094

Symbol: FGPIOC_PDDR
   Definitions
      At line 516 in file MKL25Z128xxx4.s
   Uses
      None
Comment: FGPIOC_PDDR unused
FGPIOC_PDIR F80FF090

Symbol: FGPIOC_PDIR
   Definitions
      At line 515 in file MKL25Z128xxx4.s
   Uses
      None
Comment: FGPIOC_PDIR unused
FGPIOC_PDOR F80FF080

Symbol: FGPIOC_PDOR
   Definitions
      At line 511 in file MKL25Z128xxx4.s
   Uses
      None
Comment: FGPIOC_PDOR unused
FGPIOC_PSOR F80FF084

Symbol: FGPIOC_PSOR
   Definitions
      At line 512 in file MKL25Z128xxx4.s
   Uses
      None
Comment: FGPIOC_PSOR unused
FGPIOC_PTOR F80FF08C

Symbol: FGPIOC_PTOR
   Definitions
      At line 514 in file MKL25Z128xxx4.s
   Uses
      None
Comment: FGPIOC_PTOR unused
FGPIOD_BASE F80FF0C0

Symbol: FGPIOD_BASE
   Definitions
      At line 518 in file MKL25Z128xxx4.s
   Uses
      At line 519 in file MKL25Z128xxx4.s
      At line 520 in file MKL25Z128xxx4.s
      At line 521 in file MKL25Z128xxx4.s
      At line 522 in file MKL25Z128xxx4.s
      At line 523 in file MKL25Z128xxx4.s
      At line 524 in file MKL25Z128xxx4.s

FGPIOD_PCOR F80FF0C8

Symbol: FGPIOD_PCOR
   Definitions
      At line 521 in file MKL25Z128xxx4.s
   Uses



ARM Macro Assembler    Page 33 Alphabetic symbol ordering
Absolute symbols

      None
Comment: FGPIOD_PCOR unused
FGPIOD_PDDR F80FF0D4

Symbol: FGPIOD_PDDR
   Definitions
      At line 524 in file MKL25Z128xxx4.s
   Uses
      None
Comment: FGPIOD_PDDR unused
FGPIOD_PDIR F80FF0D0

Symbol: FGPIOD_PDIR
   Definitions
      At line 523 in file MKL25Z128xxx4.s
   Uses
      None
Comment: FGPIOD_PDIR unused
FGPIOD_PDOR F80FF0C0

Symbol: FGPIOD_PDOR
   Definitions
      At line 519 in file MKL25Z128xxx4.s
   Uses
      None
Comment: FGPIOD_PDOR unused
FGPIOD_PSOR F80FF0C4

Symbol: FGPIOD_PSOR
   Definitions
      At line 520 in file MKL25Z128xxx4.s
   Uses
      None
Comment: FGPIOD_PSOR unused
FGPIOD_PTOR F80FF0CC

Symbol: FGPIOD_PTOR
   Definitions
      At line 522 in file MKL25Z128xxx4.s
   Uses
      None
Comment: FGPIOD_PTOR unused
FGPIOE_BASE F80FF100

Symbol: FGPIOE_BASE
   Definitions
      At line 526 in file MKL25Z128xxx4.s
   Uses
      At line 527 in file MKL25Z128xxx4.s
      At line 528 in file MKL25Z128xxx4.s
      At line 529 in file MKL25Z128xxx4.s
      At line 530 in file MKL25Z128xxx4.s
      At line 531 in file MKL25Z128xxx4.s
      At line 532 in file MKL25Z128xxx4.s

FGPIOE_PCOR F80FF108

Symbol: FGPIOE_PCOR
   Definitions



ARM Macro Assembler    Page 34 Alphabetic symbol ordering
Absolute symbols

      At line 529 in file MKL25Z128xxx4.s
   Uses
      None
Comment: FGPIOE_PCOR unused
FGPIOE_PDDR F80FF114

Symbol: FGPIOE_PDDR
   Definitions
      At line 532 in file MKL25Z128xxx4.s
   Uses
      None
Comment: FGPIOE_PDDR unused
FGPIOE_PDIR F80FF110

Symbol: FGPIOE_PDIR
   Definitions
      At line 531 in file MKL25Z128xxx4.s
   Uses
      None
Comment: FGPIOE_PDIR unused
FGPIOE_PDOR F80FF100

Symbol: FGPIOE_PDOR
   Definitions
      At line 527 in file MKL25Z128xxx4.s
   Uses
      None
Comment: FGPIOE_PDOR unused
FGPIOE_PSOR F80FF104

Symbol: FGPIOE_PSOR
   Definitions
      At line 528 in file MKL25Z128xxx4.s
   Uses
      None
Comment: FGPIOE_PSOR unused
FGPIOE_PTOR F80FF10C

Symbol: FGPIOE_PTOR
   Definitions
      At line 530 in file MKL25Z128xxx4.s
   Uses
      None
Comment: FGPIOE_PTOR unused
FGPIO_BASE F80FF000

Symbol: FGPIO_BASE
   Definitions
      At line 489 in file MKL25Z128xxx4.s
   Uses
      None
Comment: FGPIO_BASE unused
FTFA_IPR E000E404

Symbol: FTFA_IPR
   Definitions
      At line 904 in file MKL25Z128xxx4.s
   Uses
      None



ARM Macro Assembler    Page 35 Alphabetic symbol ordering
Absolute symbols

Comment: FTFA_IPR unused
FTFA_IRQ 00000005

Symbol: FTFA_IRQ
   Definitions
      At line 974 in file MKL25Z128xxx4.s
   Uses
      At line 1008 in file MKL25Z128xxx4.s
Comment: FTFA_IRQ used once
FTFA_IRQ_MASK 00000020

Symbol: FTFA_IRQ_MASK
   Definitions
      At line 1008 in file MKL25Z128xxx4.s
   Uses
      None
Comment: FTFA_IRQ_MASK unused
FTFA_PRI_POS 0000000E

Symbol: FTFA_PRI_POS
   Definitions
      At line 940 in file MKL25Z128xxx4.s
   Uses
      None
Comment: FTFA_PRI_POS unused
FTFA_Vector 00000015

Symbol: FTFA_Vector
   Definitions
      At line 1058 in file MKL25Z128xxx4.s
   Uses
      None
Comment: FTFA_Vector unused
GPIOA_BASE 400FF000

Symbol: GPIOA_BASE
   Definitions
      At line 691 in file MKL25Z128xxx4.s
   Uses
      At line 692 in file MKL25Z128xxx4.s
      At line 693 in file MKL25Z128xxx4.s
      At line 694 in file MKL25Z128xxx4.s
      At line 695 in file MKL25Z128xxx4.s
      At line 696 in file MKL25Z128xxx4.s
      At line 697 in file MKL25Z128xxx4.s

GPIOA_OFFSET 00000000

Symbol: GPIOA_OFFSET
   Definitions
      At line 685 in file MKL25Z128xxx4.s
   Uses
      None
Comment: GPIOA_OFFSET unused
GPIOA_PCOR 400FF008

Symbol: GPIOA_PCOR
   Definitions
      At line 694 in file MKL25Z128xxx4.s



ARM Macro Assembler    Page 36 Alphabetic symbol ordering
Absolute symbols

   Uses
      None
Comment: GPIOA_PCOR unused
GPIOA_PDDR 400FF014

Symbol: GPIOA_PDDR
   Definitions
      At line 697 in file MKL25Z128xxx4.s
   Uses
      None
Comment: GPIOA_PDDR unused
GPIOA_PDIR 400FF010

Symbol: GPIOA_PDIR
   Definitions
      At line 696 in file MKL25Z128xxx4.s
   Uses
      None
Comment: GPIOA_PDIR unused
GPIOA_PDOR 400FF000

Symbol: GPIOA_PDOR
   Definitions
      At line 692 in file MKL25Z128xxx4.s
   Uses
      None
Comment: GPIOA_PDOR unused
GPIOA_PSOR 400FF004

Symbol: GPIOA_PSOR
   Definitions
      At line 693 in file MKL25Z128xxx4.s
   Uses
      None
Comment: GPIOA_PSOR unused
GPIOA_PTOR 400FF00C

Symbol: GPIOA_PTOR
   Definitions
      At line 695 in file MKL25Z128xxx4.s
   Uses
      None
Comment: GPIOA_PTOR unused
GPIOB_BASE 400FF040

Symbol: GPIOB_BASE
   Definitions
      At line 699 in file MKL25Z128xxx4.s
   Uses
      At line 700 in file MKL25Z128xxx4.s
      At line 701 in file MKL25Z128xxx4.s
      At line 702 in file MKL25Z128xxx4.s
      At line 703 in file MKL25Z128xxx4.s
      At line 704 in file MKL25Z128xxx4.s
      At line 705 in file MKL25Z128xxx4.s

GPIOB_OFFSET 00000040

Symbol: GPIOB_OFFSET



ARM Macro Assembler    Page 37 Alphabetic symbol ordering
Absolute symbols

   Definitions
      At line 686 in file MKL25Z128xxx4.s
   Uses
      None
Comment: GPIOB_OFFSET unused
GPIOB_PCOR 400FF048

Symbol: GPIOB_PCOR
   Definitions
      At line 702 in file MKL25Z128xxx4.s
   Uses
      None
Comment: GPIOB_PCOR unused
GPIOB_PDDR 400FF054

Symbol: GPIOB_PDDR
   Definitions
      At line 705 in file MKL25Z128xxx4.s
   Uses
      None
Comment: GPIOB_PDDR unused
GPIOB_PDIR 400FF050

Symbol: GPIOB_PDIR
   Definitions
      At line 704 in file MKL25Z128xxx4.s
   Uses
      None
Comment: GPIOB_PDIR unused
GPIOB_PDOR 400FF040

Symbol: GPIOB_PDOR
   Definitions
      At line 700 in file MKL25Z128xxx4.s
   Uses
      None
Comment: GPIOB_PDOR unused
GPIOB_PSOR 400FF044

Symbol: GPIOB_PSOR
   Definitions
      At line 701 in file MKL25Z128xxx4.s
   Uses
      None
Comment: GPIOB_PSOR unused
GPIOB_PTOR 400FF04C

Symbol: GPIOB_PTOR
   Definitions
      At line 703 in file MKL25Z128xxx4.s
   Uses
      None
Comment: GPIOB_PTOR unused
GPIOC_BASE 400FF080

Symbol: GPIOC_BASE
   Definitions
      At line 707 in file MKL25Z128xxx4.s
   Uses



ARM Macro Assembler    Page 38 Alphabetic symbol ordering
Absolute symbols

      At line 708 in file MKL25Z128xxx4.s
      At line 709 in file MKL25Z128xxx4.s
      At line 710 in file MKL25Z128xxx4.s
      At line 711 in file MKL25Z128xxx4.s
      At line 712 in file MKL25Z128xxx4.s
      At line 713 in file MKL25Z128xxx4.s

GPIOC_OFFSET 00000080

Symbol: GPIOC_OFFSET
   Definitions
      At line 687 in file MKL25Z128xxx4.s
   Uses
      None
Comment: GPIOC_OFFSET unused
GPIOC_PCOR 400FF088

Symbol: GPIOC_PCOR
   Definitions
      At line 710 in file MKL25Z128xxx4.s
   Uses
      None
Comment: GPIOC_PCOR unused
GPIOC_PDDR 400FF094

Symbol: GPIOC_PDDR
   Definitions
      At line 713 in file MKL25Z128xxx4.s
   Uses
      None
Comment: GPIOC_PDDR unused
GPIOC_PDIR 400FF090

Symbol: GPIOC_PDIR
   Definitions
      At line 712 in file MKL25Z128xxx4.s
   Uses
      None
Comment: GPIOC_PDIR unused
GPIOC_PDOR 400FF080

Symbol: GPIOC_PDOR
   Definitions
      At line 708 in file MKL25Z128xxx4.s
   Uses
      None
Comment: GPIOC_PDOR unused
GPIOC_PSOR 400FF084

Symbol: GPIOC_PSOR
   Definitions
      At line 709 in file MKL25Z128xxx4.s
   Uses
      None
Comment: GPIOC_PSOR unused
GPIOC_PTOR 400FF08C

Symbol: GPIOC_PTOR
   Definitions



ARM Macro Assembler    Page 39 Alphabetic symbol ordering
Absolute symbols

      At line 711 in file MKL25Z128xxx4.s
   Uses
      None
Comment: GPIOC_PTOR unused
GPIOD_BASE 400FF0C0

Symbol: GPIOD_BASE
   Definitions
      At line 715 in file MKL25Z128xxx4.s
   Uses
      At line 716 in file MKL25Z128xxx4.s
      At line 717 in file MKL25Z128xxx4.s
      At line 718 in file MKL25Z128xxx4.s
      At line 719 in file MKL25Z128xxx4.s
      At line 720 in file MKL25Z128xxx4.s
      At line 721 in file MKL25Z128xxx4.s

GPIOD_OFFSET 000000C0

Symbol: GPIOD_OFFSET
   Definitions
      At line 688 in file MKL25Z128xxx4.s
   Uses
      None
Comment: GPIOD_OFFSET unused
GPIOD_PCOR 400FF0C8

Symbol: GPIOD_PCOR
   Definitions
      At line 718 in file MKL25Z128xxx4.s
   Uses
      None
Comment: GPIOD_PCOR unused
GPIOD_PDDR 400FF0D4

Symbol: GPIOD_PDDR
   Definitions
      At line 721 in file MKL25Z128xxx4.s
   Uses
      None
Comment: GPIOD_PDDR unused
GPIOD_PDIR 400FF0D0

Symbol: GPIOD_PDIR
   Definitions
      At line 720 in file MKL25Z128xxx4.s
   Uses
      None
Comment: GPIOD_PDIR unused
GPIOD_PDOR 400FF0C0

Symbol: GPIOD_PDOR
   Definitions
      At line 716 in file MKL25Z128xxx4.s
   Uses
      None
Comment: GPIOD_PDOR unused
GPIOD_PSOR 400FF0C4




ARM Macro Assembler    Page 40 Alphabetic symbol ordering
Absolute symbols

Symbol: GPIOD_PSOR
   Definitions
      At line 717 in file MKL25Z128xxx4.s
   Uses
      None
Comment: GPIOD_PSOR unused
GPIOD_PTOR 400FF0CC

Symbol: GPIOD_PTOR
   Definitions
      At line 719 in file MKL25Z128xxx4.s
   Uses
      None
Comment: GPIOD_PTOR unused
GPIOE_BASE 400FF100

Symbol: GPIOE_BASE
   Definitions
      At line 723 in file MKL25Z128xxx4.s
   Uses
      At line 724 in file MKL25Z128xxx4.s
      At line 725 in file MKL25Z128xxx4.s
      At line 726 in file MKL25Z128xxx4.s
      At line 727 in file MKL25Z128xxx4.s
      At line 728 in file MKL25Z128xxx4.s
      At line 729 in file MKL25Z128xxx4.s

GPIOE_OFFSET 00000100

Symbol: GPIOE_OFFSET
   Definitions
      At line 689 in file MKL25Z128xxx4.s
   Uses
      None
Comment: GPIOE_OFFSET unused
GPIOE_PCOR 400FF108

Symbol: GPIOE_PCOR
   Definitions
      At line 726 in file MKL25Z128xxx4.s
   Uses
      None
Comment: GPIOE_PCOR unused
GPIOE_PDDR 400FF114

Symbol: GPIOE_PDDR
   Definitions
      At line 729 in file MKL25Z128xxx4.s
   Uses
      None
Comment: GPIOE_PDDR unused
GPIOE_PDIR 400FF110

Symbol: GPIOE_PDIR
   Definitions
      At line 728 in file MKL25Z128xxx4.s
   Uses
      None
Comment: GPIOE_PDIR unused



ARM Macro Assembler    Page 41 Alphabetic symbol ordering
Absolute symbols

GPIOE_PDOR 400FF100

Symbol: GPIOE_PDOR
   Definitions
      At line 724 in file MKL25Z128xxx4.s
   Uses
      None
Comment: GPIOE_PDOR unused
GPIOE_PSOR 400FF104

Symbol: GPIOE_PSOR
   Definitions
      At line 725 in file MKL25Z128xxx4.s
   Uses
      None
Comment: GPIOE_PSOR unused
GPIOE_PTOR 400FF10C

Symbol: GPIOE_PTOR
   Definitions
      At line 727 in file MKL25Z128xxx4.s
   Uses
      None
Comment: GPIOE_PTOR unused
GPIO_BASE 400FF000

Symbol: GPIO_BASE
   Definitions
      At line 678 in file MKL25Z128xxx4.s
   Uses
      None
Comment: GPIO_BASE unused
GPIO_PCOR_OFFSET 00000008

Symbol: GPIO_PCOR_OFFSET
   Definitions
      At line 681 in file MKL25Z128xxx4.s
   Uses
      At line 497 in file MKL25Z128xxx4.s
      At line 505 in file MKL25Z128xxx4.s
      At line 513 in file MKL25Z128xxx4.s
      At line 521 in file MKL25Z128xxx4.s
      At line 529 in file MKL25Z128xxx4.s
      At line 694 in file MKL25Z128xxx4.s
      At line 702 in file MKL25Z128xxx4.s
      At line 710 in file MKL25Z128xxx4.s
      At line 718 in file MKL25Z128xxx4.s
      At line 726 in file MKL25Z128xxx4.s

GPIO_PDDR_OFFSET 00000014

Symbol: GPIO_PDDR_OFFSET
   Definitions
      At line 684 in file MKL25Z128xxx4.s
   Uses
      At line 500 in file MKL25Z128xxx4.s
      At line 508 in file MKL25Z128xxx4.s
      At line 516 in file MKL25Z128xxx4.s
      At line 524 in file MKL25Z128xxx4.s



ARM Macro Assembler    Page 42 Alphabetic symbol ordering
Absolute symbols

      At line 532 in file MKL25Z128xxx4.s
      At line 697 in file MKL25Z128xxx4.s
      At line 705 in file MKL25Z128xxx4.s
      At line 713 in file MKL25Z128xxx4.s
      At line 721 in file MKL25Z128xxx4.s
      At line 729 in file MKL25Z128xxx4.s

GPIO_PDIR_OFFSET 00000010

Symbol: GPIO_PDIR_OFFSET
   Definitions
      At line 683 in file MKL25Z128xxx4.s
   Uses
      At line 499 in file MKL25Z128xxx4.s
      At line 507 in file MKL25Z128xxx4.s
      At line 515 in file MKL25Z128xxx4.s
      At line 523 in file MKL25Z128xxx4.s
      At line 531 in file MKL25Z128xxx4.s
      At line 696 in file MKL25Z128xxx4.s
      At line 704 in file MKL25Z128xxx4.s
      At line 712 in file MKL25Z128xxx4.s
      At line 720 in file MKL25Z128xxx4.s
      At line 728 in file MKL25Z128xxx4.s

GPIO_PDOR_OFFSET 00000000

Symbol: GPIO_PDOR_OFFSET
   Definitions
      At line 679 in file MKL25Z128xxx4.s
   Uses
      At line 495 in file MKL25Z128xxx4.s
      At line 503 in file MKL25Z128xxx4.s
      At line 511 in file MKL25Z128xxx4.s
      At line 519 in file MKL25Z128xxx4.s
      At line 527 in file MKL25Z128xxx4.s
      At line 692 in file MKL25Z128xxx4.s
      At line 700 in file MKL25Z128xxx4.s
      At line 708 in file MKL25Z128xxx4.s
      At line 716 in file MKL25Z128xxx4.s
      At line 724 in file MKL25Z128xxx4.s

GPIO_PSOR_OFFSET 00000004

Symbol: GPIO_PSOR_OFFSET
   Definitions
      At line 680 in file MKL25Z128xxx4.s
   Uses
      At line 496 in file MKL25Z128xxx4.s
      At line 504 in file MKL25Z128xxx4.s
      At line 512 in file MKL25Z128xxx4.s
      At line 520 in file MKL25Z128xxx4.s
      At line 528 in file MKL25Z128xxx4.s
      At line 693 in file MKL25Z128xxx4.s
      At line 701 in file MKL25Z128xxx4.s
      At line 709 in file MKL25Z128xxx4.s
      At line 717 in file MKL25Z128xxx4.s
      At line 725 in file MKL25Z128xxx4.s

GPIO_PTOR_OFFSET 0000000C



ARM Macro Assembler    Page 43 Alphabetic symbol ordering
Absolute symbols


Symbol: GPIO_PTOR_OFFSET
   Definitions
      At line 682 in file MKL25Z128xxx4.s
   Uses
      At line 498 in file MKL25Z128xxx4.s
      At line 506 in file MKL25Z128xxx4.s
      At line 514 in file MKL25Z128xxx4.s
      At line 522 in file MKL25Z128xxx4.s
      At line 530 in file MKL25Z128xxx4.s
      At line 695 in file MKL25Z128xxx4.s
      At line 703 in file MKL25Z128xxx4.s
      At line 711 in file MKL25Z128xxx4.s
      At line 719 in file MKL25Z128xxx4.s
      At line 727 in file MKL25Z128xxx4.s

HALFWORD_SIZE 00000002

Symbol: HALFWORD_SIZE
   Definitions
      At line 38 in file MKL25Z128xxx4.s
   Uses
      None
Comment: HALFWORD_SIZE unused
Hard_Fault_Vector 00000003

Symbol: Hard_Fault_Vector
   Definitions
      At line 1040 in file MKL25Z128xxx4.s
   Uses
      None
Comment: Hard_Fault_Vector unused
I2C0_IPR E000E408

Symbol: I2C0_IPR
   Definitions
      At line 907 in file MKL25Z128xxx4.s
   Uses
      None
Comment: I2C0_IPR unused
I2C0_IRQ 00000008

Symbol: I2C0_IRQ
   Definitions
      At line 977 in file MKL25Z128xxx4.s
   Uses
      At line 1011 in file MKL25Z128xxx4.s
Comment: I2C0_IRQ used once
I2C0_IRQ_MASK 00000100

Symbol: I2C0_IRQ_MASK
   Definitions
      At line 1011 in file MKL25Z128xxx4.s
   Uses
      None
Comment: I2C0_IRQ_MASK unused
I2C0_PRI_POS 00000006

Symbol: I2C0_PRI_POS



ARM Macro Assembler    Page 44 Alphabetic symbol ordering
Absolute symbols

   Definitions
      At line 943 in file MKL25Z128xxx4.s
   Uses
      None
Comment: I2C0_PRI_POS unused
I2C0_Vector 00000018

Symbol: I2C0_Vector
   Definitions
      At line 1061 in file MKL25Z128xxx4.s
   Uses
      None
Comment: I2C0_Vector unused
I2C1_IPR E000E408

Symbol: I2C1_IPR
   Definitions
      At line 908 in file MKL25Z128xxx4.s
   Uses
      None
Comment: I2C1_IPR unused
I2C1_IRQ 00000009

Symbol: I2C1_IRQ
   Definitions
      At line 978 in file MKL25Z128xxx4.s
   Uses
      At line 1012 in file MKL25Z128xxx4.s
Comment: I2C1_IRQ used once
I2C1_IRQ_MASK 00000200

Symbol: I2C1_IRQ_MASK
   Definitions
      At line 1012 in file MKL25Z128xxx4.s
   Uses
      None
Comment: I2C1_IRQ_MASK unused
I2C1_PRI_POS 0000000E

Symbol: I2C1_PRI_POS
   Definitions
      At line 944 in file MKL25Z128xxx4.s
   Uses
      None
Comment: I2C1_PRI_POS unused
I2C1_Vector 00000019

Symbol: I2C1_Vector
   Definitions
      At line 1062 in file MKL25Z128xxx4.s
   Uses
      None
Comment: I2C1_Vector unused
IN_PTR 00000000

Symbol: IN_PTR
   Definitions
      At line 30 in file ServoControl.s
   Uses



ARM Macro Assembler    Page 45 Alphabetic symbol ordering
Absolute symbols

      At line 517 in file ServoControl.s
      At line 525 in file ServoControl.s
      At line 561 in file ServoControl.s

IPSR_EXCEPTION_MASK 0000003F

Symbol: IPSR_EXCEPTION_MASK
   Definitions
      At line 84 in file MKL25Z128xxx4.s
   Uses
      At line 91 in file MKL25Z128xxx4.s
Comment: IPSR_EXCEPTION_MASK used once
Init_SP_Vector 00000000

Symbol: Init_SP_Vector
   Definitions
      At line 1037 in file MKL25Z128xxx4.s
   Uses
      None
Comment: Init_SP_Vector unused
LLWU_IPR E000E404

Symbol: LLWU_IPR
   Definitions
      At line 906 in file MKL25Z128xxx4.s
   Uses
      None
Comment: LLWU_IPR unused
LLWU_IRQ 00000007

Symbol: LLWU_IRQ
   Definitions
      At line 976 in file MKL25Z128xxx4.s
   Uses
      At line 1010 in file MKL25Z128xxx4.s
Comment: LLWU_IRQ used once
LLWU_IRQ_MASK 00000080

Symbol: LLWU_IRQ_MASK
   Definitions
      At line 1010 in file MKL25Z128xxx4.s
   Uses
      None
Comment: LLWU_IRQ_MASK unused
LLWU_PRI_POS 0000001E

Symbol: LLWU_PRI_POS
   Definitions
      At line 942 in file MKL25Z128xxx4.s
   Uses
      None
Comment: LLWU_PRI_POS unused
LLWU_Vector 00000017

Symbol: LLWU_Vector
   Definitions
      At line 1060 in file MKL25Z128xxx4.s
   Uses
      None



ARM Macro Assembler    Page 46 Alphabetic symbol ordering
Absolute symbols

Comment: LLWU_Vector unused
LPTMR0_IPR E000E41C

Symbol: LPTMR0_IPR
   Definitions
      At line 927 in file MKL25Z128xxx4.s
   Uses
      None
Comment: LPTMR0_IPR unused
LPTMR0_IRQ 0000001C

Symbol: LPTMR0_IRQ
   Definitions
      At line 997 in file MKL25Z128xxx4.s
   Uses
      At line 1031 in file MKL25Z128xxx4.s
Comment: LPTMR0_IRQ used once
LPTMR0_IRQ_MASK 10000000

Symbol: LPTMR0_IRQ_MASK
   Definitions
      At line 1031 in file MKL25Z128xxx4.s
   Uses
      None
Comment: LPTMR0_IRQ_MASK unused
LPTMR0_PRI_POS 00000006

Symbol: LPTMR0_PRI_POS
   Definitions
      At line 963 in file MKL25Z128xxx4.s
   Uses
      None
Comment: LPTMR0_PRI_POS unused
LPTMR0_Vector 0000002C

Symbol: LPTMR0_Vector
   Definitions
      At line 1081 in file MKL25Z128xxx4.s
   Uses
      None
Comment: LPTMR0_Vector unused
MAX_STRING 0000004F

Symbol: MAX_STRING
   Definitions
      At line 27 in file ServoControl.s
   Uses
      None
Comment: MAX_STRING unused
MCG_BASE 40064000

Symbol: MCG_BASE
   Definitions
      At line 735 in file MKL25Z128xxx4.s
   Uses
      At line 742 in file MKL25Z128xxx4.s
      At line 743 in file MKL25Z128xxx4.s
      At line 744 in file MKL25Z128xxx4.s
      At line 745 in file MKL25Z128xxx4.s



ARM Macro Assembler    Page 47 Alphabetic symbol ordering
Absolute symbols

      At line 746 in file MKL25Z128xxx4.s
      At line 747 in file MKL25Z128xxx4.s
      At line 2156 in file MKL25Z128xxx4.s

MCG_C1 40064000

Symbol: MCG_C1
   Definitions
      At line 742 in file MKL25Z128xxx4.s
   Uses
      None
Comment: MCG_C1 unused
MCG_C1_CLKS_EXT_MASK 00000080

Symbol: MCG_C1_CLKS_EXT_MASK
   Definitions
      At line 776 in file MKL25Z128xxx4.s
   Uses
      At line 780 in file MKL25Z128xxx4.s
Comment: MCG_C1_CLKS_EXT_MASK used once
MCG_C1_CLKS_MASK 000000C0

Symbol: MCG_C1_CLKS_MASK
   Definitions
      At line 771 in file MKL25Z128xxx4.s
   Uses
      At line 2259 in file MKL25Z128xxx4.s
Comment: MCG_C1_CLKS_MASK used once
MCG_C1_CLKS_PLL_MASK 00000000

Symbol: MCG_C1_CLKS_PLL_MASK
   Definitions
      At line 777 in file MKL25Z128xxx4.s
   Uses
      None
Comment: MCG_C1_CLKS_PLL_MASK unused
MCG_C1_EXT_DIV256 00000098

Symbol: MCG_C1_EXT_DIV256
   Definitions
      At line 780 in file MKL25Z128xxx4.s
   Uses
      At line 2166 in file MKL25Z128xxx4.s
Comment: MCG_C1_EXT_DIV256 used once
MCG_C1_FRDIV_256_MASK 00000018

Symbol: MCG_C1_FRDIV_256_MASK
   Definitions
      At line 778 in file MKL25Z128xxx4.s
   Uses
      At line 780 in file MKL25Z128xxx4.s
Comment: MCG_C1_FRDIV_256_MASK used once
MCG_C1_FRDIV_MASK 00000038

Symbol: MCG_C1_FRDIV_MASK
   Definitions
      At line 772 in file MKL25Z128xxx4.s
   Uses
      None



ARM Macro Assembler    Page 48 Alphabetic symbol ordering
Absolute symbols

Comment: MCG_C1_FRDIV_MASK unused
MCG_C1_IRCLKEN_MASK 00000002

Symbol: MCG_C1_IRCLKEN_MASK
   Definitions
      At line 774 in file MKL25Z128xxx4.s
   Uses
      None
Comment: MCG_C1_IRCLKEN_MASK unused
MCG_C1_IREFSTEN_MASK 00000001

Symbol: MCG_C1_IREFSTEN_MASK
   Definitions
      At line 775 in file MKL25Z128xxx4.s
   Uses
      None
Comment: MCG_C1_IREFSTEN_MASK unused
MCG_C1_IREFS_MASK 00000004

Symbol: MCG_C1_IREFS_MASK
   Definitions
      At line 773 in file MKL25Z128xxx4.s
   Uses
      None
Comment: MCG_C1_IREFS_MASK unused
MCG_C1_OFFSET 00000000

Symbol: MCG_C1_OFFSET
   Definitions
      At line 736 in file MKL25Z128xxx4.s
   Uses
      At line 742 in file MKL25Z128xxx4.s
      At line 2167 in file MKL25Z128xxx4.s
      At line 2261 in file MKL25Z128xxx4.s
      At line 2263 in file MKL25Z128xxx4.s

MCG_C2 40064001

Symbol: MCG_C2
   Definitions
      At line 743 in file MKL25Z128xxx4.s
   Uses
      None
Comment: MCG_C2 unused
MCG_C2_EREFS0_MASK 00000004

Symbol: MCG_C2_EREFS0_MASK
   Definitions
      At line 806 in file MKL25Z128xxx4.s
   Uses
      At line 811 in file MKL25Z128xxx4.s
Comment: MCG_C2_EREFS0_MASK used once
MCG_C2_HF_LP_OSC 00000014

Symbol: MCG_C2_HF_LP_OSC
   Definitions
      At line 811 in file MKL25Z128xxx4.s
   Uses
      At line 2157 in file MKL25Z128xxx4.s



ARM Macro Assembler    Page 49 Alphabetic symbol ordering
Absolute symbols

Comment: MCG_C2_HF_LP_OSC used once
MCG_C2_HGO0_MASK 00000008

Symbol: MCG_C2_HGO0_MASK
   Definitions
      At line 805 in file MKL25Z128xxx4.s
   Uses
      None
Comment: MCG_C2_HGO0_MASK unused
MCG_C2_IRCS_MASK 00000001

Symbol: MCG_C2_IRCS_MASK
   Definitions
      At line 808 in file MKL25Z128xxx4.s
   Uses
      None
Comment: MCG_C2_IRCS_MASK unused
MCG_C2_LOCRE0_MASK 00000080

Symbol: MCG_C2_LOCRE0_MASK
   Definitions
      At line 803 in file MKL25Z128xxx4.s
   Uses
      None
Comment: MCG_C2_LOCRE0_MASK unused
MCG_C2_LP_MASK 00000002

Symbol: MCG_C2_LP_MASK
   Definitions
      At line 807 in file MKL25Z128xxx4.s
   Uses
      None
Comment: MCG_C2_LP_MASK unused
MCG_C2_OFFSET 00000001

Symbol: MCG_C2_OFFSET
   Definitions
      At line 737 in file MKL25Z128xxx4.s
   Uses
      At line 743 in file MKL25Z128xxx4.s
      At line 2158 in file MKL25Z128xxx4.s

MCG_C2_RANGE0_HIGH_MASK 00000010

Symbol: MCG_C2_RANGE0_HIGH_MASK
   Definitions
      At line 809 in file MKL25Z128xxx4.s
   Uses
      At line 811 in file MKL25Z128xxx4.s
Comment: MCG_C2_RANGE0_HIGH_MASK used once
MCG_C2_RANGE0_MASK 00000030

Symbol: MCG_C2_RANGE0_MASK
   Definitions
      At line 804 in file MKL25Z128xxx4.s
   Uses
      None
Comment: MCG_C2_RANGE0_MASK unused
MCG_C4 40064003



ARM Macro Assembler    Page 50 Alphabetic symbol ordering
Absolute symbols


Symbol: MCG_C4
   Definitions
      At line 744 in file MKL25Z128xxx4.s
   Uses
      None
Comment: MCG_C4 unused
MCG_C4_OFFSET 00000003

Symbol: MCG_C4_OFFSET
   Definitions
      At line 738 in file MKL25Z128xxx4.s
   Uses
      At line 744 in file MKL25Z128xxx4.s
Comment: MCG_C4_OFFSET used once
MCG_C5 40064004

Symbol: MCG_C5
   Definitions
      At line 745 in file MKL25Z128xxx4.s
   Uses
      None
Comment: MCG_C5 unused
MCG_C5_OFFSET 00000004

Symbol: MCG_C5_OFFSET
   Definitions
      At line 739 in file MKL25Z128xxx4.s
   Uses
      At line 745 in file MKL25Z128xxx4.s
      At line 2215 in file MKL25Z128xxx4.s
      At line 2218 in file MKL25Z128xxx4.s

MCG_C5_PLLCLKEN0_MASK 00000040

Symbol: MCG_C5_PLLCLKEN0_MASK
   Definitions
      At line 820 in file MKL25Z128xxx4.s
   Uses
      None
Comment: MCG_C5_PLLCLKEN0_MASK unused
MCG_C5_PLLSTEN0_MASK 00000020

Symbol: MCG_C5_PLLSTEN0_MASK
   Definitions
      At line 821 in file MKL25Z128xxx4.s
   Uses
      None
Comment: MCG_C5_PLLSTEN0_MASK unused
MCG_C5_PRDIV0_DIV2 00000001

Symbol: MCG_C5_PRDIV0_DIV2
   Definitions
      At line 823 in file MKL25Z128xxx4.s
   Uses
      At line 2214 in file MKL25Z128xxx4.s
Comment: MCG_C5_PRDIV0_DIV2 used once
MCG_C5_PRDIV0_MASK 0000001F




ARM Macro Assembler    Page 51 Alphabetic symbol ordering
Absolute symbols

Symbol: MCG_C5_PRDIV0_MASK
   Definitions
      At line 822 in file MKL25Z128xxx4.s
   Uses
      At line 2212 in file MKL25Z128xxx4.s
Comment: MCG_C5_PRDIV0_MASK used once
MCG_C6 40064005

Symbol: MCG_C6
   Definitions
      At line 746 in file MKL25Z128xxx4.s
   Uses
      None
Comment: MCG_C6 unused
MCG_C6_CME0_MASK 00000020

Symbol: MCG_C6_CME0_MASK
   Definitions
      At line 835 in file MKL25Z128xxx4.s
   Uses
      At line 2204 in file MKL25Z128xxx4.s
Comment: MCG_C6_CME0_MASK used once
MCG_C6_LOLIE0_MASK 00000080

Symbol: MCG_C6_LOLIE0_MASK
   Definitions
      At line 833 in file MKL25Z128xxx4.s
   Uses
      None
Comment: MCG_C6_LOLIE0_MASK unused
MCG_C6_OFFSET 00000005

Symbol: MCG_C6_OFFSET
   Definitions
      At line 740 in file MKL25Z128xxx4.s
   Uses
      At line 746 in file MKL25Z128xxx4.s
      At line 2205 in file MKL25Z128xxx4.s
      At line 2207 in file MKL25Z128xxx4.s
      At line 2223 in file MKL25Z128xxx4.s
      At line 2226 in file MKL25Z128xxx4.s

MCG_C6_PLLS_MASK 00000040

Symbol: MCG_C6_PLLS_MASK
   Definitions
      At line 834 in file MKL25Z128xxx4.s
   Uses
      At line 838 in file MKL25Z128xxx4.s
Comment: MCG_C6_PLLS_MASK used once
MCG_C6_PLLS_PLL_MASK 00000040

Symbol: MCG_C6_PLLS_PLL_MASK
   Definitions
      At line 838 in file MKL25Z128xxx4.s
   Uses
      At line 840 in file MKL25Z128xxx4.s
Comment: MCG_C6_PLLS_PLL_MASK used once
MCG_C6_PLL_MUL24 00000040



ARM Macro Assembler    Page 52 Alphabetic symbol ordering
Absolute symbols


Symbol: MCG_C6_PLL_MUL24
   Definitions
      At line 840 in file MKL25Z128xxx4.s
   Uses
      At line 2222 in file MKL25Z128xxx4.s
Comment: MCG_C6_PLL_MUL24 used once
MCG_C6_VDIV0_MASK 0000001F

Symbol: MCG_C6_VDIV0_MASK
   Definitions
      At line 836 in file MKL25Z128xxx4.s
   Uses
      At line 2220 in file MKL25Z128xxx4.s
Comment: MCG_C6_VDIV0_MASK used once
MCG_C6_VDIV0_MUL24 00000000

Symbol: MCG_C6_VDIV0_MUL24
   Definitions
      At line 837 in file MKL25Z128xxx4.s
   Uses
      At line 840 in file MKL25Z128xxx4.s
Comment: MCG_C6_VDIV0_MUL24 used once
MCG_IPR E000E418

Symbol: MCG_IPR
   Definitions
      At line 926 in file MKL25Z128xxx4.s
   Uses
      None
Comment: MCG_IPR unused
MCG_IRQ 0000001B

Symbol: MCG_IRQ
   Definitions
      At line 996 in file MKL25Z128xxx4.s
   Uses
      At line 1030 in file MKL25Z128xxx4.s
Comment: MCG_IRQ used once
MCG_IRQ_MASK 08000000

Symbol: MCG_IRQ_MASK
   Definitions
      At line 1030 in file MKL25Z128xxx4.s
   Uses
      None
Comment: MCG_IRQ_MASK unused
MCG_PRI_POS 0000001E

Symbol: MCG_PRI_POS
   Definitions
      At line 962 in file MKL25Z128xxx4.s
   Uses
      None
Comment: MCG_PRI_POS unused
MCG_S 40064006

Symbol: MCG_S
   Definitions



ARM Macro Assembler    Page 53 Alphabetic symbol ordering
Absolute symbols

      At line 747 in file MKL25Z128xxx4.s
   Uses
      None
Comment: MCG_S unused
MCG_S_CLKST_EXT_MASK 00000008

Symbol: MCG_S_CLKST_EXT_MASK
   Definitions
      At line 867 in file MKL25Z128xxx4.s
   Uses
      At line 2198 in file MKL25Z128xxx4.s
Comment: MCG_S_CLKST_EXT_MASK used once
MCG_S_CLKST_MASK 0000000C

Symbol: MCG_S_CLKST_MASK
   Definitions
      At line 864 in file MKL25Z128xxx4.s
   Uses
      At line 2193 in file MKL25Z128xxx4.s
      At line 2267 in file MKL25Z128xxx4.s

MCG_S_CLKST_PLL_MASK 0000000C

Symbol: MCG_S_CLKST_PLL_MASK
   Definitions
      At line 868 in file MKL25Z128xxx4.s
   Uses
      At line 2272 in file MKL25Z128xxx4.s
Comment: MCG_S_CLKST_PLL_MASK used once
MCG_S_IRCST_MASK 00000001

Symbol: MCG_S_IRCST_MASK
   Definitions
      At line 866 in file MKL25Z128xxx4.s
   Uses
      None
Comment: MCG_S_IRCST_MASK unused
MCG_S_IREFST_MASK 00000010

Symbol: MCG_S_IREFST_MASK
   Definitions
      At line 863 in file MKL25Z128xxx4.s
   Uses
      At line 2181 in file MKL25Z128xxx4.s
Comment: MCG_S_IREFST_MASK used once
MCG_S_LOCK0_MASK 00000040

Symbol: MCG_S_LOCK0_MASK
   Definitions
      At line 861 in file MKL25Z128xxx4.s
   Uses
      At line 2240 in file MKL25Z128xxx4.s
Comment: MCG_S_LOCK0_MASK used once
MCG_S_LOLS_MASK 00000080

Symbol: MCG_S_LOLS_MASK
   Definitions
      At line 860 in file MKL25Z128xxx4.s
   Uses



ARM Macro Assembler    Page 54 Alphabetic symbol ordering
Absolute symbols

      None
Comment: MCG_S_LOLS_MASK unused
MCG_S_OFFSET 00000006

Symbol: MCG_S_OFFSET
   Definitions
      At line 741 in file MKL25Z128xxx4.s
   Uses
      At line 747 in file MKL25Z128xxx4.s
      At line 2173 in file MKL25Z128xxx4.s
      At line 2184 in file MKL25Z128xxx4.s
      At line 2196 in file MKL25Z128xxx4.s
      At line 2232 in file MKL25Z128xxx4.s
      At line 2243 in file MKL25Z128xxx4.s
      At line 2270 in file MKL25Z128xxx4.s

MCG_S_OSCINIT0_MASK 00000002

Symbol: MCG_S_OSCINIT0_MASK
   Definitions
      At line 865 in file MKL25Z128xxx4.s
   Uses
      At line 2170 in file MKL25Z128xxx4.s
Comment: MCG_S_OSCINIT0_MASK used once
MCG_S_PLLST_MASK 00000020

Symbol: MCG_S_PLLST_MASK
   Definitions
      At line 862 in file MKL25Z128xxx4.s
   Uses
      At line 2229 in file MKL25Z128xxx4.s
Comment: MCG_S_PLLST_MASK used once
MCG_Vector 0000002B

Symbol: MCG_Vector
   Definitions
      At line 1080 in file MKL25Z128xxx4.s
   Uses
      None
Comment: MCG_Vector unused
NMI_Vector02 00000002

Symbol: NMI_Vector02
   Definitions
      At line 1039 in file MKL25Z128xxx4.s
   Uses
      None
Comment: NMI_Vector02 unused
NUM_ENQD 00000011

Symbol: NUM_ENQD
   Definitions
      At line 35 in file ServoControl.s
   Uses
      At line 462 in file ServoControl.s
      At line 466 in file ServoControl.s
      At line 511 in file ServoControl.s
      At line 516 in file ServoControl.s
      At line 569 in file ServoControl.s



ARM Macro Assembler    Page 55 Alphabetic symbol ordering
Absolute symbols


NVIC_BASE E000E100

Symbol: NVIC_BASE
   Definitions
      At line 872 in file MKL25Z128xxx4.s
   Uses
      At line 885 in file MKL25Z128xxx4.s
      At line 886 in file MKL25Z128xxx4.s
      At line 887 in file MKL25Z128xxx4.s
      At line 888 in file MKL25Z128xxx4.s
      At line 889 in file MKL25Z128xxx4.s
      At line 890 in file MKL25Z128xxx4.s
      At line 891 in file MKL25Z128xxx4.s
      At line 892 in file MKL25Z128xxx4.s
      At line 893 in file MKL25Z128xxx4.s
      At line 894 in file MKL25Z128xxx4.s
      At line 895 in file MKL25Z128xxx4.s
      At line 896 in file MKL25Z128xxx4.s

NVIC_ICER E000E180

Symbol: NVIC_ICER
   Definitions
      At line 886 in file MKL25Z128xxx4.s
   Uses
      None
Comment: NVIC_ICER unused
NVIC_ICER_OFFSET 00000080

Symbol: NVIC_ICER_OFFSET
   Definitions
      At line 874 in file MKL25Z128xxx4.s
   Uses
      At line 886 in file MKL25Z128xxx4.s
Comment: NVIC_ICER_OFFSET used once
NVIC_ICPR E000E280

Symbol: NVIC_ICPR
   Definitions
      At line 888 in file MKL25Z128xxx4.s
   Uses
      None
Comment: NVIC_ICPR unused
NVIC_ICPR_OFFSET 00000180

Symbol: NVIC_ICPR_OFFSET
   Definitions
      At line 876 in file MKL25Z128xxx4.s
   Uses
      At line 888 in file MKL25Z128xxx4.s
Comment: NVIC_ICPR_OFFSET used once
NVIC_IPR0 E000E400

Symbol: NVIC_IPR0
   Definitions
      At line 889 in file MKL25Z128xxx4.s
   Uses
      At line 899 in file MKL25Z128xxx4.s



ARM Macro Assembler    Page 56 Alphabetic symbol ordering
Absolute symbols

      At line 900 in file MKL25Z128xxx4.s
      At line 901 in file MKL25Z128xxx4.s
      At line 902 in file MKL25Z128xxx4.s

NVIC_IPR0_OFFSET 00000300

Symbol: NVIC_IPR0_OFFSET
   Definitions
      At line 877 in file MKL25Z128xxx4.s
   Uses
      At line 889 in file MKL25Z128xxx4.s
Comment: NVIC_IPR0_OFFSET used once
NVIC_IPR1 E000E404

Symbol: NVIC_IPR1
   Definitions
      At line 890 in file MKL25Z128xxx4.s
   Uses
      At line 903 in file MKL25Z128xxx4.s
      At line 904 in file MKL25Z128xxx4.s
      At line 905 in file MKL25Z128xxx4.s
      At line 906 in file MKL25Z128xxx4.s

NVIC_IPR1_OFFSET 00000304

Symbol: NVIC_IPR1_OFFSET
   Definitions
      At line 878 in file MKL25Z128xxx4.s
   Uses
      At line 890 in file MKL25Z128xxx4.s
Comment: NVIC_IPR1_OFFSET used once
NVIC_IPR2 E000E408

Symbol: NVIC_IPR2
   Definitions
      At line 891 in file MKL25Z128xxx4.s
   Uses
      At line 907 in file MKL25Z128xxx4.s
      At line 908 in file MKL25Z128xxx4.s
      At line 909 in file MKL25Z128xxx4.s
      At line 910 in file MKL25Z128xxx4.s

NVIC_IPR2_OFFSET 00000308

Symbol: NVIC_IPR2_OFFSET
   Definitions
      At line 879 in file MKL25Z128xxx4.s
   Uses
      At line 891 in file MKL25Z128xxx4.s
Comment: NVIC_IPR2_OFFSET used once
NVIC_IPR3 E000E40C

Symbol: NVIC_IPR3
   Definitions
      At line 892 in file MKL25Z128xxx4.s
   Uses
      At line 911 in file MKL25Z128xxx4.s
      At line 912 in file MKL25Z128xxx4.s
      At line 913 in file MKL25Z128xxx4.s



ARM Macro Assembler    Page 57 Alphabetic symbol ordering
Absolute symbols

      At line 914 in file MKL25Z128xxx4.s

NVIC_IPR3_OFFSET 0000030C

Symbol: NVIC_IPR3_OFFSET
   Definitions
      At line 880 in file MKL25Z128xxx4.s
   Uses
      At line 892 in file MKL25Z128xxx4.s
Comment: NVIC_IPR3_OFFSET used once
NVIC_IPR4 E000E410

Symbol: NVIC_IPR4
   Definitions
      At line 893 in file MKL25Z128xxx4.s
   Uses
      At line 915 in file MKL25Z128xxx4.s
      At line 916 in file MKL25Z128xxx4.s
      At line 917 in file MKL25Z128xxx4.s
      At line 918 in file MKL25Z128xxx4.s

NVIC_IPR4_OFFSET 00000310

Symbol: NVIC_IPR4_OFFSET
   Definitions
      At line 881 in file MKL25Z128xxx4.s
   Uses
      At line 893 in file MKL25Z128xxx4.s
Comment: NVIC_IPR4_OFFSET used once
NVIC_IPR5 E000E414

Symbol: NVIC_IPR5
   Definitions
      At line 894 in file MKL25Z128xxx4.s
   Uses
      At line 919 in file MKL25Z128xxx4.s
      At line 920 in file MKL25Z128xxx4.s
      At line 921 in file MKL25Z128xxx4.s
      At line 922 in file MKL25Z128xxx4.s

NVIC_IPR5_OFFSET 00000314

Symbol: NVIC_IPR5_OFFSET
   Definitions
      At line 882 in file MKL25Z128xxx4.s
   Uses
      At line 894 in file MKL25Z128xxx4.s
Comment: NVIC_IPR5_OFFSET used once
NVIC_IPR6 E000E418

Symbol: NVIC_IPR6
   Definitions
      At line 895 in file MKL25Z128xxx4.s
   Uses
      At line 923 in file MKL25Z128xxx4.s
      At line 924 in file MKL25Z128xxx4.s
      At line 925 in file MKL25Z128xxx4.s
      At line 926 in file MKL25Z128xxx4.s




ARM Macro Assembler    Page 58 Alphabetic symbol ordering
Absolute symbols

NVIC_IPR6_OFFSET 00000318

Symbol: NVIC_IPR6_OFFSET
   Definitions
      At line 883 in file MKL25Z128xxx4.s
   Uses
      At line 895 in file MKL25Z128xxx4.s
Comment: NVIC_IPR6_OFFSET used once
NVIC_IPR7 E000E41C

Symbol: NVIC_IPR7
   Definitions
      At line 896 in file MKL25Z128xxx4.s
   Uses
      At line 927 in file MKL25Z128xxx4.s
      At line 928 in file MKL25Z128xxx4.s
      At line 929 in file MKL25Z128xxx4.s
      At line 930 in file MKL25Z128xxx4.s

NVIC_IPR7_OFFSET 0000031C

Symbol: NVIC_IPR7_OFFSET
   Definitions
      At line 884 in file MKL25Z128xxx4.s
   Uses
      At line 896 in file MKL25Z128xxx4.s
Comment: NVIC_IPR7_OFFSET used once
NVIC_ISER E000E100

Symbol: NVIC_ISER
   Definitions
      At line 885 in file MKL25Z128xxx4.s
   Uses
      At line 794 in file ServoControl.s
Comment: NVIC_ISER used once
NVIC_ISER_OFFSET 00000000

Symbol: NVIC_ISER_OFFSET
   Definitions
      At line 873 in file MKL25Z128xxx4.s
   Uses
      At line 885 in file MKL25Z128xxx4.s
Comment: NVIC_ISER_OFFSET used once
NVIC_ISPR E000E200

Symbol: NVIC_ISPR
   Definitions
      At line 887 in file MKL25Z128xxx4.s
   Uses
      None
Comment: NVIC_ISPR unused
NVIC_ISPR_OFFSET 00000100

Symbol: NVIC_ISPR_OFFSET
   Definitions
      At line 875 in file MKL25Z128xxx4.s
   Uses
      At line 887 in file MKL25Z128xxx4.s
Comment: NVIC_ISPR_OFFSET used once



ARM Macro Assembler    Page 59 Alphabetic symbol ordering
Absolute symbols

OUT_PTR 00000004

Symbol: OUT_PTR
   Definitions
      At line 31 in file ServoControl.s
   Uses
      At line 467 in file ServoControl.s
      At line 475 in file ServoControl.s
      At line 562 in file ServoControl.s

PIN_DSE_MASK 00000040

Symbol: PIN_DSE_MASK
   Definitions
      At line 1204 in file MKL25Z128xxx4.s
   Uses
      At line 69 in file ServoControl.s
Comment: PIN_DSE_MASK used once
PIN_IRCQ_MASK 000F0000

Symbol: PIN_IRCQ_MASK
   Definitions
      At line 1202 in file MKL25Z128xxx4.s
   Uses
      None
Comment: PIN_IRCQ_MASK unused
PIN_ISF_MASK 01000000

Symbol: PIN_ISF_MASK
   Definitions
      At line 1201 in file MKL25Z128xxx4.s
   Uses
      At line 67 in file ServoControl.s
      At line 69 in file ServoControl.s
      At line 82 in file ServoControl.s
      At line 83 in file ServoControl.s

PIN_MUX_MASK 00000700

Symbol: PIN_MUX_MASK
   Definitions
      At line 1203 in file MKL25Z128xxx4.s
   Uses
      None
Comment: PIN_MUX_MASK unused
PIN_MUX_SELECT_0_MASK 00000000

Symbol: PIN_MUX_SELECT_0_MASK
   Definitions
      At line 1209 in file MKL25Z128xxx4.s
   Uses
      At line 66 in file ServoControl.s
Comment: PIN_MUX_SELECT_0_MASK used once
PIN_MUX_SELECT_1_MASK 00000100

Symbol: PIN_MUX_SELECT_1_MASK
   Definitions
      At line 1210 in file MKL25Z128xxx4.s
   Uses



ARM Macro Assembler    Page 60 Alphabetic symbol ordering
Absolute symbols

      None
Comment: PIN_MUX_SELECT_1_MASK unused
PIN_MUX_SELECT_2_MASK 00000200

Symbol: PIN_MUX_SELECT_2_MASK
   Definitions
      At line 1211 in file MKL25Z128xxx4.s
   Uses
      None
Comment: PIN_MUX_SELECT_2_MASK unused
PIN_MUX_SELECT_3 00000300

Symbol: PIN_MUX_SELECT_3
   Definitions
      At line 77 in file ServoControl.s
   Uses
      At line 68 in file ServoControl.s
      At line 80 in file ServoControl.s
      At line 81 in file ServoControl.s

PIN_MUX_SELECT_3_MASK 00000300

Symbol: PIN_MUX_SELECT_3_MASK
   Definitions
      At line 1212 in file MKL25Z128xxx4.s
   Uses
      None
Comment: PIN_MUX_SELECT_3_MASK unused
PIN_MUX_SELECT_4_MASK 00000400

Symbol: PIN_MUX_SELECT_4_MASK
   Definitions
      At line 1213 in file MKL25Z128xxx4.s
   Uses
      None
Comment: PIN_MUX_SELECT_4_MASK unused
PIN_MUX_SELECT_5_MASK 00000500

Symbol: PIN_MUX_SELECT_5_MASK
   Definitions
      At line 1214 in file MKL25Z128xxx4.s
   Uses
      None
Comment: PIN_MUX_SELECT_5_MASK unused
PIN_MUX_SELECT_6_MASK 00000600

Symbol: PIN_MUX_SELECT_6_MASK
   Definitions
      At line 1215 in file MKL25Z128xxx4.s
   Uses
      None
Comment: PIN_MUX_SELECT_6_MASK unused
PIN_MUX_SELECT_7_MASK 00000700

Symbol: PIN_MUX_SELECT_7_MASK
   Definitions
      At line 1216 in file MKL25Z128xxx4.s
   Uses
      None



ARM Macro Assembler    Page 61 Alphabetic symbol ordering
Absolute symbols

Comment: PIN_MUX_SELECT_7_MASK unused
PIN_PE_MASK 00000002

Symbol: PIN_PE_MASK
   Definitions
      At line 1207 in file MKL25Z128xxx4.s
   Uses
      None
Comment: PIN_PE_MASK unused
PIN_PFE_MASK 00000010

Symbol: PIN_PFE_MASK
   Definitions
      At line 1205 in file MKL25Z128xxx4.s
   Uses
      None
Comment: PIN_PFE_MASK unused
PIN_PS_MASK 00000001

Symbol: PIN_PS_MASK
   Definitions
      At line 1208 in file MKL25Z128xxx4.s
   Uses
      None
Comment: PIN_PS_MASK unused
PIN_SRE_MASK 00000004

Symbol: PIN_SRE_MASK
   Definitions
      At line 1206 in file MKL25Z128xxx4.s
   Uses
      None
Comment: PIN_SRE_MASK unused
PIT_BASE 40037000

Symbol: PIT_BASE
   Definitions
      At line 1091 in file MKL25Z128xxx4.s
   Uses
      At line 1109 in file MKL25Z128xxx4.s
      At line 1110 in file MKL25Z128xxx4.s
      At line 1111 in file MKL25Z128xxx4.s
      At line 1112 in file MKL25Z128xxx4.s
      At line 1113 in file MKL25Z128xxx4.s
      At line 1114 in file MKL25Z128xxx4.s
      At line 1115 in file MKL25Z128xxx4.s
      At line 1116 in file MKL25Z128xxx4.s
      At line 1117 in file MKL25Z128xxx4.s
      At line 1118 in file MKL25Z128xxx4.s
      At line 1119 in file MKL25Z128xxx4.s

PIT_CH0_BASE 40037100

Symbol: PIT_CH0_BASE
   Definitions
      At line 1092 in file MKL25Z128xxx4.s
   Uses
      None
Comment: PIT_CH0_BASE unused



ARM Macro Assembler    Page 62 Alphabetic symbol ordering
Absolute symbols

PIT_CH1_BASE 40037110

Symbol: PIT_CH1_BASE
   Definitions
      At line 1093 in file MKL25Z128xxx4.s
   Uses
      None
Comment: PIT_CH1_BASE unused
PIT_CHN_MASK 00000004

Symbol: PIT_CHN_MASK
   Definitions
      At line 1157 in file MKL25Z128xxx4.s
   Uses
      None
Comment: PIT_CHN_MASK unused
PIT_CVAL0 40037104

Symbol: PIT_CVAL0
   Definitions
      At line 1113 in file MKL25Z128xxx4.s
   Uses
      None
Comment: PIT_CVAL0 unused
PIT_CVAL0_OFFSET 00000104

Symbol: PIT_CVAL0_OFFSET
   Definitions
      At line 1102 in file MKL25Z128xxx4.s
   Uses
      At line 1113 in file MKL25Z128xxx4.s
Comment: PIT_CVAL0_OFFSET used once
PIT_CVAL2 40037114

Symbol: PIT_CVAL2
   Definitions
      At line 1117 in file MKL25Z128xxx4.s
   Uses
      None
Comment: PIT_CVAL2 unused
PIT_CVAL2_OFFSET 00000114

Symbol: PIT_CVAL2_OFFSET
   Definitions
      At line 1106 in file MKL25Z128xxx4.s
   Uses
      At line 1117 in file MKL25Z128xxx4.s
Comment: PIT_CVAL2_OFFSET used once
PIT_CVAL_OFFSET 00000004

Symbol: PIT_CVAL_OFFSET
   Definitions
      At line 1095 in file MKL25Z128xxx4.s
   Uses
      None
Comment: PIT_CVAL_OFFSET unused
PIT_FRZ_MASK 00000001

Symbol: PIT_FRZ_MASK



ARM Macro Assembler    Page 63 Alphabetic symbol ordering
Absolute symbols

   Definitions
      At line 1147 in file MKL25Z128xxx4.s
   Uses
      None
Comment: PIT_FRZ_MASK unused
PIT_IPR E000E414

Symbol: PIT_IPR
   Definitions
      At line 921 in file MKL25Z128xxx4.s
   Uses
      None
Comment: PIT_IPR unused
PIT_IRQ 00000016

Symbol: PIT_IRQ
   Definitions
      At line 991 in file MKL25Z128xxx4.s
   Uses
      At line 1025 in file MKL25Z128xxx4.s
Comment: PIT_IRQ used once
PIT_IRQ_MASK 00400000

Symbol: PIT_IRQ_MASK
   Definitions
      At line 1025 in file MKL25Z128xxx4.s
   Uses
      None
Comment: PIT_IRQ_MASK unused
PIT_LDVAL0 40037100

Symbol: PIT_LDVAL0
   Definitions
      At line 1112 in file MKL25Z128xxx4.s
   Uses
      None
Comment: PIT_LDVAL0 unused
PIT_LDVAL0_OFFSET 00000100

Symbol: PIT_LDVAL0_OFFSET
   Definitions
      At line 1101 in file MKL25Z128xxx4.s
   Uses
      At line 1112 in file MKL25Z128xxx4.s
Comment: PIT_LDVAL0_OFFSET used once
PIT_LDVAL2 40037110

Symbol: PIT_LDVAL2
   Definitions
      At line 1116 in file MKL25Z128xxx4.s
   Uses
      None
Comment: PIT_LDVAL2 unused
PIT_LDVAL2_OFFSET 00000110

Symbol: PIT_LDVAL2_OFFSET
   Definitions
      At line 1105 in file MKL25Z128xxx4.s
   Uses



ARM Macro Assembler    Page 64 Alphabetic symbol ordering
Absolute symbols

      At line 1116 in file MKL25Z128xxx4.s
Comment: PIT_LDVAL2_OFFSET used once
PIT_LDVAL_OFFSET 00000000

Symbol: PIT_LDVAL_OFFSET
   Definitions
      At line 1094 in file MKL25Z128xxx4.s
   Uses
      None
Comment: PIT_LDVAL_OFFSET unused
PIT_LTMR64H 400370E0

Symbol: PIT_LTMR64H
   Definitions
      At line 1110 in file MKL25Z128xxx4.s
   Uses
      None
Comment: PIT_LTMR64H unused
PIT_LTMR64H_OFFSET 000000E0

Symbol: PIT_LTMR64H_OFFSET
   Definitions
      At line 1099 in file MKL25Z128xxx4.s
   Uses
      At line 1110 in file MKL25Z128xxx4.s
Comment: PIT_LTMR64H_OFFSET used once
PIT_LTMR64L 400370E4

Symbol: PIT_LTMR64L
   Definitions
      At line 1111 in file MKL25Z128xxx4.s
   Uses
      None
Comment: PIT_LTMR64L unused
PIT_LTMR64L_OFFSET 000000E4

Symbol: PIT_LTMR64L_OFFSET
   Definitions
      At line 1100 in file MKL25Z128xxx4.s
   Uses
      At line 1111 in file MKL25Z128xxx4.s
Comment: PIT_LTMR64L_OFFSET used once
PIT_MCR 40037000

Symbol: PIT_MCR
   Definitions
      At line 1109 in file MKL25Z128xxx4.s
   Uses
      None
Comment: PIT_MCR unused
PIT_MCR_OFFSET 00000000

Symbol: PIT_MCR_OFFSET
   Definitions
      At line 1098 in file MKL25Z128xxx4.s
   Uses
      At line 1109 in file MKL25Z128xxx4.s
Comment: PIT_MCR_OFFSET used once
PIT_MDIS_MASK 00000002



ARM Macro Assembler    Page 65 Alphabetic symbol ordering
Absolute symbols


Symbol: PIT_MDIS_MASK
   Definitions
      At line 1146 in file MKL25Z128xxx4.s
   Uses
      None
Comment: PIT_MDIS_MASK unused
PIT_PRI_POS 00000016

Symbol: PIT_PRI_POS
   Definitions
      At line 957 in file MKL25Z128xxx4.s
   Uses
      None
Comment: PIT_PRI_POS unused
PIT_TCTRL0 40037108

Symbol: PIT_TCTRL0
   Definitions
      At line 1114 in file MKL25Z128xxx4.s
   Uses
      None
Comment: PIT_TCTRL0 unused
PIT_TCTRL0_OFFSET 00000108

Symbol: PIT_TCTRL0_OFFSET
   Definitions
      At line 1103 in file MKL25Z128xxx4.s
   Uses
      At line 1114 in file MKL25Z128xxx4.s
Comment: PIT_TCTRL0_OFFSET used once
PIT_TCTRL2 40037118

Symbol: PIT_TCTRL2
   Definitions
      At line 1118 in file MKL25Z128xxx4.s
   Uses
      None
Comment: PIT_TCTRL2 unused
PIT_TCTRL2_OFFSET 00000118

Symbol: PIT_TCTRL2_OFFSET
   Definitions
      At line 1107 in file MKL25Z128xxx4.s
   Uses
      At line 1118 in file MKL25Z128xxx4.s
Comment: PIT_TCTRL2_OFFSET used once
PIT_TCTRL_OFFSET 00000008

Symbol: PIT_TCTRL_OFFSET
   Definitions
      At line 1096 in file MKL25Z128xxx4.s
   Uses
      None
Comment: PIT_TCTRL_OFFSET unused
PIT_TEN_MASK 00000001

Symbol: PIT_TEN_MASK
   Definitions



ARM Macro Assembler    Page 66 Alphabetic symbol ordering
Absolute symbols

      At line 1159 in file MKL25Z128xxx4.s
   Uses
      None
Comment: PIT_TEN_MASK unused
PIT_TFLG0 4003710C

Symbol: PIT_TFLG0
   Definitions
      At line 1115 in file MKL25Z128xxx4.s
   Uses
      None
Comment: PIT_TFLG0 unused
PIT_TFLG0_OFFSET 0000010C

Symbol: PIT_TFLG0_OFFSET
   Definitions
      At line 1104 in file MKL25Z128xxx4.s
   Uses
      At line 1115 in file MKL25Z128xxx4.s
Comment: PIT_TFLG0_OFFSET used once
PIT_TFLG2 4003711C

Symbol: PIT_TFLG2
   Definitions
      At line 1119 in file MKL25Z128xxx4.s
   Uses
      None
Comment: PIT_TFLG2 unused
PIT_TFLG2_OFFSET 0000011C

Symbol: PIT_TFLG2_OFFSET
   Definitions
      At line 1108 in file MKL25Z128xxx4.s
   Uses
      At line 1119 in file MKL25Z128xxx4.s
Comment: PIT_TFLG2_OFFSET used once
PIT_TFLG_OFFSET 0000000C

Symbol: PIT_TFLG_OFFSET
   Definitions
      At line 1097 in file MKL25Z128xxx4.s
   Uses
      None
Comment: PIT_TFLG_OFFSET unused
PIT_TIE_MASK 00000002

Symbol: PIT_TIE_MASK
   Definitions
      At line 1158 in file MKL25Z128xxx4.s
   Uses
      None
Comment: PIT_TIE_MASK unused
PIT_TIF_MASK 00000001

Symbol: PIT_TIF_MASK
   Definitions
      At line 1165 in file MKL25Z128xxx4.s
   Uses
      None



ARM Macro Assembler    Page 67 Alphabetic symbol ordering
Absolute symbols

Comment: PIT_TIF_MASK unused
PIT_Vector 00000026

Symbol: PIT_Vector
   Definitions
      At line 1075 in file MKL25Z128xxx4.s
   Uses
      None
Comment: PIT_Vector unused
PMC_IPR E000E404

Symbol: PMC_IPR
   Definitions
      At line 905 in file MKL25Z128xxx4.s
   Uses
      None
Comment: PMC_IPR unused
PMC_IRQ 00000006

Symbol: PMC_IRQ
   Definitions
      At line 975 in file MKL25Z128xxx4.s
   Uses
      At line 1009 in file MKL25Z128xxx4.s
Comment: PMC_IRQ used once
PMC_IRQ_MASK 00000040

Symbol: PMC_IRQ_MASK
   Definitions
      At line 1009 in file MKL25Z128xxx4.s
   Uses
      None
Comment: PMC_IRQ_MASK unused
PMC_PRI_POS 00000016

Symbol: PMC_PRI_POS
   Definitions
      At line 941 in file MKL25Z128xxx4.s
   Uses
      None
Comment: PMC_PRI_POS unused
PMC_Vector 00000016

Symbol: PMC_Vector
   Definitions
      At line 1059 in file MKL25Z128xxx4.s
   Uses
      None
Comment: PMC_Vector unused
PORTA_BASE 40049000

Symbol: PORTA_BASE
   Definitions
      At line 1219 in file MKL25Z128xxx4.s
   Uses
      At line 1255 in file MKL25Z128xxx4.s
      At line 1256 in file MKL25Z128xxx4.s
      At line 1257 in file MKL25Z128xxx4.s
      At line 1258 in file MKL25Z128xxx4.s



ARM Macro Assembler    Page 68 Alphabetic symbol ordering
Absolute symbols

      At line 1259 in file MKL25Z128xxx4.s
      At line 1260 in file MKL25Z128xxx4.s
      At line 1261 in file MKL25Z128xxx4.s
      At line 1262 in file MKL25Z128xxx4.s
      At line 1263 in file MKL25Z128xxx4.s
      At line 1264 in file MKL25Z128xxx4.s
      At line 1265 in file MKL25Z128xxx4.s
      At line 1266 in file MKL25Z128xxx4.s
      At line 1267 in file MKL25Z128xxx4.s
      At line 1268 in file MKL25Z128xxx4.s
      At line 1269 in file MKL25Z128xxx4.s
      At line 1270 in file MKL25Z128xxx4.s
      At line 1271 in file MKL25Z128xxx4.s
      At line 1272 in file MKL25Z128xxx4.s
      At line 1273 in file MKL25Z128xxx4.s
      At line 1274 in file MKL25Z128xxx4.s
      At line 1275 in file MKL25Z128xxx4.s
      At line 1276 in file MKL25Z128xxx4.s
      At line 1277 in file MKL25Z128xxx4.s
      At line 1278 in file MKL25Z128xxx4.s
      At line 1279 in file MKL25Z128xxx4.s
      At line 1280 in file MKL25Z128xxx4.s
      At line 1281 in file MKL25Z128xxx4.s
      At line 1282 in file MKL25Z128xxx4.s
      At line 1283 in file MKL25Z128xxx4.s
      At line 1284 in file MKL25Z128xxx4.s
      At line 1285 in file MKL25Z128xxx4.s
      At line 1286 in file MKL25Z128xxx4.s
      At line 1287 in file MKL25Z128xxx4.s
      At line 1288 in file MKL25Z128xxx4.s
      At line 1289 in file MKL25Z128xxx4.s

PORTA_GPCHR 40049084

Symbol: PORTA_GPCHR
   Definitions
      At line 1288 in file MKL25Z128xxx4.s
   Uses
      None
Comment: PORTA_GPCHR unused
PORTA_GPCHR_OFFSET 00000084

Symbol: PORTA_GPCHR_OFFSET
   Definitions
      At line 1253 in file MKL25Z128xxx4.s
   Uses
      At line 1288 in file MKL25Z128xxx4.s
Comment: PORTA_GPCHR_OFFSET used once
PORTA_GPCLR 40049080

Symbol: PORTA_GPCLR
   Definitions
      At line 1287 in file MKL25Z128xxx4.s
   Uses
      None
Comment: PORTA_GPCLR unused
PORTA_GPCLR_OFFSET 00000080

Symbol: PORTA_GPCLR_OFFSET



ARM Macro Assembler    Page 69 Alphabetic symbol ordering
Absolute symbols

   Definitions
      At line 1252 in file MKL25Z128xxx4.s
   Uses
      At line 1287 in file MKL25Z128xxx4.s
Comment: PORTA_GPCLR_OFFSET used once
PORTA_IPR E000E41C

Symbol: PORTA_IPR
   Definitions
      At line 929 in file MKL25Z128xxx4.s
   Uses
      None
Comment: PORTA_IPR unused
PORTA_IRQ 0000001E

Symbol: PORTA_IRQ
   Definitions
      At line 999 in file MKL25Z128xxx4.s
   Uses
      At line 1033 in file MKL25Z128xxx4.s
Comment: PORTA_IRQ used once
PORTA_IRQ_MASK 40000000

Symbol: PORTA_IRQ_MASK
   Definitions
      At line 1033 in file MKL25Z128xxx4.s
   Uses
      None
Comment: PORTA_IRQ_MASK unused
PORTA_ISFR 400490A0

Symbol: PORTA_ISFR
   Definitions
      At line 1289 in file MKL25Z128xxx4.s
   Uses
      None
Comment: PORTA_ISFR unused
PORTA_ISFR_OFFSET 000000A0

Symbol: PORTA_ISFR_OFFSET
   Definitions
      At line 1254 in file MKL25Z128xxx4.s
   Uses
      At line 1289 in file MKL25Z128xxx4.s
Comment: PORTA_ISFR_OFFSET used once
PORTA_PCR0 40049000

Symbol: PORTA_PCR0
   Definitions
      At line 1255 in file MKL25Z128xxx4.s
   Uses
      None
Comment: PORTA_PCR0 unused
PORTA_PCR0_OFFSET 00000000

Symbol: PORTA_PCR0_OFFSET
   Definitions
      At line 1220 in file MKL25Z128xxx4.s
   Uses



ARM Macro Assembler    Page 70 Alphabetic symbol ordering
Absolute symbols

      At line 1255 in file MKL25Z128xxx4.s
Comment: PORTA_PCR0_OFFSET used once
PORTA_PCR1 40049004

Symbol: PORTA_PCR1
   Definitions
      At line 1256 in file MKL25Z128xxx4.s
   Uses
      None
Comment: PORTA_PCR1 unused
PORTA_PCR10 40049028

Symbol: PORTA_PCR10
   Definitions
      At line 1265 in file MKL25Z128xxx4.s
   Uses
      None
Comment: PORTA_PCR10 unused
PORTA_PCR10_OFFSET 00000028

Symbol: PORTA_PCR10_OFFSET
   Definitions
      At line 1230 in file MKL25Z128xxx4.s
   Uses
      At line 1265 in file MKL25Z128xxx4.s
Comment: PORTA_PCR10_OFFSET used once
PORTA_PCR11 4004902C

Symbol: PORTA_PCR11
   Definitions
      At line 1266 in file MKL25Z128xxx4.s
   Uses
      None
Comment: PORTA_PCR11 unused
PORTA_PCR11_OFFSET 0000002C

Symbol: PORTA_PCR11_OFFSET
   Definitions
      At line 1231 in file MKL25Z128xxx4.s
   Uses
      At line 1266 in file MKL25Z128xxx4.s
Comment: PORTA_PCR11_OFFSET used once
PORTA_PCR12 40049030

Symbol: PORTA_PCR12
   Definitions
      At line 1267 in file MKL25Z128xxx4.s
   Uses
      None
Comment: PORTA_PCR12 unused
PORTA_PCR12_OFFSET 00000030

Symbol: PORTA_PCR12_OFFSET
   Definitions
      At line 1232 in file MKL25Z128xxx4.s
   Uses
      At line 1267 in file MKL25Z128xxx4.s
Comment: PORTA_PCR12_OFFSET used once
PORTA_PCR13 40049034



ARM Macro Assembler    Page 71 Alphabetic symbol ordering
Absolute symbols


Symbol: PORTA_PCR13
   Definitions
      At line 1268 in file MKL25Z128xxx4.s
   Uses
      None
Comment: PORTA_PCR13 unused
PORTA_PCR13_OFFSET 00000034

Symbol: PORTA_PCR13_OFFSET
   Definitions
      At line 1233 in file MKL25Z128xxx4.s
   Uses
      At line 1268 in file MKL25Z128xxx4.s
Comment: PORTA_PCR13_OFFSET used once
PORTA_PCR14 40049038

Symbol: PORTA_PCR14
   Definitions
      At line 1269 in file MKL25Z128xxx4.s
   Uses
      None
Comment: PORTA_PCR14 unused
PORTA_PCR14_OFFSET 00000038

Symbol: PORTA_PCR14_OFFSET
   Definitions
      At line 1234 in file MKL25Z128xxx4.s
   Uses
      At line 1269 in file MKL25Z128xxx4.s
Comment: PORTA_PCR14_OFFSET used once
PORTA_PCR15 4004903C

Symbol: PORTA_PCR15
   Definitions
      At line 1270 in file MKL25Z128xxx4.s
   Uses
      None
Comment: PORTA_PCR15 unused
PORTA_PCR15_OFFSET 0000003C

Symbol: PORTA_PCR15_OFFSET
   Definitions
      At line 1235 in file MKL25Z128xxx4.s
   Uses
      At line 1270 in file MKL25Z128xxx4.s
Comment: PORTA_PCR15_OFFSET used once
PORTA_PCR16 40049040

Symbol: PORTA_PCR16
   Definitions
      At line 1271 in file MKL25Z128xxx4.s
   Uses
      None
Comment: PORTA_PCR16 unused
PORTA_PCR16_OFFSET 00000040

Symbol: PORTA_PCR16_OFFSET
   Definitions



ARM Macro Assembler    Page 72 Alphabetic symbol ordering
Absolute symbols

      At line 1236 in file MKL25Z128xxx4.s
   Uses
      At line 1271 in file MKL25Z128xxx4.s
Comment: PORTA_PCR16_OFFSET used once
PORTA_PCR17 40049044

Symbol: PORTA_PCR17
   Definitions
      At line 1272 in file MKL25Z128xxx4.s
   Uses
      None
Comment: PORTA_PCR17 unused
PORTA_PCR17_OFFSET 00000044

Symbol: PORTA_PCR17_OFFSET
   Definitions
      At line 1237 in file MKL25Z128xxx4.s
   Uses
      At line 1272 in file MKL25Z128xxx4.s
Comment: PORTA_PCR17_OFFSET used once
PORTA_PCR18 40049048

Symbol: PORTA_PCR18
   Definitions
      At line 1273 in file MKL25Z128xxx4.s
   Uses
      None
Comment: PORTA_PCR18 unused
PORTA_PCR18_OFFSET 00000048

Symbol: PORTA_PCR18_OFFSET
   Definitions
      At line 1238 in file MKL25Z128xxx4.s
   Uses
      At line 1273 in file MKL25Z128xxx4.s
Comment: PORTA_PCR18_OFFSET used once
PORTA_PCR19 4004904C

Symbol: PORTA_PCR19
   Definitions
      At line 1274 in file MKL25Z128xxx4.s
   Uses
      None
Comment: PORTA_PCR19 unused
PORTA_PCR19_OFFSET 0000004C

Symbol: PORTA_PCR19_OFFSET
   Definitions
      At line 1239 in file MKL25Z128xxx4.s
   Uses
      At line 1274 in file MKL25Z128xxx4.s
Comment: PORTA_PCR19_OFFSET used once
PORTA_PCR1_OFFSET 00000004

Symbol: PORTA_PCR1_OFFSET
   Definitions
      At line 1221 in file MKL25Z128xxx4.s
   Uses
      At line 1256 in file MKL25Z128xxx4.s



ARM Macro Assembler    Page 73 Alphabetic symbol ordering
Absolute symbols

Comment: PORTA_PCR1_OFFSET used once
PORTA_PCR2 40049008

Symbol: PORTA_PCR2
   Definitions
      At line 1257 in file MKL25Z128xxx4.s
   Uses
      None
Comment: PORTA_PCR2 unused
PORTA_PCR20 40049050

Symbol: PORTA_PCR20
   Definitions
      At line 1275 in file MKL25Z128xxx4.s
   Uses
      None
Comment: PORTA_PCR20 unused
PORTA_PCR20_OFFSET 00000050

Symbol: PORTA_PCR20_OFFSET
   Definitions
      At line 1240 in file MKL25Z128xxx4.s
   Uses
      At line 1275 in file MKL25Z128xxx4.s
Comment: PORTA_PCR20_OFFSET used once
PORTA_PCR21 40049054

Symbol: PORTA_PCR21
   Definitions
      At line 1276 in file MKL25Z128xxx4.s
   Uses
      None
Comment: PORTA_PCR21 unused
PORTA_PCR21_OFFSET 00000054

Symbol: PORTA_PCR21_OFFSET
   Definitions
      At line 1241 in file MKL25Z128xxx4.s
   Uses
      At line 1276 in file MKL25Z128xxx4.s
Comment: PORTA_PCR21_OFFSET used once
PORTA_PCR22 40049058

Symbol: PORTA_PCR22
   Definitions
      At line 1277 in file MKL25Z128xxx4.s
   Uses
      None
Comment: PORTA_PCR22 unused
PORTA_PCR22_OFFSET 00000058

Symbol: PORTA_PCR22_OFFSET
   Definitions
      At line 1242 in file MKL25Z128xxx4.s
   Uses
      At line 1277 in file MKL25Z128xxx4.s
Comment: PORTA_PCR22_OFFSET used once
PORTA_PCR23 4004905C




ARM Macro Assembler    Page 74 Alphabetic symbol ordering
Absolute symbols

Symbol: PORTA_PCR23
   Definitions
      At line 1278 in file MKL25Z128xxx4.s
   Uses
      None
Comment: PORTA_PCR23 unused
PORTA_PCR23_OFFSET 0000005C

Symbol: PORTA_PCR23_OFFSET
   Definitions
      At line 1243 in file MKL25Z128xxx4.s
   Uses
      At line 1278 in file MKL25Z128xxx4.s
Comment: PORTA_PCR23_OFFSET used once
PORTA_PCR24 40049060

Symbol: PORTA_PCR24
   Definitions
      At line 1279 in file MKL25Z128xxx4.s
   Uses
      None
Comment: PORTA_PCR24 unused
PORTA_PCR24_OFFSET 00000060

Symbol: PORTA_PCR24_OFFSET
   Definitions
      At line 1244 in file MKL25Z128xxx4.s
   Uses
      At line 1279 in file MKL25Z128xxx4.s
Comment: PORTA_PCR24_OFFSET used once
PORTA_PCR25 40049064

Symbol: PORTA_PCR25
   Definitions
      At line 1280 in file MKL25Z128xxx4.s
   Uses
      None
Comment: PORTA_PCR25 unused
PORTA_PCR25_OFFSET 00000064

Symbol: PORTA_PCR25_OFFSET
   Definitions
      At line 1245 in file MKL25Z128xxx4.s
   Uses
      At line 1280 in file MKL25Z128xxx4.s
Comment: PORTA_PCR25_OFFSET used once
PORTA_PCR26 40049068

Symbol: PORTA_PCR26
   Definitions
      At line 1281 in file MKL25Z128xxx4.s
   Uses
      None
Comment: PORTA_PCR26 unused
PORTA_PCR26_OFFSET 00000068

Symbol: PORTA_PCR26_OFFSET
   Definitions
      At line 1246 in file MKL25Z128xxx4.s



ARM Macro Assembler    Page 75 Alphabetic symbol ordering
Absolute symbols

   Uses
      At line 1281 in file MKL25Z128xxx4.s
Comment: PORTA_PCR26_OFFSET used once
PORTA_PCR27 4004906C

Symbol: PORTA_PCR27
   Definitions
      At line 1282 in file MKL25Z128xxx4.s
   Uses
      None
Comment: PORTA_PCR27 unused
PORTA_PCR27_OFFSET 0000006C

Symbol: PORTA_PCR27_OFFSET
   Definitions
      At line 1247 in file MKL25Z128xxx4.s
   Uses
      At line 1282 in file MKL25Z128xxx4.s
Comment: PORTA_PCR27_OFFSET used once
PORTA_PCR28 40049070

Symbol: PORTA_PCR28
   Definitions
      At line 1283 in file MKL25Z128xxx4.s
   Uses
      None
Comment: PORTA_PCR28 unused
PORTA_PCR28_OFFSET 00000070

Symbol: PORTA_PCR28_OFFSET
   Definitions
      At line 1248 in file MKL25Z128xxx4.s
   Uses
      At line 1283 in file MKL25Z128xxx4.s
Comment: PORTA_PCR28_OFFSET used once
PORTA_PCR29 40049074

Symbol: PORTA_PCR29
   Definitions
      At line 1284 in file MKL25Z128xxx4.s
   Uses
      None
Comment: PORTA_PCR29 unused
PORTA_PCR29_OFFSET 00000074

Symbol: PORTA_PCR29_OFFSET
   Definitions
      At line 1249 in file MKL25Z128xxx4.s
   Uses
      At line 1284 in file MKL25Z128xxx4.s
Comment: PORTA_PCR29_OFFSET used once
PORTA_PCR2_OFFSET 00000008

Symbol: PORTA_PCR2_OFFSET
   Definitions
      At line 1222 in file MKL25Z128xxx4.s
   Uses
      At line 1257 in file MKL25Z128xxx4.s
Comment: PORTA_PCR2_OFFSET used once



ARM Macro Assembler    Page 76 Alphabetic symbol ordering
Absolute symbols

PORTA_PCR3 4004900C

Symbol: PORTA_PCR3
   Definitions
      At line 1258 in file MKL25Z128xxx4.s
   Uses
      None
Comment: PORTA_PCR3 unused
PORTA_PCR30 40049078

Symbol: PORTA_PCR30
   Definitions
      At line 1285 in file MKL25Z128xxx4.s
   Uses
      None
Comment: PORTA_PCR30 unused
PORTA_PCR30_OFFSET 00000078

Symbol: PORTA_PCR30_OFFSET
   Definitions
      At line 1250 in file MKL25Z128xxx4.s
   Uses
      At line 1285 in file MKL25Z128xxx4.s
Comment: PORTA_PCR30_OFFSET used once
PORTA_PCR31 4004907C

Symbol: PORTA_PCR31
   Definitions
      At line 1286 in file MKL25Z128xxx4.s
   Uses
      None
Comment: PORTA_PCR31 unused
PORTA_PCR31_OFFSET 0000007C

Symbol: PORTA_PCR31_OFFSET
   Definitions
      At line 1251 in file MKL25Z128xxx4.s
   Uses
      At line 1286 in file MKL25Z128xxx4.s
Comment: PORTA_PCR31_OFFSET used once
PORTA_PCR3_OFFSET 0000000C

Symbol: PORTA_PCR3_OFFSET
   Definitions
      At line 1223 in file MKL25Z128xxx4.s
   Uses
      At line 1258 in file MKL25Z128xxx4.s
Comment: PORTA_PCR3_OFFSET used once
PORTA_PCR4 40049010

Symbol: PORTA_PCR4
   Definitions
      At line 1259 in file MKL25Z128xxx4.s
   Uses
      None
Comment: PORTA_PCR4 unused
PORTA_PCR4_OFFSET 00000010

Symbol: PORTA_PCR4_OFFSET



ARM Macro Assembler    Page 77 Alphabetic symbol ordering
Absolute symbols

   Definitions
      At line 1224 in file MKL25Z128xxx4.s
   Uses
      At line 1259 in file MKL25Z128xxx4.s
Comment: PORTA_PCR4_OFFSET used once
PORTA_PCR5 40049014

Symbol: PORTA_PCR5
   Definitions
      At line 1260 in file MKL25Z128xxx4.s
   Uses
      None
Comment: PORTA_PCR5 unused
PORTA_PCR5_OFFSET 00000014

Symbol: PORTA_PCR5_OFFSET
   Definitions
      At line 1225 in file MKL25Z128xxx4.s
   Uses
      At line 1260 in file MKL25Z128xxx4.s
Comment: PORTA_PCR5_OFFSET used once
PORTA_PCR6 40049018

Symbol: PORTA_PCR6
   Definitions
      At line 1261 in file MKL25Z128xxx4.s
   Uses
      None
Comment: PORTA_PCR6 unused
PORTA_PCR6_OFFSET 00000018

Symbol: PORTA_PCR6_OFFSET
   Definitions
      At line 1226 in file MKL25Z128xxx4.s
   Uses
      At line 1261 in file MKL25Z128xxx4.s
Comment: PORTA_PCR6_OFFSET used once
PORTA_PCR7 4004901C

Symbol: PORTA_PCR7
   Definitions
      At line 1262 in file MKL25Z128xxx4.s
   Uses
      None
Comment: PORTA_PCR7 unused
PORTA_PCR7_OFFSET 0000001C

Symbol: PORTA_PCR7_OFFSET
   Definitions
      At line 1227 in file MKL25Z128xxx4.s
   Uses
      At line 1262 in file MKL25Z128xxx4.s
Comment: PORTA_PCR7_OFFSET used once
PORTA_PCR8 40049020

Symbol: PORTA_PCR8
   Definitions
      At line 1263 in file MKL25Z128xxx4.s
   Uses



ARM Macro Assembler    Page 78 Alphabetic symbol ordering
Absolute symbols

      None
Comment: PORTA_PCR8 unused
PORTA_PCR8_OFFSET 00000020

Symbol: PORTA_PCR8_OFFSET
   Definitions
      At line 1228 in file MKL25Z128xxx4.s
   Uses
      At line 1263 in file MKL25Z128xxx4.s
Comment: PORTA_PCR8_OFFSET used once
PORTA_PCR9 40049024

Symbol: PORTA_PCR9
   Definitions
      At line 1264 in file MKL25Z128xxx4.s
   Uses
      None
Comment: PORTA_PCR9 unused
PORTA_PCR9_OFFSET 00000024

Symbol: PORTA_PCR9_OFFSET
   Definitions
      At line 1229 in file MKL25Z128xxx4.s
   Uses
      At line 1264 in file MKL25Z128xxx4.s
Comment: PORTA_PCR9_OFFSET used once
PORTA_PRI_POS 00000016

Symbol: PORTA_PRI_POS
   Definitions
      At line 965 in file MKL25Z128xxx4.s
   Uses
      None
Comment: PORTA_PRI_POS unused
PORTA_Vector 0000002E

Symbol: PORTA_Vector
   Definitions
      At line 1083 in file MKL25Z128xxx4.s
   Uses
      None
Comment: PORTA_Vector unused
PORTB_BASE 4004A000

Symbol: PORTB_BASE
   Definitions
      At line 1292 in file MKL25Z128xxx4.s
   Uses
      At line 1328 in file MKL25Z128xxx4.s
      At line 1329 in file MKL25Z128xxx4.s
      At line 1330 in file MKL25Z128xxx4.s
      At line 1331 in file MKL25Z128xxx4.s
      At line 1332 in file MKL25Z128xxx4.s
      At line 1333 in file MKL25Z128xxx4.s
      At line 1334 in file MKL25Z128xxx4.s
      At line 1335 in file MKL25Z128xxx4.s
      At line 1336 in file MKL25Z128xxx4.s
      At line 1337 in file MKL25Z128xxx4.s
      At line 1338 in file MKL25Z128xxx4.s



ARM Macro Assembler    Page 79 Alphabetic symbol ordering
Absolute symbols

      At line 1339 in file MKL25Z128xxx4.s
      At line 1340 in file MKL25Z128xxx4.s
      At line 1341 in file MKL25Z128xxx4.s
      At line 1342 in file MKL25Z128xxx4.s
      At line 1343 in file MKL25Z128xxx4.s
      At line 1344 in file MKL25Z128xxx4.s
      At line 1345 in file MKL25Z128xxx4.s
      At line 1346 in file MKL25Z128xxx4.s
      At line 1347 in file MKL25Z128xxx4.s
      At line 1348 in file MKL25Z128xxx4.s
      At line 1349 in file MKL25Z128xxx4.s
      At line 1350 in file MKL25Z128xxx4.s
      At line 1351 in file MKL25Z128xxx4.s
      At line 1352 in file MKL25Z128xxx4.s
      At line 1353 in file MKL25Z128xxx4.s
      At line 1354 in file MKL25Z128xxx4.s
      At line 1355 in file MKL25Z128xxx4.s
      At line 1356 in file MKL25Z128xxx4.s
      At line 1357 in file MKL25Z128xxx4.s
      At line 1358 in file MKL25Z128xxx4.s
      At line 1359 in file MKL25Z128xxx4.s
      At line 1360 in file MKL25Z128xxx4.s
      At line 1361 in file MKL25Z128xxx4.s
      At line 1362 in file MKL25Z128xxx4.s

PORTB_GPCHR 4004A084

Symbol: PORTB_GPCHR
   Definitions
      At line 1361 in file MKL25Z128xxx4.s
   Uses
      None
Comment: PORTB_GPCHR unused
PORTB_GPCHR_OFFSET 00000084

Symbol: PORTB_GPCHR_OFFSET
   Definitions
      At line 1326 in file MKL25Z128xxx4.s
   Uses
      At line 1361 in file MKL25Z128xxx4.s
Comment: PORTB_GPCHR_OFFSET used once
PORTB_GPCLR 4004A080

Symbol: PORTB_GPCLR
   Definitions
      At line 1360 in file MKL25Z128xxx4.s
   Uses
      None
Comment: PORTB_GPCLR unused
PORTB_GPCLR_OFFSET 00000080

Symbol: PORTB_GPCLR_OFFSET
   Definitions
      At line 1325 in file MKL25Z128xxx4.s
   Uses
      At line 1360 in file MKL25Z128xxx4.s
Comment: PORTB_GPCLR_OFFSET used once
PORTB_ISFR 4004A0A0




ARM Macro Assembler    Page 80 Alphabetic symbol ordering
Absolute symbols

Symbol: PORTB_ISFR
   Definitions
      At line 1362 in file MKL25Z128xxx4.s
   Uses
      None
Comment: PORTB_ISFR unused
PORTB_ISFR_OFFSET 000000A0

Symbol: PORTB_ISFR_OFFSET
   Definitions
      At line 1327 in file MKL25Z128xxx4.s
   Uses
      At line 1362 in file MKL25Z128xxx4.s
Comment: PORTB_ISFR_OFFSET used once
PORTB_PCR0 4004A000

Symbol: PORTB_PCR0
   Definitions
      At line 1328 in file MKL25Z128xxx4.s
   Uses
      None
Comment: PORTB_PCR0 unused
PORTB_PCR0_OFFSET 00000000

Symbol: PORTB_PCR0_OFFSET
   Definitions
      At line 1293 in file MKL25Z128xxx4.s
   Uses
      At line 1328 in file MKL25Z128xxx4.s
Comment: PORTB_PCR0_OFFSET used once
PORTB_PCR1 4004A004

Symbol: PORTB_PCR1
   Definitions
      At line 1329 in file MKL25Z128xxx4.s
   Uses
      None
Comment: PORTB_PCR1 unused
PORTB_PCR10 4004A028

Symbol: PORTB_PCR10
   Definitions
      At line 1338 in file MKL25Z128xxx4.s
   Uses
      None
Comment: PORTB_PCR10 unused
PORTB_PCR10_OFFSET 00000028

Symbol: PORTB_PCR10_OFFSET
   Definitions
      At line 1303 in file MKL25Z128xxx4.s
   Uses
      At line 1338 in file MKL25Z128xxx4.s
Comment: PORTB_PCR10_OFFSET used once
PORTB_PCR11 4004A02C

Symbol: PORTB_PCR11
   Definitions
      At line 1339 in file MKL25Z128xxx4.s



ARM Macro Assembler    Page 81 Alphabetic symbol ordering
Absolute symbols

   Uses
      None
Comment: PORTB_PCR11 unused
PORTB_PCR11_OFFSET 0000002C

Symbol: PORTB_PCR11_OFFSET
   Definitions
      At line 1304 in file MKL25Z128xxx4.s
   Uses
      At line 1339 in file MKL25Z128xxx4.s
Comment: PORTB_PCR11_OFFSET used once
PORTB_PCR12 4004A030

Symbol: PORTB_PCR12
   Definitions
      At line 1340 in file MKL25Z128xxx4.s
   Uses
      None
Comment: PORTB_PCR12 unused
PORTB_PCR12_OFFSET 00000030

Symbol: PORTB_PCR12_OFFSET
   Definitions
      At line 1305 in file MKL25Z128xxx4.s
   Uses
      At line 1340 in file MKL25Z128xxx4.s
Comment: PORTB_PCR12_OFFSET used once
PORTB_PCR13 4004A034

Symbol: PORTB_PCR13
   Definitions
      At line 1341 in file MKL25Z128xxx4.s
   Uses
      None
Comment: PORTB_PCR13 unused
PORTB_PCR13_OFFSET 00000034

Symbol: PORTB_PCR13_OFFSET
   Definitions
      At line 1306 in file MKL25Z128xxx4.s
   Uses
      At line 1341 in file MKL25Z128xxx4.s
Comment: PORTB_PCR13_OFFSET used once
PORTB_PCR14 4004A038

Symbol: PORTB_PCR14
   Definitions
      At line 1342 in file MKL25Z128xxx4.s
   Uses
      None
Comment: PORTB_PCR14 unused
PORTB_PCR14_OFFSET 00000038

Symbol: PORTB_PCR14_OFFSET
   Definitions
      At line 1307 in file MKL25Z128xxx4.s
   Uses
      At line 1342 in file MKL25Z128xxx4.s
Comment: PORTB_PCR14_OFFSET used once



ARM Macro Assembler    Page 82 Alphabetic symbol ordering
Absolute symbols

PORTB_PCR15 4004A03C

Symbol: PORTB_PCR15
   Definitions
      At line 1343 in file MKL25Z128xxx4.s
   Uses
      None
Comment: PORTB_PCR15 unused
PORTB_PCR15_OFFSET 0000003C

Symbol: PORTB_PCR15_OFFSET
   Definitions
      At line 1308 in file MKL25Z128xxx4.s
   Uses
      At line 1343 in file MKL25Z128xxx4.s
Comment: PORTB_PCR15_OFFSET used once
PORTB_PCR16 4004A040

Symbol: PORTB_PCR16
   Definitions
      At line 1344 in file MKL25Z128xxx4.s
   Uses
      None
Comment: PORTB_PCR16 unused
PORTB_PCR16_OFFSET 00000040

Symbol: PORTB_PCR16_OFFSET
   Definitions
      At line 1309 in file MKL25Z128xxx4.s
   Uses
      At line 1344 in file MKL25Z128xxx4.s
Comment: PORTB_PCR16_OFFSET used once
PORTB_PCR17 4004A044

Symbol: PORTB_PCR17
   Definitions
      At line 1345 in file MKL25Z128xxx4.s
   Uses
      None
Comment: PORTB_PCR17 unused
PORTB_PCR17_OFFSET 00000044

Symbol: PORTB_PCR17_OFFSET
   Definitions
      At line 1310 in file MKL25Z128xxx4.s
   Uses
      At line 1345 in file MKL25Z128xxx4.s
Comment: PORTB_PCR17_OFFSET used once
PORTB_PCR18 4004A048

Symbol: PORTB_PCR18
   Definitions
      At line 1346 in file MKL25Z128xxx4.s
   Uses
      None
Comment: PORTB_PCR18 unused
PORTB_PCR18_OFFSET 00000048

Symbol: PORTB_PCR18_OFFSET



ARM Macro Assembler    Page 83 Alphabetic symbol ordering
Absolute symbols

   Definitions
      At line 1311 in file MKL25Z128xxx4.s
   Uses
      At line 1346 in file MKL25Z128xxx4.s
Comment: PORTB_PCR18_OFFSET used once
PORTB_PCR19 4004A04C

Symbol: PORTB_PCR19
   Definitions
      At line 1347 in file MKL25Z128xxx4.s
   Uses
      None
Comment: PORTB_PCR19 unused
PORTB_PCR19_OFFSET 0000004C

Symbol: PORTB_PCR19_OFFSET
   Definitions
      At line 1312 in file MKL25Z128xxx4.s
   Uses
      At line 1347 in file MKL25Z128xxx4.s
Comment: PORTB_PCR19_OFFSET used once
PORTB_PCR1_OFFSET 00000004

Symbol: PORTB_PCR1_OFFSET
   Definitions
      At line 1294 in file MKL25Z128xxx4.s
   Uses
      At line 1329 in file MKL25Z128xxx4.s
Comment: PORTB_PCR1_OFFSET used once
PORTB_PCR2 4004A008

Symbol: PORTB_PCR2
   Definitions
      At line 1330 in file MKL25Z128xxx4.s
   Uses
      None
Comment: PORTB_PCR2 unused
PORTB_PCR20 4004A050

Symbol: PORTB_PCR20
   Definitions
      At line 1348 in file MKL25Z128xxx4.s
   Uses
      None
Comment: PORTB_PCR20 unused
PORTB_PCR20_OFFSET 00000050

Symbol: PORTB_PCR20_OFFSET
   Definitions
      At line 1313 in file MKL25Z128xxx4.s
   Uses
      At line 1348 in file MKL25Z128xxx4.s
Comment: PORTB_PCR20_OFFSET used once
PORTB_PCR21 4004A054

Symbol: PORTB_PCR21
   Definitions
      At line 1349 in file MKL25Z128xxx4.s
   Uses



ARM Macro Assembler    Page 84 Alphabetic symbol ordering
Absolute symbols

      None
Comment: PORTB_PCR21 unused
PORTB_PCR21_OFFSET 00000054

Symbol: PORTB_PCR21_OFFSET
   Definitions
      At line 1314 in file MKL25Z128xxx4.s
   Uses
      At line 1349 in file MKL25Z128xxx4.s
Comment: PORTB_PCR21_OFFSET used once
PORTB_PCR22 4004A058

Symbol: PORTB_PCR22
   Definitions
      At line 1350 in file MKL25Z128xxx4.s
   Uses
      None
Comment: PORTB_PCR22 unused
PORTB_PCR22_OFFSET 00000058

Symbol: PORTB_PCR22_OFFSET
   Definitions
      At line 1315 in file MKL25Z128xxx4.s
   Uses
      At line 1350 in file MKL25Z128xxx4.s
Comment: PORTB_PCR22_OFFSET used once
PORTB_PCR23 4004A05C

Symbol: PORTB_PCR23
   Definitions
      At line 1351 in file MKL25Z128xxx4.s
   Uses
      None
Comment: PORTB_PCR23 unused
PORTB_PCR23_OFFSET 0000005C

Symbol: PORTB_PCR23_OFFSET
   Definitions
      At line 1316 in file MKL25Z128xxx4.s
   Uses
      At line 1351 in file MKL25Z128xxx4.s
Comment: PORTB_PCR23_OFFSET used once
PORTB_PCR24 4004A060

Symbol: PORTB_PCR24
   Definitions
      At line 1352 in file MKL25Z128xxx4.s
   Uses
      None
Comment: PORTB_PCR24 unused
PORTB_PCR24_OFFSET 00000060

Symbol: PORTB_PCR24_OFFSET
   Definitions
      At line 1317 in file MKL25Z128xxx4.s
   Uses
      At line 1352 in file MKL25Z128xxx4.s
Comment: PORTB_PCR24_OFFSET used once
PORTB_PCR25 4004A064



ARM Macro Assembler    Page 85 Alphabetic symbol ordering
Absolute symbols


Symbol: PORTB_PCR25
   Definitions
      At line 1353 in file MKL25Z128xxx4.s
   Uses
      None
Comment: PORTB_PCR25 unused
PORTB_PCR25_OFFSET 00000064

Symbol: PORTB_PCR25_OFFSET
   Definitions
      At line 1318 in file MKL25Z128xxx4.s
   Uses
      At line 1353 in file MKL25Z128xxx4.s
Comment: PORTB_PCR25_OFFSET used once
PORTB_PCR26 4004A068

Symbol: PORTB_PCR26
   Definitions
      At line 1354 in file MKL25Z128xxx4.s
   Uses
      None
Comment: PORTB_PCR26 unused
PORTB_PCR26_OFFSET 00000068

Symbol: PORTB_PCR26_OFFSET
   Definitions
      At line 1319 in file MKL25Z128xxx4.s
   Uses
      At line 1354 in file MKL25Z128xxx4.s
Comment: PORTB_PCR26_OFFSET used once
PORTB_PCR27 4004A06C

Symbol: PORTB_PCR27
   Definitions
      At line 1355 in file MKL25Z128xxx4.s
   Uses
      None
Comment: PORTB_PCR27 unused
PORTB_PCR27_OFFSET 0000006C

Symbol: PORTB_PCR27_OFFSET
   Definitions
      At line 1320 in file MKL25Z128xxx4.s
   Uses
      At line 1355 in file MKL25Z128xxx4.s
Comment: PORTB_PCR27_OFFSET used once
PORTB_PCR28 4004A070

Symbol: PORTB_PCR28
   Definitions
      At line 1356 in file MKL25Z128xxx4.s
   Uses
      None
Comment: PORTB_PCR28 unused
PORTB_PCR28_OFFSET 00000070

Symbol: PORTB_PCR28_OFFSET
   Definitions



ARM Macro Assembler    Page 86 Alphabetic symbol ordering
Absolute symbols

      At line 1321 in file MKL25Z128xxx4.s
   Uses
      At line 1356 in file MKL25Z128xxx4.s
Comment: PORTB_PCR28_OFFSET used once
PORTB_PCR29 4004A074

Symbol: PORTB_PCR29
   Definitions
      At line 1357 in file MKL25Z128xxx4.s
   Uses
      None
Comment: PORTB_PCR29 unused
PORTB_PCR29_OFFSET 00000074

Symbol: PORTB_PCR29_OFFSET
   Definitions
      At line 1322 in file MKL25Z128xxx4.s
   Uses
      At line 1357 in file MKL25Z128xxx4.s
Comment: PORTB_PCR29_OFFSET used once
PORTB_PCR2_OFFSET 00000008

Symbol: PORTB_PCR2_OFFSET
   Definitions
      At line 1295 in file MKL25Z128xxx4.s
   Uses
      At line 1330 in file MKL25Z128xxx4.s
Comment: PORTB_PCR2_OFFSET used once
PORTB_PCR3 4004A00C

Symbol: PORTB_PCR3
   Definitions
      At line 1331 in file MKL25Z128xxx4.s
   Uses
      None
Comment: PORTB_PCR3 unused
PORTB_PCR30 4004A078

Symbol: PORTB_PCR30
   Definitions
      At line 1358 in file MKL25Z128xxx4.s
   Uses
      None
Comment: PORTB_PCR30 unused
PORTB_PCR30_OFFSET 00000078

Symbol: PORTB_PCR30_OFFSET
   Definitions
      At line 1323 in file MKL25Z128xxx4.s
   Uses
      At line 1358 in file MKL25Z128xxx4.s
Comment: PORTB_PCR30_OFFSET used once
PORTB_PCR31 4004A07C

Symbol: PORTB_PCR31
   Definitions
      At line 1359 in file MKL25Z128xxx4.s
   Uses
      None



ARM Macro Assembler    Page 87 Alphabetic symbol ordering
Absolute symbols

Comment: PORTB_PCR31 unused
PORTB_PCR31_OFFSET 0000007C

Symbol: PORTB_PCR31_OFFSET
   Definitions
      At line 1324 in file MKL25Z128xxx4.s
   Uses
      At line 1359 in file MKL25Z128xxx4.s
Comment: PORTB_PCR31_OFFSET used once
PORTB_PCR3_OFFSET 0000000C

Symbol: PORTB_PCR3_OFFSET
   Definitions
      At line 1296 in file MKL25Z128xxx4.s
   Uses
      At line 1331 in file MKL25Z128xxx4.s
Comment: PORTB_PCR3_OFFSET used once
PORTB_PCR4 4004A010

Symbol: PORTB_PCR4
   Definitions
      At line 1332 in file MKL25Z128xxx4.s
   Uses
      None
Comment: PORTB_PCR4 unused
PORTB_PCR4_OFFSET 00000010

Symbol: PORTB_PCR4_OFFSET
   Definitions
      At line 1297 in file MKL25Z128xxx4.s
   Uses
      At line 1332 in file MKL25Z128xxx4.s
Comment: PORTB_PCR4_OFFSET used once
PORTB_PCR5 4004A014

Symbol: PORTB_PCR5
   Definitions
      At line 1333 in file MKL25Z128xxx4.s
   Uses
      None
Comment: PORTB_PCR5 unused
PORTB_PCR5_OFFSET 00000014

Symbol: PORTB_PCR5_OFFSET
   Definitions
      At line 1298 in file MKL25Z128xxx4.s
   Uses
      At line 1333 in file MKL25Z128xxx4.s
Comment: PORTB_PCR5_OFFSET used once
PORTB_PCR6 4004A018

Symbol: PORTB_PCR6
   Definitions
      At line 1334 in file MKL25Z128xxx4.s
   Uses
      None
Comment: PORTB_PCR6 unused
PORTB_PCR6_OFFSET 00000018




ARM Macro Assembler    Page 88 Alphabetic symbol ordering
Absolute symbols

Symbol: PORTB_PCR6_OFFSET
   Definitions
      At line 1299 in file MKL25Z128xxx4.s
   Uses
      At line 1334 in file MKL25Z128xxx4.s
Comment: PORTB_PCR6_OFFSET used once
PORTB_PCR7 4004A01C

Symbol: PORTB_PCR7
   Definitions
      At line 1335 in file MKL25Z128xxx4.s
   Uses
      None
Comment: PORTB_PCR7 unused
PORTB_PCR7_OFFSET 0000001C

Symbol: PORTB_PCR7_OFFSET
   Definitions
      At line 1300 in file MKL25Z128xxx4.s
   Uses
      At line 1335 in file MKL25Z128xxx4.s
Comment: PORTB_PCR7_OFFSET used once
PORTB_PCR8 4004A020

Symbol: PORTB_PCR8
   Definitions
      At line 1336 in file MKL25Z128xxx4.s
   Uses
      None
Comment: PORTB_PCR8 unused
PORTB_PCR8_OFFSET 00000020

Symbol: PORTB_PCR8_OFFSET
   Definitions
      At line 1301 in file MKL25Z128xxx4.s
   Uses
      At line 1336 in file MKL25Z128xxx4.s
Comment: PORTB_PCR8_OFFSET used once
PORTB_PCR9 4004A024

Symbol: PORTB_PCR9
   Definitions
      At line 1337 in file MKL25Z128xxx4.s
   Uses
      None
Comment: PORTB_PCR9 unused
PORTB_PCR9_OFFSET 00000024

Symbol: PORTB_PCR9_OFFSET
   Definitions
      At line 1302 in file MKL25Z128xxx4.s
   Uses
      At line 1337 in file MKL25Z128xxx4.s
Comment: PORTB_PCR9_OFFSET used once
PORTCCGC_MASK 00000800

Symbol: PORTCCGC_MASK
   Definitions
      At line 91 in file ServoControl.s



ARM Macro Assembler    Page 89 Alphabetic symbol ordering
Absolute symbols

   Uses
      At line 761 in file ServoControl.s
Comment: PORTCCGC_MASK used once
PORTC_BASE 4004B000

Symbol: PORTC_BASE
   Definitions
      At line 1365 in file MKL25Z128xxx4.s
   Uses
      At line 1401 in file MKL25Z128xxx4.s
      At line 1402 in file MKL25Z128xxx4.s
      At line 1403 in file MKL25Z128xxx4.s
      At line 1404 in file MKL25Z128xxx4.s
      At line 1405 in file MKL25Z128xxx4.s
      At line 1406 in file MKL25Z128xxx4.s
      At line 1407 in file MKL25Z128xxx4.s
      At line 1408 in file MKL25Z128xxx4.s
      At line 1409 in file MKL25Z128xxx4.s
      At line 1410 in file MKL25Z128xxx4.s
      At line 1411 in file MKL25Z128xxx4.s
      At line 1412 in file MKL25Z128xxx4.s
      At line 1413 in file MKL25Z128xxx4.s
      At line 1414 in file MKL25Z128xxx4.s
      At line 1415 in file MKL25Z128xxx4.s
      At line 1416 in file MKL25Z128xxx4.s
      At line 1417 in file MKL25Z128xxx4.s
      At line 1418 in file MKL25Z128xxx4.s
      At line 1419 in file MKL25Z128xxx4.s
      At line 1420 in file MKL25Z128xxx4.s
      At line 1421 in file MKL25Z128xxx4.s
      At line 1422 in file MKL25Z128xxx4.s
      At line 1423 in file MKL25Z128xxx4.s
      At line 1424 in file MKL25Z128xxx4.s
      At line 1425 in file MKL25Z128xxx4.s
      At line 1426 in file MKL25Z128xxx4.s
      At line 1427 in file MKL25Z128xxx4.s
      At line 1428 in file MKL25Z128xxx4.s
      At line 1429 in file MKL25Z128xxx4.s
      At line 1430 in file MKL25Z128xxx4.s
      At line 1431 in file MKL25Z128xxx4.s
      At line 1432 in file MKL25Z128xxx4.s
      At line 1433 in file MKL25Z128xxx4.s
      At line 1434 in file MKL25Z128xxx4.s
      At line 1435 in file MKL25Z128xxx4.s

PORTC_GPCHR 4004B084

Symbol: PORTC_GPCHR
   Definitions
      At line 1434 in file MKL25Z128xxx4.s
   Uses
      None
Comment: PORTC_GPCHR unused
PORTC_GPCHR_OFFSET 00000084

Symbol: PORTC_GPCHR_OFFSET
   Definitions
      At line 1399 in file MKL25Z128xxx4.s
   Uses



ARM Macro Assembler    Page 90 Alphabetic symbol ordering
Absolute symbols

      At line 1434 in file MKL25Z128xxx4.s
Comment: PORTC_GPCHR_OFFSET used once
PORTC_GPCLR 4004B080

Symbol: PORTC_GPCLR
   Definitions
      At line 1433 in file MKL25Z128xxx4.s
   Uses
      None
Comment: PORTC_GPCLR unused
PORTC_GPCLR_OFFSET 00000080

Symbol: PORTC_GPCLR_OFFSET
   Definitions
      At line 1398 in file MKL25Z128xxx4.s
   Uses
      At line 1433 in file MKL25Z128xxx4.s
Comment: PORTC_GPCLR_OFFSET used once
PORTC_ISFR 4004B0A0

Symbol: PORTC_ISFR
   Definitions
      At line 1435 in file MKL25Z128xxx4.s
   Uses
      None
Comment: PORTC_ISFR unused
PORTC_ISFR_OFFSET 000000A0

Symbol: PORTC_ISFR_OFFSET
   Definitions
      At line 1400 in file MKL25Z128xxx4.s
   Uses
      At line 1435 in file MKL25Z128xxx4.s
Comment: PORTC_ISFR_OFFSET used once
PORTC_PCR0 4004B000

Symbol: PORTC_PCR0
   Definitions
      At line 1401 in file MKL25Z128xxx4.s
   Uses
      None
Comment: PORTC_PCR0 unused
PORTC_PCR0_OFFSET 00000000

Symbol: PORTC_PCR0_OFFSET
   Definitions
      At line 1366 in file MKL25Z128xxx4.s
   Uses
      At line 1401 in file MKL25Z128xxx4.s
Comment: PORTC_PCR0_OFFSET used once
PORTC_PCR1 4004B004

Symbol: PORTC_PCR1
   Definitions
      At line 1402 in file MKL25Z128xxx4.s
   Uses
      None
Comment: PORTC_PCR1 unused
PORTC_PCR10 4004B028



ARM Macro Assembler    Page 91 Alphabetic symbol ordering
Absolute symbols


Symbol: PORTC_PCR10
   Definitions
      At line 1411 in file MKL25Z128xxx4.s
   Uses
      None
Comment: PORTC_PCR10 unused
PORTC_PCR10_OFFSET 00000028

Symbol: PORTC_PCR10_OFFSET
   Definitions
      At line 1376 in file MKL25Z128xxx4.s
   Uses
      At line 1411 in file MKL25Z128xxx4.s
Comment: PORTC_PCR10_OFFSET used once
PORTC_PCR11 4004B02C

Symbol: PORTC_PCR11
   Definitions
      At line 1412 in file MKL25Z128xxx4.s
   Uses
      None
Comment: PORTC_PCR11 unused
PORTC_PCR11_OFFSET 0000002C

Symbol: PORTC_PCR11_OFFSET
   Definitions
      At line 1377 in file MKL25Z128xxx4.s
   Uses
      At line 1412 in file MKL25Z128xxx4.s
Comment: PORTC_PCR11_OFFSET used once
PORTC_PCR12 4004B030

Symbol: PORTC_PCR12
   Definitions
      At line 1413 in file MKL25Z128xxx4.s
   Uses
      None
Comment: PORTC_PCR12 unused
PORTC_PCR12_OFFSET 00000030

Symbol: PORTC_PCR12_OFFSET
   Definitions
      At line 1378 in file MKL25Z128xxx4.s
   Uses
      At line 1413 in file MKL25Z128xxx4.s
Comment: PORTC_PCR12_OFFSET used once
PORTC_PCR13 4004B034

Symbol: PORTC_PCR13
   Definitions
      At line 1414 in file MKL25Z128xxx4.s
   Uses
      None
Comment: PORTC_PCR13 unused
PORTC_PCR13_OFFSET 00000034

Symbol: PORTC_PCR13_OFFSET
   Definitions



ARM Macro Assembler    Page 92 Alphabetic symbol ordering
Absolute symbols

      At line 1379 in file MKL25Z128xxx4.s
   Uses
      At line 1414 in file MKL25Z128xxx4.s
Comment: PORTC_PCR13_OFFSET used once
PORTC_PCR14 4004B038

Symbol: PORTC_PCR14
   Definitions
      At line 1415 in file MKL25Z128xxx4.s
   Uses
      None
Comment: PORTC_PCR14 unused
PORTC_PCR14_OFFSET 00000038

Symbol: PORTC_PCR14_OFFSET
   Definitions
      At line 1380 in file MKL25Z128xxx4.s
   Uses
      At line 1415 in file MKL25Z128xxx4.s
Comment: PORTC_PCR14_OFFSET used once
PORTC_PCR15 4004B03C

Symbol: PORTC_PCR15
   Definitions
      At line 1416 in file MKL25Z128xxx4.s
   Uses
      None
Comment: PORTC_PCR15 unused
PORTC_PCR15_OFFSET 0000003C

Symbol: PORTC_PCR15_OFFSET
   Definitions
      At line 1381 in file MKL25Z128xxx4.s
   Uses
      At line 1416 in file MKL25Z128xxx4.s
Comment: PORTC_PCR15_OFFSET used once
PORTC_PCR16 4004B040

Symbol: PORTC_PCR16
   Definitions
      At line 1417 in file MKL25Z128xxx4.s
   Uses
      None
Comment: PORTC_PCR16 unused
PORTC_PCR16_OFFSET 00000040

Symbol: PORTC_PCR16_OFFSET
   Definitions
      At line 1382 in file MKL25Z128xxx4.s
   Uses
      At line 1417 in file MKL25Z128xxx4.s
Comment: PORTC_PCR16_OFFSET used once
PORTC_PCR17 4004B044

Symbol: PORTC_PCR17
   Definitions
      At line 1418 in file MKL25Z128xxx4.s
   Uses
      None



ARM Macro Assembler    Page 93 Alphabetic symbol ordering
Absolute symbols

Comment: PORTC_PCR17 unused
PORTC_PCR17_OFFSET 00000044

Symbol: PORTC_PCR17_OFFSET
   Definitions
      At line 1383 in file MKL25Z128xxx4.s
   Uses
      At line 1418 in file MKL25Z128xxx4.s
Comment: PORTC_PCR17_OFFSET used once
PORTC_PCR18 4004B048

Symbol: PORTC_PCR18
   Definitions
      At line 1419 in file MKL25Z128xxx4.s
   Uses
      None
Comment: PORTC_PCR18 unused
PORTC_PCR18_OFFSET 00000048

Symbol: PORTC_PCR18_OFFSET
   Definitions
      At line 1384 in file MKL25Z128xxx4.s
   Uses
      At line 1419 in file MKL25Z128xxx4.s
Comment: PORTC_PCR18_OFFSET used once
PORTC_PCR19 4004B04C

Symbol: PORTC_PCR19
   Definitions
      At line 1420 in file MKL25Z128xxx4.s
   Uses
      None
Comment: PORTC_PCR19 unused
PORTC_PCR19_OFFSET 0000004C

Symbol: PORTC_PCR19_OFFSET
   Definitions
      At line 1385 in file MKL25Z128xxx4.s
   Uses
      At line 1420 in file MKL25Z128xxx4.s
Comment: PORTC_PCR19_OFFSET used once
PORTC_PCR1_OFFSET 00000004

Symbol: PORTC_PCR1_OFFSET
   Definitions
      At line 1367 in file MKL25Z128xxx4.s
   Uses
      At line 1402 in file MKL25Z128xxx4.s
Comment: PORTC_PCR1_OFFSET used once
PORTC_PCR2 4004B008

Symbol: PORTC_PCR2
   Definitions
      At line 1403 in file MKL25Z128xxx4.s
   Uses
      None
Comment: PORTC_PCR2 unused
PORTC_PCR20 4004B050




ARM Macro Assembler    Page 94 Alphabetic symbol ordering
Absolute symbols

Symbol: PORTC_PCR20
   Definitions
      At line 1421 in file MKL25Z128xxx4.s
   Uses
      None
Comment: PORTC_PCR20 unused
PORTC_PCR20_OFFSET 00000050

Symbol: PORTC_PCR20_OFFSET
   Definitions
      At line 1386 in file MKL25Z128xxx4.s
   Uses
      At line 1421 in file MKL25Z128xxx4.s
Comment: PORTC_PCR20_OFFSET used once
PORTC_PCR21 4004B054

Symbol: PORTC_PCR21
   Definitions
      At line 1422 in file MKL25Z128xxx4.s
   Uses
      None
Comment: PORTC_PCR21 unused
PORTC_PCR21_OFFSET 00000054

Symbol: PORTC_PCR21_OFFSET
   Definitions
      At line 1387 in file MKL25Z128xxx4.s
   Uses
      At line 1422 in file MKL25Z128xxx4.s
Comment: PORTC_PCR21_OFFSET used once
PORTC_PCR22 4004B058

Symbol: PORTC_PCR22
   Definitions
      At line 1423 in file MKL25Z128xxx4.s
   Uses
      None
Comment: PORTC_PCR22 unused
PORTC_PCR22_OFFSET 00000058

Symbol: PORTC_PCR22_OFFSET
   Definitions
      At line 1388 in file MKL25Z128xxx4.s
   Uses
      At line 1423 in file MKL25Z128xxx4.s
Comment: PORTC_PCR22_OFFSET used once
PORTC_PCR23 4004B05C

Symbol: PORTC_PCR23
   Definitions
      At line 1424 in file MKL25Z128xxx4.s
   Uses
      None
Comment: PORTC_PCR23 unused
PORTC_PCR23_OFFSET 0000005C

Symbol: PORTC_PCR23_OFFSET
   Definitions
      At line 1389 in file MKL25Z128xxx4.s



ARM Macro Assembler    Page 95 Alphabetic symbol ordering
Absolute symbols

   Uses
      At line 1424 in file MKL25Z128xxx4.s
Comment: PORTC_PCR23_OFFSET used once
PORTC_PCR24 4004B060

Symbol: PORTC_PCR24
   Definitions
      At line 1425 in file MKL25Z128xxx4.s
   Uses
      None
Comment: PORTC_PCR24 unused
PORTC_PCR24_OFFSET 00000060

Symbol: PORTC_PCR24_OFFSET
   Definitions
      At line 1390 in file MKL25Z128xxx4.s
   Uses
      At line 1425 in file MKL25Z128xxx4.s
Comment: PORTC_PCR24_OFFSET used once
PORTC_PCR25 4004B064

Symbol: PORTC_PCR25
   Definitions
      At line 1426 in file MKL25Z128xxx4.s
   Uses
      None
Comment: PORTC_PCR25 unused
PORTC_PCR25_OFFSET 00000064

Symbol: PORTC_PCR25_OFFSET
   Definitions
      At line 1391 in file MKL25Z128xxx4.s
   Uses
      At line 1426 in file MKL25Z128xxx4.s
Comment: PORTC_PCR25_OFFSET used once
PORTC_PCR26 4004B068

Symbol: PORTC_PCR26
   Definitions
      At line 1427 in file MKL25Z128xxx4.s
   Uses
      None
Comment: PORTC_PCR26 unused
PORTC_PCR26_OFFSET 00000068

Symbol: PORTC_PCR26_OFFSET
   Definitions
      At line 1392 in file MKL25Z128xxx4.s
   Uses
      At line 1427 in file MKL25Z128xxx4.s
Comment: PORTC_PCR26_OFFSET used once
PORTC_PCR27 4004B06C

Symbol: PORTC_PCR27
   Definitions
      At line 1428 in file MKL25Z128xxx4.s
   Uses
      None
Comment: PORTC_PCR27 unused



ARM Macro Assembler    Page 96 Alphabetic symbol ordering
Absolute symbols

PORTC_PCR27_OFFSET 0000006C

Symbol: PORTC_PCR27_OFFSET
   Definitions
      At line 1393 in file MKL25Z128xxx4.s
   Uses
      At line 1428 in file MKL25Z128xxx4.s
Comment: PORTC_PCR27_OFFSET used once
PORTC_PCR28 4004B070

Symbol: PORTC_PCR28
   Definitions
      At line 1429 in file MKL25Z128xxx4.s
   Uses
      None
Comment: PORTC_PCR28 unused
PORTC_PCR28_OFFSET 00000070

Symbol: PORTC_PCR28_OFFSET
   Definitions
      At line 1394 in file MKL25Z128xxx4.s
   Uses
      At line 1429 in file MKL25Z128xxx4.s
Comment: PORTC_PCR28_OFFSET used once
PORTC_PCR29 4004B074

Symbol: PORTC_PCR29
   Definitions
      At line 1430 in file MKL25Z128xxx4.s
   Uses
      None
Comment: PORTC_PCR29 unused
PORTC_PCR29_OFFSET 00000074

Symbol: PORTC_PCR29_OFFSET
   Definitions
      At line 1395 in file MKL25Z128xxx4.s
   Uses
      At line 1430 in file MKL25Z128xxx4.s
Comment: PORTC_PCR29_OFFSET used once
PORTC_PCR2_OFFSET 00000008

Symbol: PORTC_PCR2_OFFSET
   Definitions
      At line 1368 in file MKL25Z128xxx4.s
   Uses
      At line 1403 in file MKL25Z128xxx4.s
Comment: PORTC_PCR2_OFFSET used once
PORTC_PCR3 4004B00C

Symbol: PORTC_PCR3
   Definitions
      At line 1404 in file MKL25Z128xxx4.s
   Uses
      At line 766 in file ServoControl.s
Comment: PORTC_PCR3 used once
PORTC_PCR30 4004B078

Symbol: PORTC_PCR30



ARM Macro Assembler    Page 97 Alphabetic symbol ordering
Absolute symbols

   Definitions
      At line 1431 in file MKL25Z128xxx4.s
   Uses
      None
Comment: PORTC_PCR30 unused
PORTC_PCR30_OFFSET 00000078

Symbol: PORTC_PCR30_OFFSET
   Definitions
      At line 1396 in file MKL25Z128xxx4.s
   Uses
      At line 1431 in file MKL25Z128xxx4.s
Comment: PORTC_PCR30_OFFSET used once
PORTC_PCR31 4004B07C

Symbol: PORTC_PCR31
   Definitions
      At line 1432 in file MKL25Z128xxx4.s
   Uses
      None
Comment: PORTC_PCR31 unused
PORTC_PCR31_OFFSET 0000007C

Symbol: PORTC_PCR31_OFFSET
   Definitions
      At line 1397 in file MKL25Z128xxx4.s
   Uses
      At line 1432 in file MKL25Z128xxx4.s
Comment: PORTC_PCR31_OFFSET used once
PORTC_PCR3_OFFSET 0000000C

Symbol: PORTC_PCR3_OFFSET
   Definitions
      At line 1369 in file MKL25Z128xxx4.s
   Uses
      At line 1404 in file MKL25Z128xxx4.s
Comment: PORTC_PCR3_OFFSET used once
PORTC_PCR4 4004B010

Symbol: PORTC_PCR4
   Definitions
      At line 1405 in file MKL25Z128xxx4.s
   Uses
      At line 770 in file ServoControl.s
Comment: PORTC_PCR4 used once
PORTC_PCR4_OFFSET 00000010

Symbol: PORTC_PCR4_OFFSET
   Definitions
      At line 1370 in file MKL25Z128xxx4.s
   Uses
      At line 1405 in file MKL25Z128xxx4.s
Comment: PORTC_PCR4_OFFSET used once
PORTC_PCR5 4004B014

Symbol: PORTC_PCR5
   Definitions
      At line 1406 in file MKL25Z128xxx4.s
   Uses



ARM Macro Assembler    Page 98 Alphabetic symbol ordering
Absolute symbols

      None
Comment: PORTC_PCR5 unused
PORTC_PCR5_OFFSET 00000014

Symbol: PORTC_PCR5_OFFSET
   Definitions
      At line 1371 in file MKL25Z128xxx4.s
   Uses
      At line 1406 in file MKL25Z128xxx4.s
Comment: PORTC_PCR5_OFFSET used once
PORTC_PCR6 4004B018

Symbol: PORTC_PCR6
   Definitions
      At line 1407 in file MKL25Z128xxx4.s
   Uses
      None
Comment: PORTC_PCR6 unused
PORTC_PCR6_OFFSET 00000018

Symbol: PORTC_PCR6_OFFSET
   Definitions
      At line 1372 in file MKL25Z128xxx4.s
   Uses
      At line 1407 in file MKL25Z128xxx4.s
Comment: PORTC_PCR6_OFFSET used once
PORTC_PCR7 4004B01C

Symbol: PORTC_PCR7
   Definitions
      At line 1408 in file MKL25Z128xxx4.s
   Uses
      None
Comment: PORTC_PCR7 unused
PORTC_PCR7_OFFSET 0000001C

Symbol: PORTC_PCR7_OFFSET
   Definitions
      At line 1373 in file MKL25Z128xxx4.s
   Uses
      At line 1408 in file MKL25Z128xxx4.s
Comment: PORTC_PCR7_OFFSET used once
PORTC_PCR8 4004B020

Symbol: PORTC_PCR8
   Definitions
      At line 1409 in file MKL25Z128xxx4.s
   Uses
      None
Comment: PORTC_PCR8 unused
PORTC_PCR8_OFFSET 00000020

Symbol: PORTC_PCR8_OFFSET
   Definitions
      At line 1374 in file MKL25Z128xxx4.s
   Uses
      At line 1409 in file MKL25Z128xxx4.s
Comment: PORTC_PCR8_OFFSET used once
PORTC_PCR9 4004B024



ARM Macro Assembler    Page 99 Alphabetic symbol ordering
Absolute symbols


Symbol: PORTC_PCR9
   Definitions
      At line 1410 in file MKL25Z128xxx4.s
   Uses
      None
Comment: PORTC_PCR9 unused
PORTC_PCR9_OFFSET 00000024

Symbol: PORTC_PCR9_OFFSET
   Definitions
      At line 1375 in file MKL25Z128xxx4.s
   Uses
      At line 1410 in file MKL25Z128xxx4.s
Comment: PORTC_PCR9_OFFSET used once
PORTD_BASE 4004C000

Symbol: PORTD_BASE
   Definitions
      At line 1438 in file MKL25Z128xxx4.s
   Uses
      At line 1474 in file MKL25Z128xxx4.s
      At line 1475 in file MKL25Z128xxx4.s
      At line 1476 in file MKL25Z128xxx4.s
      At line 1477 in file MKL25Z128xxx4.s
      At line 1478 in file MKL25Z128xxx4.s
      At line 1479 in file MKL25Z128xxx4.s
      At line 1480 in file MKL25Z128xxx4.s
      At line 1481 in file MKL25Z128xxx4.s
      At line 1482 in file MKL25Z128xxx4.s
      At line 1483 in file MKL25Z128xxx4.s
      At line 1484 in file MKL25Z128xxx4.s
      At line 1485 in file MKL25Z128xxx4.s
      At line 1486 in file MKL25Z128xxx4.s
      At line 1487 in file MKL25Z128xxx4.s
      At line 1488 in file MKL25Z128xxx4.s
      At line 1489 in file MKL25Z128xxx4.s
      At line 1490 in file MKL25Z128xxx4.s
      At line 1491 in file MKL25Z128xxx4.s
      At line 1492 in file MKL25Z128xxx4.s
      At line 1493 in file MKL25Z128xxx4.s
      At line 1494 in file MKL25Z128xxx4.s
      At line 1495 in file MKL25Z128xxx4.s
      At line 1496 in file MKL25Z128xxx4.s
      At line 1497 in file MKL25Z128xxx4.s
      At line 1498 in file MKL25Z128xxx4.s
      At line 1499 in file MKL25Z128xxx4.s
      At line 1500 in file MKL25Z128xxx4.s
      At line 1501 in file MKL25Z128xxx4.s
      At line 1502 in file MKL25Z128xxx4.s
      At line 1503 in file MKL25Z128xxx4.s
      At line 1504 in file MKL25Z128xxx4.s
      At line 1505 in file MKL25Z128xxx4.s
      At line 1506 in file MKL25Z128xxx4.s
      At line 1507 in file MKL25Z128xxx4.s
      At line 1508 in file MKL25Z128xxx4.s

PORTD_GPCHR 4004C084




ARM Macro Assembler    Page 100 Alphabetic symbol ordering
Absolute symbols

Symbol: PORTD_GPCHR
   Definitions
      At line 1507 in file MKL25Z128xxx4.s
   Uses
      None
Comment: PORTD_GPCHR unused
PORTD_GPCHR_OFFSET 00000084

Symbol: PORTD_GPCHR_OFFSET
   Definitions
      At line 1472 in file MKL25Z128xxx4.s
   Uses
      At line 1507 in file MKL25Z128xxx4.s
Comment: PORTD_GPCHR_OFFSET used once
PORTD_GPCLR 4004C080

Symbol: PORTD_GPCLR
   Definitions
      At line 1506 in file MKL25Z128xxx4.s
   Uses
      None
Comment: PORTD_GPCLR unused
PORTD_GPCLR_OFFSET 00000080

Symbol: PORTD_GPCLR_OFFSET
   Definitions
      At line 1471 in file MKL25Z128xxx4.s
   Uses
      At line 1506 in file MKL25Z128xxx4.s
Comment: PORTD_GPCLR_OFFSET used once
PORTD_IPR E000E41C

Symbol: PORTD_IPR
   Definitions
      At line 930 in file MKL25Z128xxx4.s
   Uses
      None
Comment: PORTD_IPR unused
PORTD_IRQ 0000001F

Symbol: PORTD_IRQ
   Definitions
      At line 1000 in file MKL25Z128xxx4.s
   Uses
      At line 1034 in file MKL25Z128xxx4.s
Comment: PORTD_IRQ used once
PORTD_IRQ_MASK 80000000

Symbol: PORTD_IRQ_MASK
   Definitions
      At line 1034 in file MKL25Z128xxx4.s
   Uses
      None
Comment: PORTD_IRQ_MASK unused
PORTD_ISFR 4004C0A0

Symbol: PORTD_ISFR
   Definitions
      At line 1508 in file MKL25Z128xxx4.s



ARM Macro Assembler    Page 101 Alphabetic symbol ordering
Absolute symbols

   Uses
      None
Comment: PORTD_ISFR unused
PORTD_ISFR_OFFSET 000000A0

Symbol: PORTD_ISFR_OFFSET
   Definitions
      At line 1473 in file MKL25Z128xxx4.s
   Uses
      At line 1508 in file MKL25Z128xxx4.s
Comment: PORTD_ISFR_OFFSET used once
PORTD_PCR0 4004C000

Symbol: PORTD_PCR0
   Definitions
      At line 1474 in file MKL25Z128xxx4.s
   Uses
      None
Comment: PORTD_PCR0 unused
PORTD_PCR0_OFFSET 00000000

Symbol: PORTD_PCR0_OFFSET
   Definitions
      At line 1439 in file MKL25Z128xxx4.s
   Uses
      At line 1474 in file MKL25Z128xxx4.s
Comment: PORTD_PCR0_OFFSET used once
PORTD_PCR1 4004C004

Symbol: PORTD_PCR1
   Definitions
      At line 1475 in file MKL25Z128xxx4.s
   Uses
      None
Comment: PORTD_PCR1 unused
PORTD_PCR10 4004C028

Symbol: PORTD_PCR10
   Definitions
      At line 1484 in file MKL25Z128xxx4.s
   Uses
      None
Comment: PORTD_PCR10 unused
PORTD_PCR10_OFFSET 00000028

Symbol: PORTD_PCR10_OFFSET
   Definitions
      At line 1449 in file MKL25Z128xxx4.s
   Uses
      At line 1484 in file MKL25Z128xxx4.s
Comment: PORTD_PCR10_OFFSET used once
PORTD_PCR11 4004C02C

Symbol: PORTD_PCR11
   Definitions
      At line 1485 in file MKL25Z128xxx4.s
   Uses
      None
Comment: PORTD_PCR11 unused



ARM Macro Assembler    Page 102 Alphabetic symbol ordering
Absolute symbols

PORTD_PCR11_OFFSET 0000002C

Symbol: PORTD_PCR11_OFFSET
   Definitions
      At line 1450 in file MKL25Z128xxx4.s
   Uses
      At line 1485 in file MKL25Z128xxx4.s
Comment: PORTD_PCR11_OFFSET used once
PORTD_PCR12 4004C030

Symbol: PORTD_PCR12
   Definitions
      At line 1486 in file MKL25Z128xxx4.s
   Uses
      None
Comment: PORTD_PCR12 unused
PORTD_PCR12_OFFSET 00000030

Symbol: PORTD_PCR12_OFFSET
   Definitions
      At line 1451 in file MKL25Z128xxx4.s
   Uses
      At line 1486 in file MKL25Z128xxx4.s
Comment: PORTD_PCR12_OFFSET used once
PORTD_PCR13 4004C034

Symbol: PORTD_PCR13
   Definitions
      At line 1487 in file MKL25Z128xxx4.s
   Uses
      None
Comment: PORTD_PCR13 unused
PORTD_PCR13_OFFSET 00000034

Symbol: PORTD_PCR13_OFFSET
   Definitions
      At line 1452 in file MKL25Z128xxx4.s
   Uses
      At line 1487 in file MKL25Z128xxx4.s
Comment: PORTD_PCR13_OFFSET used once
PORTD_PCR14 4004C038

Symbol: PORTD_PCR14
   Definitions
      At line 1488 in file MKL25Z128xxx4.s
   Uses
      None
Comment: PORTD_PCR14 unused
PORTD_PCR14_OFFSET 00000038

Symbol: PORTD_PCR14_OFFSET
   Definitions
      At line 1453 in file MKL25Z128xxx4.s
   Uses
      At line 1488 in file MKL25Z128xxx4.s
Comment: PORTD_PCR14_OFFSET used once
PORTD_PCR15 4004C03C

Symbol: PORTD_PCR15



ARM Macro Assembler    Page 103 Alphabetic symbol ordering
Absolute symbols

   Definitions
      At line 1489 in file MKL25Z128xxx4.s
   Uses
      None
Comment: PORTD_PCR15 unused
PORTD_PCR15_OFFSET 0000003C

Symbol: PORTD_PCR15_OFFSET
   Definitions
      At line 1454 in file MKL25Z128xxx4.s
   Uses
      At line 1489 in file MKL25Z128xxx4.s
Comment: PORTD_PCR15_OFFSET used once
PORTD_PCR16 4004C040

Symbol: PORTD_PCR16
   Definitions
      At line 1490 in file MKL25Z128xxx4.s
   Uses
      None
Comment: PORTD_PCR16 unused
PORTD_PCR16_OFFSET 00000040

Symbol: PORTD_PCR16_OFFSET
   Definitions
      At line 1455 in file MKL25Z128xxx4.s
   Uses
      At line 1490 in file MKL25Z128xxx4.s
Comment: PORTD_PCR16_OFFSET used once
PORTD_PCR17 4004C044

Symbol: PORTD_PCR17
   Definitions
      At line 1491 in file MKL25Z128xxx4.s
   Uses
      None
Comment: PORTD_PCR17 unused
PORTD_PCR17_OFFSET 00000044

Symbol: PORTD_PCR17_OFFSET
   Definitions
      At line 1456 in file MKL25Z128xxx4.s
   Uses
      At line 1491 in file MKL25Z128xxx4.s
Comment: PORTD_PCR17_OFFSET used once
PORTD_PCR18 4004C048

Symbol: PORTD_PCR18
   Definitions
      At line 1492 in file MKL25Z128xxx4.s
   Uses
      None
Comment: PORTD_PCR18 unused
PORTD_PCR18_OFFSET 00000048

Symbol: PORTD_PCR18_OFFSET
   Definitions
      At line 1457 in file MKL25Z128xxx4.s
   Uses



ARM Macro Assembler    Page 104 Alphabetic symbol ordering
Absolute symbols

      At line 1492 in file MKL25Z128xxx4.s
Comment: PORTD_PCR18_OFFSET used once
PORTD_PCR19 4004C04C

Symbol: PORTD_PCR19
   Definitions
      At line 1493 in file MKL25Z128xxx4.s
   Uses
      None
Comment: PORTD_PCR19 unused
PORTD_PCR19_OFFSET 0000004C

Symbol: PORTD_PCR19_OFFSET
   Definitions
      At line 1458 in file MKL25Z128xxx4.s
   Uses
      At line 1493 in file MKL25Z128xxx4.s
Comment: PORTD_PCR19_OFFSET used once
PORTD_PCR1_OFFSET 00000004

Symbol: PORTD_PCR1_OFFSET
   Definitions
      At line 1440 in file MKL25Z128xxx4.s
   Uses
      At line 1475 in file MKL25Z128xxx4.s
Comment: PORTD_PCR1_OFFSET used once
PORTD_PCR2 4004C008

Symbol: PORTD_PCR2
   Definitions
      At line 1476 in file MKL25Z128xxx4.s
   Uses
      None
Comment: PORTD_PCR2 unused
PORTD_PCR20 4004C050

Symbol: PORTD_PCR20
   Definitions
      At line 1494 in file MKL25Z128xxx4.s
   Uses
      None
Comment: PORTD_PCR20 unused
PORTD_PCR20_OFFSET 00000050

Symbol: PORTD_PCR20_OFFSET
   Definitions
      At line 1459 in file MKL25Z128xxx4.s
   Uses
      At line 1494 in file MKL25Z128xxx4.s
Comment: PORTD_PCR20_OFFSET used once
PORTD_PCR21 4004C054

Symbol: PORTD_PCR21
   Definitions
      At line 1495 in file MKL25Z128xxx4.s
   Uses
      None
Comment: PORTD_PCR21 unused
PORTD_PCR21_OFFSET 00000054



ARM Macro Assembler    Page 105 Alphabetic symbol ordering
Absolute symbols


Symbol: PORTD_PCR21_OFFSET
   Definitions
      At line 1460 in file MKL25Z128xxx4.s
   Uses
      At line 1495 in file MKL25Z128xxx4.s
Comment: PORTD_PCR21_OFFSET used once
PORTD_PCR22 4004C058

Symbol: PORTD_PCR22
   Definitions
      At line 1496 in file MKL25Z128xxx4.s
   Uses
      None
Comment: PORTD_PCR22 unused
PORTD_PCR22_OFFSET 00000058

Symbol: PORTD_PCR22_OFFSET
   Definitions
      At line 1461 in file MKL25Z128xxx4.s
   Uses
      At line 1496 in file MKL25Z128xxx4.s
Comment: PORTD_PCR22_OFFSET used once
PORTD_PCR23 4004C05C

Symbol: PORTD_PCR23
   Definitions
      At line 1497 in file MKL25Z128xxx4.s
   Uses
      None
Comment: PORTD_PCR23 unused
PORTD_PCR23_OFFSET 0000005C

Symbol: PORTD_PCR23_OFFSET
   Definitions
      At line 1462 in file MKL25Z128xxx4.s
   Uses
      At line 1497 in file MKL25Z128xxx4.s
Comment: PORTD_PCR23_OFFSET used once
PORTD_PCR24 4004C060

Symbol: PORTD_PCR24
   Definitions
      At line 1498 in file MKL25Z128xxx4.s
   Uses
      None
Comment: PORTD_PCR24 unused
PORTD_PCR24_OFFSET 00000060

Symbol: PORTD_PCR24_OFFSET
   Definitions
      At line 1463 in file MKL25Z128xxx4.s
   Uses
      At line 1498 in file MKL25Z128xxx4.s
Comment: PORTD_PCR24_OFFSET used once
PORTD_PCR25 4004C064

Symbol: PORTD_PCR25
   Definitions



ARM Macro Assembler    Page 106 Alphabetic symbol ordering
Absolute symbols

      At line 1499 in file MKL25Z128xxx4.s
   Uses
      None
Comment: PORTD_PCR25 unused
PORTD_PCR25_OFFSET 00000064

Symbol: PORTD_PCR25_OFFSET
   Definitions
      At line 1464 in file MKL25Z128xxx4.s
   Uses
      At line 1499 in file MKL25Z128xxx4.s
Comment: PORTD_PCR25_OFFSET used once
PORTD_PCR26 4004C068

Symbol: PORTD_PCR26
   Definitions
      At line 1500 in file MKL25Z128xxx4.s
   Uses
      None
Comment: PORTD_PCR26 unused
PORTD_PCR26_OFFSET 00000068

Symbol: PORTD_PCR26_OFFSET
   Definitions
      At line 1465 in file MKL25Z128xxx4.s
   Uses
      At line 1500 in file MKL25Z128xxx4.s
Comment: PORTD_PCR26_OFFSET used once
PORTD_PCR27 4004C06C

Symbol: PORTD_PCR27
   Definitions
      At line 1501 in file MKL25Z128xxx4.s
   Uses
      None
Comment: PORTD_PCR27 unused
PORTD_PCR27_OFFSET 0000006C

Symbol: PORTD_PCR27_OFFSET
   Definitions
      At line 1466 in file MKL25Z128xxx4.s
   Uses
      At line 1501 in file MKL25Z128xxx4.s
Comment: PORTD_PCR27_OFFSET used once
PORTD_PCR28 4004C070

Symbol: PORTD_PCR28
   Definitions
      At line 1502 in file MKL25Z128xxx4.s
   Uses
      None
Comment: PORTD_PCR28 unused
PORTD_PCR28_OFFSET 00000070

Symbol: PORTD_PCR28_OFFSET
   Definitions
      At line 1467 in file MKL25Z128xxx4.s
   Uses
      At line 1502 in file MKL25Z128xxx4.s



ARM Macro Assembler    Page 107 Alphabetic symbol ordering
Absolute symbols

Comment: PORTD_PCR28_OFFSET used once
PORTD_PCR29 4004C074

Symbol: PORTD_PCR29
   Definitions
      At line 1503 in file MKL25Z128xxx4.s
   Uses
      None
Comment: PORTD_PCR29 unused
PORTD_PCR29_OFFSET 00000074

Symbol: PORTD_PCR29_OFFSET
   Definitions
      At line 1468 in file MKL25Z128xxx4.s
   Uses
      At line 1503 in file MKL25Z128xxx4.s
Comment: PORTD_PCR29_OFFSET used once
PORTD_PCR2_OFFSET 00000008

Symbol: PORTD_PCR2_OFFSET
   Definitions
      At line 1441 in file MKL25Z128xxx4.s
   Uses
      At line 1476 in file MKL25Z128xxx4.s
Comment: PORTD_PCR2_OFFSET used once
PORTD_PCR3 4004C00C

Symbol: PORTD_PCR3
   Definitions
      At line 1477 in file MKL25Z128xxx4.s
   Uses
      None
Comment: PORTD_PCR3 unused
PORTD_PCR30 4004C078

Symbol: PORTD_PCR30
   Definitions
      At line 1504 in file MKL25Z128xxx4.s
   Uses
      None
Comment: PORTD_PCR30 unused
PORTD_PCR30_OFFSET 00000078

Symbol: PORTD_PCR30_OFFSET
   Definitions
      At line 1469 in file MKL25Z128xxx4.s
   Uses
      At line 1504 in file MKL25Z128xxx4.s
Comment: PORTD_PCR30_OFFSET used once
PORTD_PCR31 4004C07C

Symbol: PORTD_PCR31
   Definitions
      At line 1505 in file MKL25Z128xxx4.s
   Uses
      None
Comment: PORTD_PCR31 unused
PORTD_PCR31_OFFSET 0000007C




ARM Macro Assembler    Page 108 Alphabetic symbol ordering
Absolute symbols

Symbol: PORTD_PCR31_OFFSET
   Definitions
      At line 1470 in file MKL25Z128xxx4.s
   Uses
      At line 1505 in file MKL25Z128xxx4.s
Comment: PORTD_PCR31_OFFSET used once
PORTD_PCR3_OFFSET 0000000C

Symbol: PORTD_PCR3_OFFSET
   Definitions
      At line 1442 in file MKL25Z128xxx4.s
   Uses
      At line 1477 in file MKL25Z128xxx4.s
Comment: PORTD_PCR3_OFFSET used once
PORTD_PCR4 4004C010

Symbol: PORTD_PCR4
   Definitions
      At line 1478 in file MKL25Z128xxx4.s
   Uses
      None
Comment: PORTD_PCR4 unused
PORTD_PCR4_OFFSET 00000010

Symbol: PORTD_PCR4_OFFSET
   Definitions
      At line 1443 in file MKL25Z128xxx4.s
   Uses
      At line 1478 in file MKL25Z128xxx4.s
Comment: PORTD_PCR4_OFFSET used once
PORTD_PCR5 4004C014

Symbol: PORTD_PCR5
   Definitions
      At line 1479 in file MKL25Z128xxx4.s
   Uses
      None
Comment: PORTD_PCR5 unused
PORTD_PCR5_OFFSET 00000014

Symbol: PORTD_PCR5_OFFSET
   Definitions
      At line 1444 in file MKL25Z128xxx4.s
   Uses
      At line 1479 in file MKL25Z128xxx4.s
Comment: PORTD_PCR5_OFFSET used once
PORTD_PCR6 4004C018

Symbol: PORTD_PCR6
   Definitions
      At line 1480 in file MKL25Z128xxx4.s
   Uses
      None
Comment: PORTD_PCR6 unused
PORTD_PCR6_OFFSET 00000018

Symbol: PORTD_PCR6_OFFSET
   Definitions
      At line 1445 in file MKL25Z128xxx4.s



ARM Macro Assembler    Page 109 Alphabetic symbol ordering
Absolute symbols

   Uses
      At line 1480 in file MKL25Z128xxx4.s
Comment: PORTD_PCR6_OFFSET used once
PORTD_PCR7 4004C01C

Symbol: PORTD_PCR7
   Definitions
      At line 1481 in file MKL25Z128xxx4.s
   Uses
      None
Comment: PORTD_PCR7 unused
PORTD_PCR7_OFFSET 0000001C

Symbol: PORTD_PCR7_OFFSET
   Definitions
      At line 1446 in file MKL25Z128xxx4.s
   Uses
      At line 1481 in file MKL25Z128xxx4.s
Comment: PORTD_PCR7_OFFSET used once
PORTD_PCR8 4004C020

Symbol: PORTD_PCR8
   Definitions
      At line 1482 in file MKL25Z128xxx4.s
   Uses
      None
Comment: PORTD_PCR8 unused
PORTD_PCR8_OFFSET 00000020

Symbol: PORTD_PCR8_OFFSET
   Definitions
      At line 1447 in file MKL25Z128xxx4.s
   Uses
      At line 1482 in file MKL25Z128xxx4.s
Comment: PORTD_PCR8_OFFSET used once
PORTD_PCR9 4004C024

Symbol: PORTD_PCR9
   Definitions
      At line 1483 in file MKL25Z128xxx4.s
   Uses
      None
Comment: PORTD_PCR9 unused
PORTD_PCR9_OFFSET 00000024

Symbol: PORTD_PCR9_OFFSET
   Definitions
      At line 1448 in file MKL25Z128xxx4.s
   Uses
      At line 1483 in file MKL25Z128xxx4.s
Comment: PORTD_PCR9_OFFSET used once
PORTD_PRI_POS 0000001E

Symbol: PORTD_PRI_POS
   Definitions
      At line 966 in file MKL25Z128xxx4.s
   Uses
      None
Comment: PORTD_PRI_POS unused



ARM Macro Assembler    Page 110 Alphabetic symbol ordering
Absolute symbols

PORTD_Vector 0000002F

Symbol: PORTD_Vector
   Definitions
      At line 1084 in file MKL25Z128xxx4.s
   Uses
      None
Comment: PORTD_Vector unused
PORTE_BASE 4004D000

Symbol: PORTE_BASE
   Definitions
      At line 1511 in file MKL25Z128xxx4.s
   Uses
      At line 1547 in file MKL25Z128xxx4.s
      At line 1548 in file MKL25Z128xxx4.s
      At line 1549 in file MKL25Z128xxx4.s
      At line 1550 in file MKL25Z128xxx4.s
      At line 1551 in file MKL25Z128xxx4.s
      At line 1552 in file MKL25Z128xxx4.s
      At line 1553 in file MKL25Z128xxx4.s
      At line 1554 in file MKL25Z128xxx4.s
      At line 1555 in file MKL25Z128xxx4.s
      At line 1556 in file MKL25Z128xxx4.s
      At line 1557 in file MKL25Z128xxx4.s
      At line 1558 in file MKL25Z128xxx4.s
      At line 1559 in file MKL25Z128xxx4.s
      At line 1560 in file MKL25Z128xxx4.s
      At line 1561 in file MKL25Z128xxx4.s
      At line 1562 in file MKL25Z128xxx4.s
      At line 1563 in file MKL25Z128xxx4.s
      At line 1564 in file MKL25Z128xxx4.s
      At line 1565 in file MKL25Z128xxx4.s
      At line 1566 in file MKL25Z128xxx4.s
      At line 1567 in file MKL25Z128xxx4.s
      At line 1568 in file MKL25Z128xxx4.s
      At line 1569 in file MKL25Z128xxx4.s
      At line 1570 in file MKL25Z128xxx4.s
      At line 1571 in file MKL25Z128xxx4.s
      At line 1572 in file MKL25Z128xxx4.s
      At line 1573 in file MKL25Z128xxx4.s
      At line 1574 in file MKL25Z128xxx4.s
      At line 1575 in file MKL25Z128xxx4.s
      At line 1576 in file MKL25Z128xxx4.s
      At line 1577 in file MKL25Z128xxx4.s
      At line 1578 in file MKL25Z128xxx4.s
      At line 1579 in file MKL25Z128xxx4.s
      At line 1580 in file MKL25Z128xxx4.s
      At line 1581 in file MKL25Z128xxx4.s

PORTE_GPCHR 4004D084

Symbol: PORTE_GPCHR
   Definitions
      At line 1580 in file MKL25Z128xxx4.s
   Uses
      None
Comment: PORTE_GPCHR unused
PORTE_GPCHR_OFFSET 00000084



ARM Macro Assembler    Page 111 Alphabetic symbol ordering
Absolute symbols


Symbol: PORTE_GPCHR_OFFSET
   Definitions
      At line 1545 in file MKL25Z128xxx4.s
   Uses
      At line 1580 in file MKL25Z128xxx4.s
Comment: PORTE_GPCHR_OFFSET used once
PORTE_GPCLR 4004D080

Symbol: PORTE_GPCLR
   Definitions
      At line 1579 in file MKL25Z128xxx4.s
   Uses
      None
Comment: PORTE_GPCLR unused
PORTE_GPCLR_OFFSET 00000080

Symbol: PORTE_GPCLR_OFFSET
   Definitions
      At line 1544 in file MKL25Z128xxx4.s
   Uses
      At line 1579 in file MKL25Z128xxx4.s
Comment: PORTE_GPCLR_OFFSET used once
PORTE_ISFR 4004D0A0

Symbol: PORTE_ISFR
   Definitions
      At line 1581 in file MKL25Z128xxx4.s
   Uses
      None
Comment: PORTE_ISFR unused
PORTE_ISFR_OFFSET 000000A0

Symbol: PORTE_ISFR_OFFSET
   Definitions
      At line 1546 in file MKL25Z128xxx4.s
   Uses
      At line 1581 in file MKL25Z128xxx4.s
Comment: PORTE_ISFR_OFFSET used once
PORTE_PCR0 4004D000

Symbol: PORTE_PCR0
   Definitions
      At line 1547 in file MKL25Z128xxx4.s
   Uses
      None
Comment: PORTE_PCR0 unused
PORTE_PCR0_OFFSET 00000000

Symbol: PORTE_PCR0_OFFSET
   Definitions
      At line 1512 in file MKL25Z128xxx4.s
   Uses
      At line 1547 in file MKL25Z128xxx4.s
Comment: PORTE_PCR0_OFFSET used once
PORTE_PCR1 4004D004

Symbol: PORTE_PCR1
   Definitions



ARM Macro Assembler    Page 112 Alphabetic symbol ordering
Absolute symbols

      At line 1548 in file MKL25Z128xxx4.s
   Uses
      None
Comment: PORTE_PCR1 unused
PORTE_PCR10 4004D028

Symbol: PORTE_PCR10
   Definitions
      At line 1557 in file MKL25Z128xxx4.s
   Uses
      None
Comment: PORTE_PCR10 unused
PORTE_PCR10_OFFSET 00000028

Symbol: PORTE_PCR10_OFFSET
   Definitions
      At line 1522 in file MKL25Z128xxx4.s
   Uses
      At line 1557 in file MKL25Z128xxx4.s
Comment: PORTE_PCR10_OFFSET used once
PORTE_PCR11 4004D02C

Symbol: PORTE_PCR11
   Definitions
      At line 1558 in file MKL25Z128xxx4.s
   Uses
      None
Comment: PORTE_PCR11 unused
PORTE_PCR11_OFFSET 0000002C

Symbol: PORTE_PCR11_OFFSET
   Definitions
      At line 1523 in file MKL25Z128xxx4.s
   Uses
      At line 1558 in file MKL25Z128xxx4.s
Comment: PORTE_PCR11_OFFSET used once
PORTE_PCR12 4004D030

Symbol: PORTE_PCR12
   Definitions
      At line 1559 in file MKL25Z128xxx4.s
   Uses
      None
Comment: PORTE_PCR12 unused
PORTE_PCR12_OFFSET 00000030

Symbol: PORTE_PCR12_OFFSET
   Definitions
      At line 1524 in file MKL25Z128xxx4.s
   Uses
      At line 1559 in file MKL25Z128xxx4.s
Comment: PORTE_PCR12_OFFSET used once
PORTE_PCR13 4004D034

Symbol: PORTE_PCR13
   Definitions
      At line 1560 in file MKL25Z128xxx4.s
   Uses
      None



ARM Macro Assembler    Page 113 Alphabetic symbol ordering
Absolute symbols

Comment: PORTE_PCR13 unused
PORTE_PCR13_OFFSET 00000034

Symbol: PORTE_PCR13_OFFSET
   Definitions
      At line 1525 in file MKL25Z128xxx4.s
   Uses
      At line 1560 in file MKL25Z128xxx4.s
Comment: PORTE_PCR13_OFFSET used once
PORTE_PCR14 4004D038

Symbol: PORTE_PCR14
   Definitions
      At line 1561 in file MKL25Z128xxx4.s
   Uses
      None
Comment: PORTE_PCR14 unused
PORTE_PCR14_OFFSET 00000038

Symbol: PORTE_PCR14_OFFSET
   Definitions
      At line 1526 in file MKL25Z128xxx4.s
   Uses
      At line 1561 in file MKL25Z128xxx4.s
Comment: PORTE_PCR14_OFFSET used once
PORTE_PCR15 4004D03C

Symbol: PORTE_PCR15
   Definitions
      At line 1562 in file MKL25Z128xxx4.s
   Uses
      None
Comment: PORTE_PCR15 unused
PORTE_PCR15_OFFSET 0000003C

Symbol: PORTE_PCR15_OFFSET
   Definitions
      At line 1527 in file MKL25Z128xxx4.s
   Uses
      At line 1562 in file MKL25Z128xxx4.s
Comment: PORTE_PCR15_OFFSET used once
PORTE_PCR16 4004D040

Symbol: PORTE_PCR16
   Definitions
      At line 1563 in file MKL25Z128xxx4.s
   Uses
      None
Comment: PORTE_PCR16 unused
PORTE_PCR16_OFFSET 00000040

Symbol: PORTE_PCR16_OFFSET
   Definitions
      At line 1528 in file MKL25Z128xxx4.s
   Uses
      At line 1563 in file MKL25Z128xxx4.s
Comment: PORTE_PCR16_OFFSET used once
PORTE_PCR17 4004D044




ARM Macro Assembler    Page 114 Alphabetic symbol ordering
Absolute symbols

Symbol: PORTE_PCR17
   Definitions
      At line 1564 in file MKL25Z128xxx4.s
   Uses
      None
Comment: PORTE_PCR17 unused
PORTE_PCR17_OFFSET 00000044

Symbol: PORTE_PCR17_OFFSET
   Definitions
      At line 1529 in file MKL25Z128xxx4.s
   Uses
      At line 1564 in file MKL25Z128xxx4.s
Comment: PORTE_PCR17_OFFSET used once
PORTE_PCR18 4004D048

Symbol: PORTE_PCR18
   Definitions
      At line 1565 in file MKL25Z128xxx4.s
   Uses
      None
Comment: PORTE_PCR18 unused
PORTE_PCR18_OFFSET 00000048

Symbol: PORTE_PCR18_OFFSET
   Definitions
      At line 1530 in file MKL25Z128xxx4.s
   Uses
      At line 1565 in file MKL25Z128xxx4.s
Comment: PORTE_PCR18_OFFSET used once
PORTE_PCR19 4004D04C

Symbol: PORTE_PCR19
   Definitions
      At line 1566 in file MKL25Z128xxx4.s
   Uses
      None
Comment: PORTE_PCR19 unused
PORTE_PCR19_OFFSET 0000004C

Symbol: PORTE_PCR19_OFFSET
   Definitions
      At line 1531 in file MKL25Z128xxx4.s
   Uses
      At line 1566 in file MKL25Z128xxx4.s
Comment: PORTE_PCR19_OFFSET used once
PORTE_PCR1_OFFSET 00000004

Symbol: PORTE_PCR1_OFFSET
   Definitions
      At line 1513 in file MKL25Z128xxx4.s
   Uses
      At line 1548 in file MKL25Z128xxx4.s
Comment: PORTE_PCR1_OFFSET used once
PORTE_PCR2 4004D008

Symbol: PORTE_PCR2
   Definitions
      At line 1549 in file MKL25Z128xxx4.s



ARM Macro Assembler    Page 115 Alphabetic symbol ordering
Absolute symbols

   Uses
      None
Comment: PORTE_PCR2 unused
PORTE_PCR20 4004D050

Symbol: PORTE_PCR20
   Definitions
      At line 1567 in file MKL25Z128xxx4.s
   Uses
      None
Comment: PORTE_PCR20 unused
PORTE_PCR20_OFFSET 00000050

Symbol: PORTE_PCR20_OFFSET
   Definitions
      At line 1532 in file MKL25Z128xxx4.s
   Uses
      At line 1567 in file MKL25Z128xxx4.s
Comment: PORTE_PCR20_OFFSET used once
PORTE_PCR21 4004D054

Symbol: PORTE_PCR21
   Definitions
      At line 1568 in file MKL25Z128xxx4.s
   Uses
      None
Comment: PORTE_PCR21 unused
PORTE_PCR21_OFFSET 00000054

Symbol: PORTE_PCR21_OFFSET
   Definitions
      At line 1533 in file MKL25Z128xxx4.s
   Uses
      At line 1568 in file MKL25Z128xxx4.s
Comment: PORTE_PCR21_OFFSET used once
PORTE_PCR22 4004D058

Symbol: PORTE_PCR22
   Definitions
      At line 1569 in file MKL25Z128xxx4.s
   Uses
      At line 717 in file ServoControl.s
Comment: PORTE_PCR22 used once
PORTE_PCR22_OFFSET 00000058

Symbol: PORTE_PCR22_OFFSET
   Definitions
      At line 1534 in file MKL25Z128xxx4.s
   Uses
      At line 1569 in file MKL25Z128xxx4.s
Comment: PORTE_PCR22_OFFSET used once
PORTE_PCR23 4004D05C

Symbol: PORTE_PCR23
   Definitions
      At line 1570 in file MKL25Z128xxx4.s
   Uses
      None
Comment: PORTE_PCR23 unused



ARM Macro Assembler    Page 116 Alphabetic symbol ordering
Absolute symbols

PORTE_PCR23_OFFSET 0000005C

Symbol: PORTE_PCR23_OFFSET
   Definitions
      At line 1535 in file MKL25Z128xxx4.s
   Uses
      At line 1570 in file MKL25Z128xxx4.s
Comment: PORTE_PCR23_OFFSET used once
PORTE_PCR24 4004D060

Symbol: PORTE_PCR24
   Definitions
      At line 1571 in file MKL25Z128xxx4.s
   Uses
      None
Comment: PORTE_PCR24 unused
PORTE_PCR24_OFFSET 00000060

Symbol: PORTE_PCR24_OFFSET
   Definitions
      At line 1536 in file MKL25Z128xxx4.s
   Uses
      At line 1571 in file MKL25Z128xxx4.s
Comment: PORTE_PCR24_OFFSET used once
PORTE_PCR25 4004D064

Symbol: PORTE_PCR25
   Definitions
      At line 1572 in file MKL25Z128xxx4.s
   Uses
      None
Comment: PORTE_PCR25 unused
PORTE_PCR25_OFFSET 00000064

Symbol: PORTE_PCR25_OFFSET
   Definitions
      At line 1537 in file MKL25Z128xxx4.s
   Uses
      At line 1572 in file MKL25Z128xxx4.s
Comment: PORTE_PCR25_OFFSET used once
PORTE_PCR26 4004D068

Symbol: PORTE_PCR26
   Definitions
      At line 1573 in file MKL25Z128xxx4.s
   Uses
      None
Comment: PORTE_PCR26 unused
PORTE_PCR26_OFFSET 00000068

Symbol: PORTE_PCR26_OFFSET
   Definitions
      At line 1538 in file MKL25Z128xxx4.s
   Uses
      At line 1573 in file MKL25Z128xxx4.s
Comment: PORTE_PCR26_OFFSET used once
PORTE_PCR27 4004D06C

Symbol: PORTE_PCR27



ARM Macro Assembler    Page 117 Alphabetic symbol ordering
Absolute symbols

   Definitions
      At line 1574 in file MKL25Z128xxx4.s
   Uses
      None
Comment: PORTE_PCR27 unused
PORTE_PCR27_OFFSET 0000006C

Symbol: PORTE_PCR27_OFFSET
   Definitions
      At line 1539 in file MKL25Z128xxx4.s
   Uses
      At line 1574 in file MKL25Z128xxx4.s
Comment: PORTE_PCR27_OFFSET used once
PORTE_PCR28 4004D070

Symbol: PORTE_PCR28
   Definitions
      At line 1575 in file MKL25Z128xxx4.s
   Uses
      None
Comment: PORTE_PCR28 unused
PORTE_PCR28_OFFSET 00000070

Symbol: PORTE_PCR28_OFFSET
   Definitions
      At line 1540 in file MKL25Z128xxx4.s
   Uses
      At line 1575 in file MKL25Z128xxx4.s
Comment: PORTE_PCR28_OFFSET used once
PORTE_PCR29 4004D074

Symbol: PORTE_PCR29
   Definitions
      At line 1576 in file MKL25Z128xxx4.s
   Uses
      None
Comment: PORTE_PCR29 unused
PORTE_PCR29_OFFSET 00000074

Symbol: PORTE_PCR29_OFFSET
   Definitions
      At line 1541 in file MKL25Z128xxx4.s
   Uses
      At line 1576 in file MKL25Z128xxx4.s
Comment: PORTE_PCR29_OFFSET used once
PORTE_PCR2_OFFSET 00000008

Symbol: PORTE_PCR2_OFFSET
   Definitions
      At line 1514 in file MKL25Z128xxx4.s
   Uses
      At line 1549 in file MKL25Z128xxx4.s
Comment: PORTE_PCR2_OFFSET used once
PORTE_PCR3 4004D00C

Symbol: PORTE_PCR3
   Definitions
      At line 1550 in file MKL25Z128xxx4.s
   Uses



ARM Macro Assembler    Page 118 Alphabetic symbol ordering
Absolute symbols

      None
Comment: PORTE_PCR3 unused
PORTE_PCR30 4004D078

Symbol: PORTE_PCR30
   Definitions
      At line 1577 in file MKL25Z128xxx4.s
   Uses
      At line 591 in file ServoControl.s
Comment: PORTE_PCR30 used once
PORTE_PCR30_OFFSET 00000078

Symbol: PORTE_PCR30_OFFSET
   Definitions
      At line 1542 in file MKL25Z128xxx4.s
   Uses
      At line 1577 in file MKL25Z128xxx4.s
Comment: PORTE_PCR30_OFFSET used once
PORTE_PCR31 4004D07C

Symbol: PORTE_PCR31
   Definitions
      At line 1578 in file MKL25Z128xxx4.s
   Uses
      None
Comment: PORTE_PCR31 unused
PORTE_PCR31_OFFSET 0000007C

Symbol: PORTE_PCR31_OFFSET
   Definitions
      At line 1543 in file MKL25Z128xxx4.s
   Uses
      At line 1578 in file MKL25Z128xxx4.s
Comment: PORTE_PCR31_OFFSET used once
PORTE_PCR3_OFFSET 0000000C

Symbol: PORTE_PCR3_OFFSET
   Definitions
      At line 1515 in file MKL25Z128xxx4.s
   Uses
      At line 1550 in file MKL25Z128xxx4.s
Comment: PORTE_PCR3_OFFSET used once
PORTE_PCR4 4004D010

Symbol: PORTE_PCR4
   Definitions
      At line 1551 in file MKL25Z128xxx4.s
   Uses
      None
Comment: PORTE_PCR4 unused
PORTE_PCR4_OFFSET 00000010

Symbol: PORTE_PCR4_OFFSET
   Definitions
      At line 1516 in file MKL25Z128xxx4.s
   Uses
      At line 1551 in file MKL25Z128xxx4.s
Comment: PORTE_PCR4_OFFSET used once
PORTE_PCR5 4004D014



ARM Macro Assembler    Page 119 Alphabetic symbol ordering
Absolute symbols


Symbol: PORTE_PCR5
   Definitions
      At line 1552 in file MKL25Z128xxx4.s
   Uses
      None
Comment: PORTE_PCR5 unused
PORTE_PCR5_OFFSET 00000014

Symbol: PORTE_PCR5_OFFSET
   Definitions
      At line 1517 in file MKL25Z128xxx4.s
   Uses
      At line 1552 in file MKL25Z128xxx4.s
Comment: PORTE_PCR5_OFFSET used once
PORTE_PCR6 4004D018

Symbol: PORTE_PCR6
   Definitions
      At line 1553 in file MKL25Z128xxx4.s
   Uses
      None
Comment: PORTE_PCR6 unused
PORTE_PCR6_OFFSET 00000018

Symbol: PORTE_PCR6_OFFSET
   Definitions
      At line 1518 in file MKL25Z128xxx4.s
   Uses
      At line 1553 in file MKL25Z128xxx4.s
Comment: PORTE_PCR6_OFFSET used once
PORTE_PCR7 4004D01C

Symbol: PORTE_PCR7
   Definitions
      At line 1554 in file MKL25Z128xxx4.s
   Uses
      None
Comment: PORTE_PCR7 unused
PORTE_PCR7_OFFSET 0000001C

Symbol: PORTE_PCR7_OFFSET
   Definitions
      At line 1519 in file MKL25Z128xxx4.s
   Uses
      At line 1554 in file MKL25Z128xxx4.s
Comment: PORTE_PCR7_OFFSET used once
PORTE_PCR8 4004D020

Symbol: PORTE_PCR8
   Definitions
      At line 1555 in file MKL25Z128xxx4.s
   Uses
      None
Comment: PORTE_PCR8 unused
PORTE_PCR8_OFFSET 00000020

Symbol: PORTE_PCR8_OFFSET
   Definitions



ARM Macro Assembler    Page 120 Alphabetic symbol ordering
Absolute symbols

      At line 1520 in file MKL25Z128xxx4.s
   Uses
      At line 1555 in file MKL25Z128xxx4.s
Comment: PORTE_PCR8_OFFSET used once
PORTE_PCR9 4004D024

Symbol: PORTE_PCR9
   Definitions
      At line 1556 in file MKL25Z128xxx4.s
   Uses
      None
Comment: PORTE_PCR9 unused
PORTE_PCR9_OFFSET 00000024

Symbol: PORTE_PCR9_OFFSET
   Definitions
      At line 1521 in file MKL25Z128xxx4.s
   Uses
      At line 1556 in file MKL25Z128xxx4.s
Comment: PORTE_PCR9_OFFSET used once
PSR_C_MASK 20000000

Symbol: PSR_C_MASK
   Definitions
      At line 88 in file MKL25Z128xxx4.s
   Uses
      None
Comment: PSR_C_MASK unused
PSR_EXCEPTION_MASK 0000003F

Symbol: PSR_EXCEPTION_MASK
   Definitions
      At line 91 in file MKL25Z128xxx4.s
   Uses
      None
Comment: PSR_EXCEPTION_MASK unused
PSR_N_MASK 80000000

Symbol: PSR_N_MASK
   Definitions
      At line 86 in file MKL25Z128xxx4.s
   Uses
      None
Comment: PSR_N_MASK unused
PSR_T_MASK 01000000

Symbol: PSR_T_MASK
   Definitions
      At line 90 in file MKL25Z128xxx4.s
   Uses
      None
Comment: PSR_T_MASK unused
PSR_V_MASK 10000000

Symbol: PSR_V_MASK
   Definitions
      At line 89 in file MKL25Z128xxx4.s
   Uses
      None



ARM Macro Assembler    Page 121 Alphabetic symbol ordering
Absolute symbols

Comment: PSR_V_MASK unused
PSR_Z_MASK 40000000

Symbol: PSR_Z_MASK
   Definitions
      At line 87 in file MKL25Z128xxx4.s
   Uses
      None
Comment: PSR_Z_MASK unused
PTC3_MUX_UART1_RX 00000300

Symbol: PTC3_MUX_UART1_RX
   Definitions
      At line 80 in file ServoControl.s
   Uses
      At line 82 in file ServoControl.s
Comment: PTC3_MUX_UART1_RX used once
PTC4_MUX_UART1_TX 00000300

Symbol: PTC4_MUX_UART1_TX
   Definitions
      At line 81 in file ServoControl.s
   Uses
      At line 83 in file ServoControl.s
Comment: PTC4_MUX_UART1_TX used once
PTE22_MUX_TMP2_CH0_OUT 00000300

Symbol: PTE22_MUX_TMP2_CH0_OUT
   Definitions
      At line 68 in file ServoControl.s
   Uses
      At line 69 in file ServoControl.s
Comment: PTE22_MUX_TMP2_CH0_OUT used once
PTE30_MUX_DAC0_OUT 00000000

Symbol: PTE30_MUX_DAC0_OUT
   Definitions
      At line 66 in file ServoControl.s
   Uses
      At line 67 in file ServoControl.s
Comment: PTE30_MUX_DAC0_OUT used once
PWM_DUTY_10 00001770

Symbol: PWM_DUTY_10
   Definitions
      At line 48 in file ServoControl.s
   Uses
      At line 917 in file ServoControl.s
      At line 918 in file ServoControl.s
      At line 919 in file ServoControl.s
      At line 920 in file ServoControl.s

PWM_DUTY_5 000007D0

Symbol: PWM_DUTY_5
   Definitions
      At line 47 in file ServoControl.s
   Uses
      At line 740 in file ServoControl.s



ARM Macro Assembler    Page 122 Alphabetic symbol ordering
Absolute symbols

      At line 918 in file ServoControl.s
      At line 918 in file ServoControl.s
      At line 919 in file ServoControl.s
      At line 919 in file ServoControl.s
      At line 920 in file ServoControl.s
      At line 920 in file ServoControl.s
      At line 921 in file ServoControl.s

PWM_PERIOD_20ms 0000EA60

Symbol: PWM_PERIOD_20ms
   Definitions
      At line 46 in file ServoControl.s
   Uses
      At line 733 in file ServoControl.s
Comment: PWM_PERIOD_20ms used once
PendSR_Vector 0000000E

Symbol: PendSR_Vector
   Definitions
      At line 1051 in file MKL25Z128xxx4.s
   Uses
      None
Comment: PendSR_Vector unused
Q_BUF_SZ 00000050

Symbol: Q_BUF_SZ
   Definitions
      At line 39 in file ServoControl.s
   Uses
      At line 564 in file ServoControl.s
      At line 566 in file ServoControl.s
      At line 931 in file ServoControl.s
      At line 935 in file ServoControl.s

Q_REC_SZ 00000012

Symbol: Q_REC_SZ
   Definitions
      At line 38 in file ServoControl.s
   Uses
      At line 929 in file ServoControl.s
      At line 933 in file ServoControl.s

RET_ADDR_T_MASK 00000001

Symbol: RET_ADDR_T_MASK
   Definitions
      At line 40 in file MKL25Z128xxx4.s
   Uses
      None
Comment: RET_ADDR_T_MASK unused
RTC_IPR E000E414

Symbol: RTC_IPR
   Definitions
      At line 919 in file MKL25Z128xxx4.s
   Uses
      None



ARM Macro Assembler    Page 123 Alphabetic symbol ordering
Absolute symbols

Comment: RTC_IPR unused
RTC_IRQ 00000014

Symbol: RTC_IRQ
   Definitions
      At line 989 in file MKL25Z128xxx4.s
   Uses
      At line 1023 in file MKL25Z128xxx4.s
Comment: RTC_IRQ used once
RTC_IRQ_MASK 00100000

Symbol: RTC_IRQ_MASK
   Definitions
      At line 1023 in file MKL25Z128xxx4.s
   Uses
      None
Comment: RTC_IRQ_MASK unused
RTC_PRI_POS 00000006

Symbol: RTC_PRI_POS
   Definitions
      At line 955 in file MKL25Z128xxx4.s
   Uses
      None
Comment: RTC_PRI_POS unused
RTC_Seconds_IPR E000E414

Symbol: RTC_Seconds_IPR
   Definitions
      At line 920 in file MKL25Z128xxx4.s
   Uses
      None
Comment: RTC_Seconds_IPR unused
RTC_Seconds_IRQ 00000015

Symbol: RTC_Seconds_IRQ
   Definitions
      At line 990 in file MKL25Z128xxx4.s
   Uses
      At line 1024 in file MKL25Z128xxx4.s
Comment: RTC_Seconds_IRQ used once
RTC_Seconds_IRQ_MASK 00200000

Symbol: RTC_Seconds_IRQ_MASK
   Definitions
      At line 1024 in file MKL25Z128xxx4.s
   Uses
      None
Comment: RTC_Seconds_IRQ_MASK unused
RTC_Seconds_PRI_POS 0000000E

Symbol: RTC_Seconds_PRI_POS
   Definitions
      At line 956 in file MKL25Z128xxx4.s
   Uses
      None
Comment: RTC_Seconds_PRI_POS unused
RTC_Seconds_Vector 00000025




ARM Macro Assembler    Page 124 Alphabetic symbol ordering
Absolute symbols

Symbol: RTC_Seconds_Vector
   Definitions
      At line 1074 in file MKL25Z128xxx4.s
   Uses
      None
Comment: RTC_Seconds_Vector unused
RTC_Vector 00000024

Symbol: RTC_Vector
   Definitions
      At line 1073 in file MKL25Z128xxx4.s
   Uses
      None
Comment: RTC_Vector unused
Reserved04_Vector 00000004

Symbol: Reserved04_Vector
   Definitions
      At line 1041 in file MKL25Z128xxx4.s
   Uses
      None
Comment: Reserved04_Vector unused
Reserved05_Vector 00000005

Symbol: Reserved05_Vector
   Definitions
      At line 1042 in file MKL25Z128xxx4.s
   Uses
      None
Comment: Reserved05_Vector unused
Reserved06_Vector 00000006

Symbol: Reserved06_Vector
   Definitions
      At line 1043 in file MKL25Z128xxx4.s
   Uses
      None
Comment: Reserved06_Vector unused
Reserved07_Vector 00000007

Symbol: Reserved07_Vector
   Definitions
      At line 1044 in file MKL25Z128xxx4.s
   Uses
      None
Comment: Reserved07_Vector unused
Reserved08_Vector 00000008

Symbol: Reserved08_Vector
   Definitions
      At line 1045 in file MKL25Z128xxx4.s
   Uses
      None
Comment: Reserved08_Vector unused
Reserved09_Vector 00000009

Symbol: Reserved09_Vector
   Definitions
      At line 1046 in file MKL25Z128xxx4.s



ARM Macro Assembler    Page 125 Alphabetic symbol ordering
Absolute symbols

   Uses
      None
Comment: Reserved09_Vector unused
Reserved10_Vector 0000000A

Symbol: Reserved10_Vector
   Definitions
      At line 1047 in file MKL25Z128xxx4.s
   Uses
      None
Comment: Reserved10_Vector unused
Reserved12_Vector 0000000C

Symbol: Reserved12_Vector
   Definitions
      At line 1049 in file MKL25Z128xxx4.s
   Uses
      None
Comment: Reserved12_Vector unused
Reserved13_Vector 0000000D

Symbol: Reserved13_Vector
   Definitions
      At line 1050 in file MKL25Z128xxx4.s
   Uses
      None
Comment: Reserved13_Vector unused
Reserved20_IPR E000E404

Symbol: Reserved20_IPR
   Definitions
      At line 903 in file MKL25Z128xxx4.s
   Uses
      None
Comment: Reserved20_IPR unused
Reserved20_IRQ 00000004

Symbol: Reserved20_IRQ
   Definitions
      At line 973 in file MKL25Z128xxx4.s
   Uses
      At line 1007 in file MKL25Z128xxx4.s
Comment: Reserved20_IRQ used once
Reserved20_IRQ_MASK 00000010

Symbol: Reserved20_IRQ_MASK
   Definitions
      At line 1007 in file MKL25Z128xxx4.s
   Uses
      None
Comment: Reserved20_IRQ_MASK unused
Reserved20_PRI_POS 00000006

Symbol: Reserved20_PRI_POS
   Definitions
      At line 939 in file MKL25Z128xxx4.s
   Uses
      None
Comment: Reserved20_PRI_POS unused



ARM Macro Assembler    Page 126 Alphabetic symbol ordering
Absolute symbols

Reserved20_Vector 00000014

Symbol: Reserved20_Vector
   Definitions
      At line 1057 in file MKL25Z128xxx4.s
   Uses
      None
Comment: Reserved20_Vector unused
Reserved39_IPR E000E414

Symbol: Reserved39_IPR
   Definitions
      At line 922 in file MKL25Z128xxx4.s
   Uses
      None
Comment: Reserved39_IPR unused
Reserved39_IRQ 00000017

Symbol: Reserved39_IRQ
   Definitions
      At line 992 in file MKL25Z128xxx4.s
   Uses
      At line 1026 in file MKL25Z128xxx4.s
Comment: Reserved39_IRQ used once
Reserved39_IRQ_MASK 00800000

Symbol: Reserved39_IRQ_MASK
   Definitions
      At line 1026 in file MKL25Z128xxx4.s
   Uses
      None
Comment: Reserved39_IRQ_MASK unused
Reserved39_PRI_POS 0000001E

Symbol: Reserved39_PRI_POS
   Definitions
      At line 958 in file MKL25Z128xxx4.s
   Uses
      None
Comment: Reserved39_PRI_POS unused
Reserved39_Vector 00000027

Symbol: Reserved39_Vector
   Definitions
      At line 1076 in file MKL25Z128xxx4.s
   Uses
      None
Comment: Reserved39_Vector unused
Reserved45_IPR E000E41C

Symbol: Reserved45_IPR
   Definitions
      At line 928 in file MKL25Z128xxx4.s
   Uses
      None
Comment: Reserved45_IPR unused
Reserved45_IRQ 0000001D

Symbol: Reserved45_IRQ



ARM Macro Assembler    Page 127 Alphabetic symbol ordering
Absolute symbols

   Definitions
      At line 998 in file MKL25Z128xxx4.s
   Uses
      At line 1032 in file MKL25Z128xxx4.s
Comment: Reserved45_IRQ used once
Reserved45_IRQ_MASK 20000000

Symbol: Reserved45_IRQ_MASK
   Definitions
      At line 1032 in file MKL25Z128xxx4.s
   Uses
      None
Comment: Reserved45_IRQ_MASK unused
Reserved45_PRI_POS 0000000E

Symbol: Reserved45_PRI_POS
   Definitions
      At line 964 in file MKL25Z128xxx4.s
   Uses
      None
Comment: Reserved45_PRI_POS unused
Reserved45_Vector 0000002D

Symbol: Reserved45_Vector
   Definitions
      At line 1082 in file MKL25Z128xxx4.s
   Uses
      None
Comment: Reserved45_Vector unused
Reset_Vector 00000001

Symbol: Reset_Vector
   Definitions
      At line 1038 in file MKL25Z128xxx4.s
   Uses
      None
Comment: Reset_Vector unused
SERVO_POSITIONS 00000005

Symbol: SERVO_POSITIONS
   Definitions
      At line 43 in file ServoControl.s
   Uses
      At line 909 in file ServoControl.s
      At line 910 in file ServoControl.s
      At line 911 in file ServoControl.s
      At line 912 in file ServoControl.s
      At line 913 in file ServoControl.s

SET_PTC3_UART1_RX 01000300

Symbol: SET_PTC3_UART1_RX
   Definitions
      At line 82 in file ServoControl.s
   Uses
      At line 767 in file ServoControl.s
Comment: SET_PTC3_UART1_RX used once
SET_PTC4_UART1_TX 01000300




ARM Macro Assembler    Page 128 Alphabetic symbol ordering
Absolute symbols

Symbol: SET_PTC4_UART1_TX
   Definitions
      At line 83 in file ServoControl.s
   Uses
      At line 771 in file ServoControl.s
Comment: SET_PTC4_UART1_TX used once
SET_PTE22_TMP_2_CH0 01000340

Symbol: SET_PTE22_TMP_2_CH0
   Definitions
      At line 69 in file ServoControl.s
   Uses
      At line 718 in file ServoControl.s
Comment: SET_PTE22_TMP_2_CH0 used once
SET_PTE30_DAC0_OUT 01000000

Symbol: SET_PTE30_DAC0_OUT
   Definitions
      At line 67 in file ServoControl.s
   Uses
      At line 592 in file ServoControl.s
Comment: SET_PTE30_DAC0_OUT used once
SIM_BASE 40047000

Symbol: SIM_BASE
   Definitions
      At line 1584 in file MKL25Z128xxx4.s
   Uses
      At line 1603 in file MKL25Z128xxx4.s
      At line 1604 in file MKL25Z128xxx4.s
      At line 1605 in file MKL25Z128xxx4.s
      At line 1606 in file MKL25Z128xxx4.s
      At line 1607 in file MKL25Z128xxx4.s
      At line 1608 in file MKL25Z128xxx4.s
      At line 1609 in file MKL25Z128xxx4.s
      At line 1610 in file MKL25Z128xxx4.s
      At line 1611 in file MKL25Z128xxx4.s
      At line 1612 in file MKL25Z128xxx4.s
      At line 1613 in file MKL25Z128xxx4.s
      At line 1614 in file MKL25Z128xxx4.s
      At line 1615 in file MKL25Z128xxx4.s
      At line 1616 in file MKL25Z128xxx4.s
      At line 1617 in file MKL25Z128xxx4.s
      At line 1618 in file MKL25Z128xxx4.s
      At line 1619 in file MKL25Z128xxx4.s
      At line 1620 in file MKL25Z128xxx4.s

SIM_CLKDIV1 40048044

Symbol: SIM_CLKDIV1
   Definitions
      At line 1603 in file MKL25Z128xxx4.s
   Uses
      At line 2254 in file MKL25Z128xxx4.s
Comment: SIM_CLKDIV1 used once
SIM_CLKDIV1_OFFSET 00001044

Symbol: SIM_CLKDIV1_OFFSET
   Definitions



ARM Macro Assembler    Page 129 Alphabetic symbol ordering
Absolute symbols

      At line 1595 in file MKL25Z128xxx4.s
   Uses
      At line 1603 in file MKL25Z128xxx4.s
Comment: SIM_CLKDIV1_OFFSET used once
SIM_CLKDIV1_OUTDIV1_DIV2_MASK 10000000

Symbol: SIM_CLKDIV1_OUTDIV1_DIV2_MASK
   Definitions
      At line 1635 in file MKL25Z128xxx4.s
   Uses
      At line 1637 in file MKL25Z128xxx4.s
Comment: SIM_CLKDIV1_OUTDIV1_DIV2_MASK used once
SIM_CLKDIV1_OUTDIV1_MASK F0000000

Symbol: SIM_CLKDIV1_OUTDIV1_MASK
   Definitions
      At line 1633 in file MKL25Z128xxx4.s
   Uses
      None
Comment: SIM_CLKDIV1_OUTDIV1_MASK unused
SIM_CLKDIV1_OUTDIV4_DIV2_MASK 00010000

Symbol: SIM_CLKDIV1_OUTDIV4_DIV2_MASK
   Definitions
      At line 1636 in file MKL25Z128xxx4.s
   Uses
      At line 1637 in file MKL25Z128xxx4.s
Comment: SIM_CLKDIV1_OUTDIV4_DIV2_MASK used once
SIM_CLKDIV1_OUTDIV4_MASK 00070000

Symbol: SIM_CLKDIV1_OUTDIV4_MASK
   Definitions
      At line 1634 in file MKL25Z128xxx4.s
   Uses
      None
Comment: SIM_CLKDIV1_OUTDIV4_MASK unused
SIM_COPC 40048100

Symbol: SIM_COPC
   Definitions
      At line 1604 in file MKL25Z128xxx4.s
   Uses
      At line 2114 in file MKL25Z128xxx4.s
Comment: SIM_COPC used once
SIM_COPC_OFFSET 00001100

Symbol: SIM_COPC_OFFSET
   Definitions
      At line 1601 in file MKL25Z128xxx4.s
   Uses
      At line 1604 in file MKL25Z128xxx4.s
Comment: SIM_COPC_OFFSET used once
SIM_CORE_DIV2_BUS_DIV2 10010000

Symbol: SIM_CORE_DIV2_BUS_DIV2
   Definitions
      At line 1637 in file MKL25Z128xxx4.s
   Uses
      At line 2255 in file MKL25Z128xxx4.s



ARM Macro Assembler    Page 130 Alphabetic symbol ordering
Absolute symbols

Comment: SIM_CORE_DIV2_BUS_DIV2 used once
SIM_FCFG1 4004804C

Symbol: SIM_FCFG1
   Definitions
      At line 1605 in file MKL25Z128xxx4.s
   Uses
      None
Comment: SIM_FCFG1 unused
SIM_FCFG1_OFFSET 0000104C

Symbol: SIM_FCFG1_OFFSET
   Definitions
      At line 1596 in file MKL25Z128xxx4.s
   Uses
      At line 1605 in file MKL25Z128xxx4.s
Comment: SIM_FCFG1_OFFSET used once
SIM_FCFG2 40048050

Symbol: SIM_FCFG2
   Definitions
      At line 1606 in file MKL25Z128xxx4.s
   Uses
      None
Comment: SIM_FCFG2 unused
SIM_FCFG2_OFFSET 00001050

Symbol: SIM_FCFG2_OFFSET
   Definitions
      At line 1597 in file MKL25Z128xxx4.s
   Uses
      At line 1606 in file MKL25Z128xxx4.s
Comment: SIM_FCFG2_OFFSET used once
SIM_SCGC4 40048034

Symbol: SIM_SCGC4
   Definitions
      At line 1607 in file MKL25Z128xxx4.s
   Uses
      At line 754 in file ServoControl.s
Comment: SIM_SCGC4 used once
SIM_SCGC4_CMP_MASK 00080000

Symbol: SIM_SCGC4_CMP_MASK
   Definitions
      At line 1675 in file MKL25Z128xxx4.s
   Uses
      None
Comment: SIM_SCGC4_CMP_MASK unused
SIM_SCGC4_I2C0_MASK 00000040

Symbol: SIM_SCGC4_I2C0_MASK
   Definitions
      At line 1681 in file MKL25Z128xxx4.s
   Uses
      None
Comment: SIM_SCGC4_I2C0_MASK unused
SIM_SCGC4_I2C1_MASK 00000080




ARM Macro Assembler    Page 131 Alphabetic symbol ordering
Absolute symbols

Symbol: SIM_SCGC4_I2C1_MASK
   Definitions
      At line 1680 in file MKL25Z128xxx4.s
   Uses
      None
Comment: SIM_SCGC4_I2C1_MASK unused
SIM_SCGC4_OFFSET 00001034

Symbol: SIM_SCGC4_OFFSET
   Definitions
      At line 1591 in file MKL25Z128xxx4.s
   Uses
      At line 1607 in file MKL25Z128xxx4.s
Comment: SIM_SCGC4_OFFSET used once
SIM_SCGC4_SPI0_MASK 00400000

Symbol: SIM_SCGC4_SPI0_MASK
   Definitions
      At line 1674 in file MKL25Z128xxx4.s
   Uses
      None
Comment: SIM_SCGC4_SPI0_MASK unused
SIM_SCGC4_SPI1_MASK 00800000

Symbol: SIM_SCGC4_SPI1_MASK
   Definitions
      At line 1673 in file MKL25Z128xxx4.s
   Uses
      None
Comment: SIM_SCGC4_SPI1_MASK unused
SIM_SCGC4_UART0_MASK 00000400

Symbol: SIM_SCGC4_UART0_MASK
   Definitions
      At line 1679 in file MKL25Z128xxx4.s
   Uses
      None
Comment: SIM_SCGC4_UART0_MASK unused
SIM_SCGC4_UART1_MASK 00000800

Symbol: SIM_SCGC4_UART1_MASK
   Definitions
      At line 1678 in file MKL25Z128xxx4.s
   Uses
      At line 87 in file ServoControl.s
Comment: SIM_SCGC4_UART1_MASK used once
SIM_SCGC4_UART2_MASK 00001000

Symbol: SIM_SCGC4_UART2_MASK
   Definitions
      At line 1677 in file MKL25Z128xxx4.s
   Uses
      None
Comment: SIM_SCGC4_UART2_MASK unused
SIM_SCGC4_USBOTG_MASK 00040000

Symbol: SIM_SCGC4_USBOTG_MASK
   Definitions
      At line 1676 in file MKL25Z128xxx4.s



ARM Macro Assembler    Page 132 Alphabetic symbol ordering
Absolute symbols

   Uses
      None
Comment: SIM_SCGC4_USBOTG_MASK unused
SIM_SCGC5 40048038

Symbol: SIM_SCGC5
   Definitions
      At line 1608 in file MKL25Z128xxx4.s
   Uses
      At line 585 in file ServoControl.s
      At line 711 in file ServoControl.s
      At line 760 in file ServoControl.s

SIM_SCGC5_LPTMR_MASK 00000001

Symbol: SIM_SCGC5_LPTMR_MASK
   Definitions
      At line 1704 in file MKL25Z128xxx4.s
   Uses
      None
Comment: SIM_SCGC5_LPTMR_MASK unused
SIM_SCGC5_OFFSET 00001038

Symbol: SIM_SCGC5_OFFSET
   Definitions
      At line 1592 in file MKL25Z128xxx4.s
   Uses
      At line 1608 in file MKL25Z128xxx4.s
Comment: SIM_SCGC5_OFFSET used once
SIM_SCGC5_PORTA_MASK 00000200

Symbol: SIM_SCGC5_PORTA_MASK
   Definitions
      At line 1702 in file MKL25Z128xxx4.s
   Uses
      None
Comment: SIM_SCGC5_PORTA_MASK unused
SIM_SCGC5_PORTB_MASK 00000400

Symbol: SIM_SCGC5_PORTB_MASK
   Definitions
      At line 1701 in file MKL25Z128xxx4.s
   Uses
      None
Comment: SIM_SCGC5_PORTB_MASK unused
SIM_SCGC5_PORTC_MASK 00000800

Symbol: SIM_SCGC5_PORTC_MASK
   Definitions
      At line 1700 in file MKL25Z128xxx4.s
   Uses
      At line 91 in file ServoControl.s
Comment: SIM_SCGC5_PORTC_MASK used once
SIM_SCGC5_PORTD_MASK 00001000

Symbol: SIM_SCGC5_PORTD_MASK
   Definitions
      At line 1699 in file MKL25Z128xxx4.s
   Uses



ARM Macro Assembler    Page 133 Alphabetic symbol ordering
Absolute symbols

      None
Comment: SIM_SCGC5_PORTD_MASK unused
SIM_SCGC5_PORTE_MASK 00002000

Symbol: SIM_SCGC5_PORTE_MASK
   Definitions
      At line 1698 in file MKL25Z128xxx4.s
   Uses
      At line 586 in file ServoControl.s
      At line 712 in file ServoControl.s

SIM_SCGC5_TSI_MASK 00000020

Symbol: SIM_SCGC5_TSI_MASK
   Definitions
      At line 1703 in file MKL25Z128xxx4.s
   Uses
      None
Comment: SIM_SCGC5_TSI_MASK unused
SIM_SCGC6 4004803C

Symbol: SIM_SCGC6
   Definitions
      At line 1609 in file MKL25Z128xxx4.s
   Uses
      At line 579 in file ServoControl.s
      At line 616 in file ServoControl.s
      At line 705 in file ServoControl.s

SIM_SCGC6_ADC0_MASK 08000000

Symbol: SIM_SCGC6_ADC0_MASK
   Definitions
      At line 1723 in file MKL25Z128xxx4.s
   Uses
      At line 618 in file ServoControl.s
Comment: SIM_SCGC6_ADC0_MASK used once
SIM_SCGC6_DAC0_MASK 80000000

Symbol: SIM_SCGC6_DAC0_MASK
   Definitions
      At line 1721 in file MKL25Z128xxx4.s
   Uses
      At line 580 in file ServoControl.s
Comment: SIM_SCGC6_DAC0_MASK used once
SIM_SCGC6_DMAMUX_MASK 00000002

Symbol: SIM_SCGC6_DMAMUX_MASK
   Definitions
      At line 1728 in file MKL25Z128xxx4.s
   Uses
      None
Comment: SIM_SCGC6_DMAMUX_MASK unused
SIM_SCGC6_FTF_MASK 00000001

Symbol: SIM_SCGC6_FTF_MASK
   Definitions
      At line 1729 in file MKL25Z128xxx4.s
   Uses



ARM Macro Assembler    Page 134 Alphabetic symbol ordering
Absolute symbols

      None
Comment: SIM_SCGC6_FTF_MASK unused
SIM_SCGC6_OFFSET 0000103C

Symbol: SIM_SCGC6_OFFSET
   Definitions
      At line 1593 in file MKL25Z128xxx4.s
   Uses
      At line 1609 in file MKL25Z128xxx4.s
Comment: SIM_SCGC6_OFFSET used once
SIM_SCGC6_PIT_MASK 00800000

Symbol: SIM_SCGC6_PIT_MASK
   Definitions
      At line 1727 in file MKL25Z128xxx4.s
   Uses
      None
Comment: SIM_SCGC6_PIT_MASK unused
SIM_SCGC6_RTC_MASK 20000000

Symbol: SIM_SCGC6_RTC_MASK
   Definitions
      At line 1722 in file MKL25Z128xxx4.s
   Uses
      None
Comment: SIM_SCGC6_RTC_MASK unused
SIM_SCGC6_TPM0_MASK 01000000

Symbol: SIM_SCGC6_TPM0_MASK
   Definitions
      At line 1726 in file MKL25Z128xxx4.s
   Uses
      None
Comment: SIM_SCGC6_TPM0_MASK unused
SIM_SCGC6_TPM1_MASK 02000000

Symbol: SIM_SCGC6_TPM1_MASK
   Definitions
      At line 1725 in file MKL25Z128xxx4.s
   Uses
      None
Comment: SIM_SCGC6_TPM1_MASK unused
SIM_SCGC6_TPM2_MASK 04000000

Symbol: SIM_SCGC6_TPM2_MASK
   Definitions
      At line 1724 in file MKL25Z128xxx4.s
   Uses
      At line 706 in file ServoControl.s
Comment: SIM_SCGC6_TPM2_MASK used once
SIM_SCGC7 40048040

Symbol: SIM_SCGC7
   Definitions
      At line 1610 in file MKL25Z128xxx4.s
   Uses
      None
Comment: SIM_SCGC7 unused
SIM_SCGC7_OFFSET 00001040



ARM Macro Assembler    Page 135 Alphabetic symbol ordering
Absolute symbols


Symbol: SIM_SCGC7_OFFSET
   Definitions
      At line 1594 in file MKL25Z128xxx4.s
   Uses
      At line 1610 in file MKL25Z128xxx4.s
Comment: SIM_SCGC7_OFFSET used once
SIM_SDID 40048024

Symbol: SIM_SDID
   Definitions
      At line 1611 in file MKL25Z128xxx4.s
   Uses
      None
Comment: SIM_SDID unused
SIM_SDID_OFFSET 00001024

Symbol: SIM_SDID_OFFSET
   Definitions
      At line 1590 in file MKL25Z128xxx4.s
   Uses
      At line 1611 in file MKL25Z128xxx4.s
Comment: SIM_SDID_OFFSET used once
SIM_SOPT1CFG 40047004

Symbol: SIM_SOPT1CFG
   Definitions
      At line 1612 in file MKL25Z128xxx4.s
   Uses
      None
Comment: SIM_SOPT1CFG unused
SIM_SOPT1CFG_OFFSET 00000004

Symbol: SIM_SOPT1CFG_OFFSET
   Definitions
      At line 1585 in file MKL25Z128xxx4.s
   Uses
      At line 1612 in file MKL25Z128xxx4.s
Comment: SIM_SOPT1CFG_OFFSET used once
SIM_SOPT2 40048004

Symbol: SIM_SOPT2
   Definitions
      At line 1613 in file MKL25Z128xxx4.s
   Uses
      At line 721 in file ServoControl.s
Comment: SIM_SOPT2 used once
SIM_SOPT2_CLKOUTSEL_MASK 000000E0

Symbol: SIM_SOPT2_CLKOUTSEL_MASK
   Definitions
      At line 1769 in file MKL25Z128xxx4.s
   Uses
      None
Comment: SIM_SOPT2_CLKOUTSEL_MASK unused
SIM_SOPT2_OFFSET 00001004

Symbol: SIM_SOPT2_OFFSET
   Definitions



ARM Macro Assembler    Page 136 Alphabetic symbol ordering
Absolute symbols

      At line 1586 in file MKL25Z128xxx4.s
   Uses
      At line 1613 in file MKL25Z128xxx4.s
Comment: SIM_SOPT2_OFFSET used once
SIM_SOPT2_PLLFLLSEL_MASK 00010000

Symbol: SIM_SOPT2_PLLFLLSEL_MASK
   Definitions
      At line 1768 in file MKL25Z128xxx4.s
   Uses
      At line 71 in file ServoControl.s
Comment: SIM_SOPT2_PLLFLLSEL_MASK used once
SIM_SOPT2_RTCCLKOUTSEL_MASK 00000010

Symbol: SIM_SOPT2_RTCCLKOUTSEL_MASK
   Definitions
      At line 1770 in file MKL25Z128xxx4.s
   Uses
      None
Comment: SIM_SOPT2_RTCCLKOUTSEL_MASK unused
SIM_SOPT2_TPMSRC_MASK 03000000

Symbol: SIM_SOPT2_TPMSRC_MASK
   Definitions
      At line 1766 in file MKL25Z128xxx4.s
   Uses
      At line 723 in file ServoControl.s
Comment: SIM_SOPT2_TPMSRC_MASK used once
SIM_SOPT2_UART0SRC_MASK 0C000000

Symbol: SIM_SOPT2_UART0SRC_MASK
   Definitions
      At line 1765 in file MKL25Z128xxx4.s
   Uses
      None
Comment: SIM_SOPT2_UART0SRC_MASK unused
SIM_SOPT2_USBSRC_MASK 00040000

Symbol: SIM_SOPT2_USBSRC_MASK
   Definitions
      At line 1767 in file MKL25Z128xxx4.s
   Uses
      None
Comment: SIM_SOPT2_USBSRC_MASK unused
SIM_SOPT4 4004800C

Symbol: SIM_SOPT4
   Definitions
      At line 1614 in file MKL25Z128xxx4.s
   Uses
      None
Comment: SIM_SOPT4 unused
SIM_SOPT4_OFFSET 0000100C

Symbol: SIM_SOPT4_OFFSET
   Definitions
      At line 1587 in file MKL25Z128xxx4.s
   Uses
      At line 1614 in file MKL25Z128xxx4.s



ARM Macro Assembler    Page 137 Alphabetic symbol ordering
Absolute symbols

Comment: SIM_SOPT4_OFFSET used once
SIM_SOPT5 40048010

Symbol: SIM_SOPT5
   Definitions
      At line 1615 in file MKL25Z128xxx4.s
   Uses
      At line 748 in file ServoControl.s
Comment: SIM_SOPT5 used once
SIM_SOPT5_OFFSET 00001010

Symbol: SIM_SOPT5_OFFSET
   Definitions
      At line 1588 in file MKL25Z128xxx4.s
   Uses
      At line 1615 in file MKL25Z128xxx4.s
Comment: SIM_SOPT5_OFFSET used once
SIM_SOPT7 40048018

Symbol: SIM_SOPT7
   Definitions
      At line 1616 in file MKL25Z128xxx4.s
   Uses
      None
Comment: SIM_SOPT7 unused
SIM_SOPT7_OFFSET 00001018

Symbol: SIM_SOPT7_OFFSET
   Definitions
      At line 1589 in file MKL25Z128xxx4.s
   Uses
      At line 1616 in file MKL25Z128xxx4.s
Comment: SIM_SOPT7_OFFSET used once
SIM_SRVCOP 40048104

Symbol: SIM_SRVCOP
   Definitions
      At line 1617 in file MKL25Z128xxx4.s
   Uses
      None
Comment: SIM_SRVCOP unused
SIM_SRVCOP_OFFSET 00001104

Symbol: SIM_SRVCOP_OFFSET
   Definitions
      At line 1602 in file MKL25Z128xxx4.s
   Uses
      At line 1617 in file MKL25Z128xxx4.s
Comment: SIM_SRVCOP_OFFSET used once
SIM_UIDL 40048060

Symbol: SIM_UIDL
   Definitions
      At line 1618 in file MKL25Z128xxx4.s
   Uses
      None
Comment: SIM_UIDL unused
SIM_UIDL_OFFSET 00001060




ARM Macro Assembler    Page 138 Alphabetic symbol ordering
Absolute symbols

Symbol: SIM_UIDL_OFFSET
   Definitions
      At line 1600 in file MKL25Z128xxx4.s
   Uses
      At line 1618 in file MKL25Z128xxx4.s
Comment: SIM_UIDL_OFFSET used once
SIM_UIDMH 40048058

Symbol: SIM_UIDMH
   Definitions
      At line 1619 in file MKL25Z128xxx4.s
   Uses
      None
Comment: SIM_UIDMH unused
SIM_UIDMH_OFFSET 00001058

Symbol: SIM_UIDMH_OFFSET
   Definitions
      At line 1598 in file MKL25Z128xxx4.s
   Uses
      At line 1619 in file MKL25Z128xxx4.s
Comment: SIM_UIDMH_OFFSET used once
SIM_UIDML 4004805C

Symbol: SIM_UIDML
   Definitions
      At line 1620 in file MKL25Z128xxx4.s
   Uses
      None
Comment: SIM_UIDML unused
SIM_UIDML_OFFSET 0000105C

Symbol: SIM_UIDML_OFFSET
   Definitions
      At line 1599 in file MKL25Z128xxx4.s
   Uses
      At line 1620 in file MKL25Z128xxx4.s
Comment: SIM_UIDML_OFFSET used once
SPI0_IPR E000E408

Symbol: SPI0_IPR
   Definitions
      At line 909 in file MKL25Z128xxx4.s
   Uses
      None
Comment: SPI0_IPR unused
SPI0_IRQ 0000000A

Symbol: SPI0_IRQ
   Definitions
      At line 979 in file MKL25Z128xxx4.s
   Uses
      At line 1013 in file MKL25Z128xxx4.s
Comment: SPI0_IRQ used once
SPI0_IRQ_MASK 00000400

Symbol: SPI0_IRQ_MASK
   Definitions
      At line 1013 in file MKL25Z128xxx4.s



ARM Macro Assembler    Page 139 Alphabetic symbol ordering
Absolute symbols

   Uses
      None
Comment: SPI0_IRQ_MASK unused
SPI0_PRI_POS 00000016

Symbol: SPI0_PRI_POS
   Definitions
      At line 945 in file MKL25Z128xxx4.s
   Uses
      None
Comment: SPI0_PRI_POS unused
SPI0_Vector 0000001A

Symbol: SPI0_Vector
   Definitions
      At line 1063 in file MKL25Z128xxx4.s
   Uses
      None
Comment: SPI0_Vector unused
SPI1_IPR E000E408

Symbol: SPI1_IPR
   Definitions
      At line 910 in file MKL25Z128xxx4.s
   Uses
      None
Comment: SPI1_IPR unused
SPI1_IRQ 0000000B

Symbol: SPI1_IRQ
   Definitions
      At line 980 in file MKL25Z128xxx4.s
   Uses
      At line 1014 in file MKL25Z128xxx4.s
Comment: SPI1_IRQ used once
SPI1_IRQ_MASK 00000800

Symbol: SPI1_IRQ_MASK
   Definitions
      At line 1014 in file MKL25Z128xxx4.s
   Uses
      None
Comment: SPI1_IRQ_MASK unused
SPI1_PRI_POS 0000001E

Symbol: SPI1_PRI_POS
   Definitions
      At line 946 in file MKL25Z128xxx4.s
   Uses
      None
Comment: SPI1_PRI_POS unused
SPI1_Vector 0000001B

Symbol: SPI1_Vector
   Definitions
      At line 1064 in file MKL25Z128xxx4.s
   Uses
      None
Comment: SPI1_Vector unused



ARM Macro Assembler    Page 140 Alphabetic symbol ordering
Absolute symbols

SSTACK_SIZE 00000100

Symbol: SSTACK_SIZE
   Definitions
      At line 17 in file ServoControl.s
   Uses
      At line 2302 in file MKL25Z128xxx4.s
Comment: SSTACK_SIZE used once
SVCall_Vector 0000000B

Symbol: SVCall_Vector
   Definitions
      At line 1048 in file MKL25Z128xxx4.s
   Uses
      None
Comment: SVCall_Vector unused
SysTick_Vector 0000000F

Symbol: SysTick_Vector
   Definitions
      At line 1052 in file MKL25Z128xxx4.s
   Uses
      None
Comment: SysTick_Vector unused
TMP0_IPR E000E410

Symbol: TMP0_IPR
   Definitions
      At line 916 in file MKL25Z128xxx4.s
   Uses
      None
Comment: TMP0_IPR unused
TMP0_IRQ 0000000F

Symbol: TMP0_IRQ
   Definitions
      At line 986 in file MKL25Z128xxx4.s
   Uses
      At line 1020 in file MKL25Z128xxx4.s
Comment: TMP0_IRQ used once
TMP0_IRQ_MASK 00008000

Symbol: TMP0_IRQ_MASK
   Definitions
      At line 1020 in file MKL25Z128xxx4.s
   Uses
      None
Comment: TMP0_IRQ_MASK unused
TMP0_PRI_POS 0000000E

Symbol: TMP0_PRI_POS
   Definitions
      At line 952 in file MKL25Z128xxx4.s
   Uses
      None
Comment: TMP0_PRI_POS unused
TMP0_Vector 00000021

Symbol: TMP0_Vector



ARM Macro Assembler    Page 141 Alphabetic symbol ordering
Absolute symbols

   Definitions
      At line 1070 in file MKL25Z128xxx4.s
   Uses
      None
Comment: TMP0_Vector unused
TPM1_IPR E000E410

Symbol: TPM1_IPR
   Definitions
      At line 917 in file MKL25Z128xxx4.s
   Uses
      None
Comment: TPM1_IPR unused
TPM1_IRQ 00000012

Symbol: TPM1_IRQ
   Definitions
      At line 987 in file MKL25Z128xxx4.s
   Uses
      At line 1021 in file MKL25Z128xxx4.s
Comment: TPM1_IRQ used once
TPM1_IRQ_MASK 00040000

Symbol: TPM1_IRQ_MASK
   Definitions
      At line 1021 in file MKL25Z128xxx4.s
   Uses
      None
Comment: TPM1_IRQ_MASK unused
TPM1_PRI_POS 00000016

Symbol: TPM1_PRI_POS
   Definitions
      At line 953 in file MKL25Z128xxx4.s
   Uses
      None
Comment: TPM1_PRI_POS unused
TPM1_Vector 00000022

Symbol: TPM1_Vector
   Definitions
      At line 1071 in file MKL25Z128xxx4.s
   Uses
      None
Comment: TPM1_Vector unused
TPM2_BASE 4003A000

Symbol: TPM2_BASE
   Definitions
      At line 1961 in file MKL25Z128xxx4.s
   Uses
      At line 1962 in file MKL25Z128xxx4.s
      At line 1963 in file MKL25Z128xxx4.s
      At line 1964 in file MKL25Z128xxx4.s
      At line 1965 in file MKL25Z128xxx4.s
      At line 1966 in file MKL25Z128xxx4.s
      At line 1967 in file MKL25Z128xxx4.s
      At line 1968 in file MKL25Z128xxx4.s
      At line 1969 in file MKL25Z128xxx4.s



ARM Macro Assembler    Page 142 Alphabetic symbol ordering
Absolute symbols

      At line 1970 in file MKL25Z128xxx4.s
      At line 1971 in file MKL25Z128xxx4.s
      At line 1972 in file MKL25Z128xxx4.s
      At line 1973 in file MKL25Z128xxx4.s
      At line 1974 in file MKL25Z128xxx4.s
      At line 1975 in file MKL25Z128xxx4.s
      At line 1976 in file MKL25Z128xxx4.s
      At line 1977 in file MKL25Z128xxx4.s
      At line 1978 in file MKL25Z128xxx4.s
      At line 272 in file ServoControl.s
      At line 729 in file ServoControl.s

TPM2_C0SC 4003A00C

Symbol: TPM2_C0SC
   Definitions
      At line 1965 in file MKL25Z128xxx4.s
   Uses
      None
Comment: TPM2_C0SC unused
TPM2_C0V 4003A010

Symbol: TPM2_C0V
   Definitions
      At line 1966 in file MKL25Z128xxx4.s
   Uses
      None
Comment: TPM2_C0V unused
TPM2_C1SC 4003A014

Symbol: TPM2_C1SC
   Definitions
      At line 1967 in file MKL25Z128xxx4.s
   Uses
      None
Comment: TPM2_C1SC unused
TPM2_C1V 4003A018

Symbol: TPM2_C1V
   Definitions
      At line 1968 in file MKL25Z128xxx4.s
   Uses
      None
Comment: TPM2_C1V unused
TPM2_C2SC 4003A01C

Symbol: TPM2_C2SC
   Definitions
      At line 1969 in file MKL25Z128xxx4.s
   Uses
      None
Comment: TPM2_C2SC unused
TPM2_C2V 4003A020

Symbol: TPM2_C2V
   Definitions
      At line 1970 in file MKL25Z128xxx4.s
   Uses
      None



ARM Macro Assembler    Page 143 Alphabetic symbol ordering
Absolute symbols

Comment: TPM2_C2V unused
TPM2_C3SC 4003A024

Symbol: TPM2_C3SC
   Definitions
      At line 1971 in file MKL25Z128xxx4.s
   Uses
      None
Comment: TPM2_C3SC unused
TPM2_C3V 4003A028

Symbol: TPM2_C3V
   Definitions
      At line 1972 in file MKL25Z128xxx4.s
   Uses
      None
Comment: TPM2_C3V unused
TPM2_C4SC 4003A02C

Symbol: TPM2_C4SC
   Definitions
      At line 1973 in file MKL25Z128xxx4.s
   Uses
      None
Comment: TPM2_C4SC unused
TPM2_C4V 4003A030

Symbol: TPM2_C4V
   Definitions
      At line 1974 in file MKL25Z128xxx4.s
   Uses
      None
Comment: TPM2_C4V unused
TPM2_C5SC 4003A034

Symbol: TPM2_C5SC
   Definitions
      At line 1975 in file MKL25Z128xxx4.s
   Uses
      None
Comment: TPM2_C5SC unused
TPM2_C5V 4003A038

Symbol: TPM2_C5V
   Definitions
      At line 1976 in file MKL25Z128xxx4.s
   Uses
      None
Comment: TPM2_C5V unused
TPM2_CNT 4003A004

Symbol: TPM2_CNT
   Definitions
      At line 1963 in file MKL25Z128xxx4.s
   Uses
      None
Comment: TPM2_CNT unused
TPM2_CONF 4003A084




ARM Macro Assembler    Page 144 Alphabetic symbol ordering
Absolute symbols

Symbol: TPM2_CONF
   Definitions
      At line 1978 in file MKL25Z128xxx4.s
   Uses
      None
Comment: TPM2_CONF unused
TPM2_IPR E000E410

Symbol: TPM2_IPR
   Definitions
      At line 918 in file MKL25Z128xxx4.s
   Uses
      None
Comment: TPM2_IPR unused
TPM2_IRQ 00000013

Symbol: TPM2_IRQ
   Definitions
      At line 988 in file MKL25Z128xxx4.s
   Uses
      At line 1022 in file MKL25Z128xxx4.s
Comment: TPM2_IRQ used once
TPM2_IRQ_MASK 00080000

Symbol: TPM2_IRQ_MASK
   Definitions
      At line 1022 in file MKL25Z128xxx4.s
   Uses
      None
Comment: TPM2_IRQ_MASK unused
TPM2_MOD 4003A008

Symbol: TPM2_MOD
   Definitions
      At line 1964 in file MKL25Z128xxx4.s
   Uses
      None
Comment: TPM2_MOD unused
TPM2_PRI_POS 0000001E

Symbol: TPM2_PRI_POS
   Definitions
      At line 954 in file MKL25Z128xxx4.s
   Uses
      None
Comment: TPM2_PRI_POS unused
TPM2_SC 4003A000

Symbol: TPM2_SC
   Definitions
      At line 1962 in file MKL25Z128xxx4.s
   Uses
      None
Comment: TPM2_SC unused
TPM2_STATUS 4003A050

Symbol: TPM2_STATUS
   Definitions
      At line 1977 in file MKL25Z128xxx4.s



ARM Macro Assembler    Page 145 Alphabetic symbol ordering
Absolute symbols

   Uses
      None
Comment: TPM2_STATUS unused
TPM2_Vector 00000023

Symbol: TPM2_Vector
   Definitions
      At line 1072 in file MKL25Z128xxx4.s
   Uses
      None
Comment: TPM2_Vector unused
TPM_C0SC_OFFSET 0000000C

Symbol: TPM_C0SC_OFFSET
   Definitions
      At line 1808 in file MKL25Z128xxx4.s
   Uses
      At line 1965 in file MKL25Z128xxx4.s
      At line 739 in file ServoControl.s

TPM_C0V_OFFSET 00000010

Symbol: TPM_C0V_OFFSET
   Definitions
      At line 1809 in file MKL25Z128xxx4.s
   Uses
      At line 1966 in file MKL25Z128xxx4.s
      At line 274 in file ServoControl.s
      At line 741 in file ServoControl.s

TPM_C1SC_OFFSET 00000014

Symbol: TPM_C1SC_OFFSET
   Definitions
      At line 1810 in file MKL25Z128xxx4.s
   Uses
      At line 1967 in file MKL25Z128xxx4.s
Comment: TPM_C1SC_OFFSET used once
TPM_C1V_OFFSET 00000018

Symbol: TPM_C1V_OFFSET
   Definitions
      At line 1811 in file MKL25Z128xxx4.s
   Uses
      At line 1968 in file MKL25Z128xxx4.s
Comment: TPM_C1V_OFFSET used once
TPM_C2SC_OFFSET 0000001C

Symbol: TPM_C2SC_OFFSET
   Definitions
      At line 1812 in file MKL25Z128xxx4.s
   Uses
      At line 1969 in file MKL25Z128xxx4.s
Comment: TPM_C2SC_OFFSET used once
TPM_C2V_OFFSET 00000020

Symbol: TPM_C2V_OFFSET
   Definitions
      At line 1813 in file MKL25Z128xxx4.s



ARM Macro Assembler    Page 146 Alphabetic symbol ordering
Absolute symbols

   Uses
      At line 1970 in file MKL25Z128xxx4.s
Comment: TPM_C2V_OFFSET used once
TPM_C3SC_OFFSET 00000024

Symbol: TPM_C3SC_OFFSET
   Definitions
      At line 1814 in file MKL25Z128xxx4.s
   Uses
      At line 1971 in file MKL25Z128xxx4.s
Comment: TPM_C3SC_OFFSET used once
TPM_C3V_OFFSET 00000028

Symbol: TPM_C3V_OFFSET
   Definitions
      At line 1815 in file MKL25Z128xxx4.s
   Uses
      At line 1972 in file MKL25Z128xxx4.s
Comment: TPM_C3V_OFFSET used once
TPM_C4SC_OFFSET 0000002C

Symbol: TPM_C4SC_OFFSET
   Definitions
      At line 1816 in file MKL25Z128xxx4.s
   Uses
      At line 1973 in file MKL25Z128xxx4.s
Comment: TPM_C4SC_OFFSET used once
TPM_C4V_OFFSET 00000030

Symbol: TPM_C4V_OFFSET
   Definitions
      At line 1817 in file MKL25Z128xxx4.s
   Uses
      At line 1974 in file MKL25Z128xxx4.s
Comment: TPM_C4V_OFFSET used once
TPM_C5SC_OFFSET 00000034

Symbol: TPM_C5SC_OFFSET
   Definitions
      At line 1818 in file MKL25Z128xxx4.s
   Uses
      At line 1975 in file MKL25Z128xxx4.s
Comment: TPM_C5SC_OFFSET used once
TPM_C5V_OFFSET 00000038

Symbol: TPM_C5V_OFFSET
   Definitions
      At line 1819 in file MKL25Z128xxx4.s
   Uses
      At line 1976 in file MKL25Z128xxx4.s
Comment: TPM_C5V_OFFSET used once
TPM_CDMA_MASK 00000001

Symbol: TPM_CDMA_MASK
   Definitions
      At line 1856 in file MKL25Z128xxx4.s
   Uses
      None
Comment: TPM_CDMA_MASK unused



ARM Macro Assembler    Page 147 Alphabetic symbol ordering
Absolute symbols

TPM_CHF_MASK 00000080

Symbol: TPM_CHF_MASK
   Definitions
      At line 1850 in file MKL25Z128xxx4.s
   Uses
      None
Comment: TPM_CHF_MASK unused
TPM_CHIE_MASK 00000040

Symbol: TPM_CHIE_MASK
   Definitions
      At line 1851 in file MKL25Z128xxx4.s
   Uses
      None
Comment: TPM_CHIE_MASK unused
TPM_CMOD_MASK 00000018

Symbol: TPM_CMOD_MASK
   Definitions
      At line 1939 in file MKL25Z128xxx4.s
   Uses
      None
Comment: TPM_CMOD_MASK unused
TPM_CNT_OFFSET 00000004

Symbol: TPM_CNT_OFFSET
   Definitions
      At line 1806 in file MKL25Z128xxx4.s
   Uses
      At line 1963 in file MKL25Z128xxx4.s
      At line 731 in file ServoControl.s

TPM_CONF_OFFSET 00000084

Symbol: TPM_CONF_OFFSET
   Definitions
      At line 1821 in file MKL25Z128xxx4.s
   Uses
      At line 1978 in file MKL25Z128xxx4.s
Comment: TPM_CONF_OFFSET used once
TPM_CPWMS_MASK 00000020

Symbol: TPM_CPWMS_MASK
   Definitions
      At line 1938 in file MKL25Z128xxx4.s
   Uses
      None
Comment: TPM_CPWMS_MASK unused
TPM_CROT_MASK 00040000

Symbol: TPM_CROT_MASK
   Definitions
      At line 1905 in file MKL25Z128xxx4.s
   Uses
      None
Comment: TPM_CROT_MASK unused
TPM_CSOO_MASK 00020000




ARM Macro Assembler    Page 148 Alphabetic symbol ordering
Absolute symbols

Symbol: TPM_CSOO_MASK
   Definitions
      At line 1906 in file MKL25Z128xxx4.s
   Uses
      None
Comment: TPM_CSOO_MASK unused
TPM_CSOT_MASK 00010000

Symbol: TPM_CSOT_MASK
   Definitions
      At line 1907 in file MKL25Z128xxx4.s
   Uses
      None
Comment: TPM_CSOT_MASK unused
TPM_CV_MASK 0000FFFF

Symbol: TPM_CV_MASK
   Definitions
      At line 1861 in file MKL25Z128xxx4.s
   Uses
      None
Comment: TPM_CV_MASK unused
TPM_DBGMODE_MASK 000000C0

Symbol: TPM_DBGMODE_MASK
   Definitions
      At line 1909 in file MKL25Z128xxx4.s
   Uses
      None
Comment: TPM_DBGMODE_MASK unused
TPM_DMA_MASK 00000100

Symbol: TPM_DMA_MASK
   Definitions
      At line 1935 in file MKL25Z128xxx4.s
   Uses
      None
Comment: TPM_DMA_MASK unused
TPM_DOZEEN_MASK 00000020

Symbol: TPM_DOZEEN_MASK
   Definitions
      At line 1910 in file MKL25Z128xxx4.s
   Uses
      None
Comment: TPM_DOZEEN_MASK unused
TPM_ELSA_MASK 00000004

Symbol: TPM_ELSA_MASK
   Definitions
      At line 1855 in file MKL25Z128xxx4.s
   Uses
      None
Comment: TPM_ELSA_MASK unused
TPM_ELSB_MASK 00000008

Symbol: TPM_ELSB_MASK
   Definitions
      At line 1854 in file MKL25Z128xxx4.s



ARM Macro Assembler    Page 149 Alphabetic symbol ordering
Absolute symbols

   Uses
      None
Comment: TPM_ELSB_MASK unused
TPM_EPWM_DIV16 0000000C

Symbol: TPM_EPWM_DIV16
   Definitions
      At line 49 in file ServoControl.s
   Uses
      At line 736 in file ServoControl.s
Comment: TPM_EPWM_DIV16 used once
TPM_GTBEEN_MASK 00000200

Symbol: TPM_GTBEEN_MASK
   Definitions
      At line 1908 in file MKL25Z128xxx4.s
   Uses
      None
Comment: TPM_GTBEEN_MASK unused
TPM_MCGPLLCLK_DIV2 01010000

Symbol: TPM_MCGPLLCLK_DIV2
   Definitions
      At line 71 in file ServoControl.s
   Uses
      At line 722 in file ServoControl.s
Comment: TPM_MCGPLLCLK_DIV2 used once
TPM_MCGPLLCLK_SEL 01000000

Symbol: TPM_MCGPLLCLK_SEL
   Definitions
      At line 70 in file ServoControl.s
   Uses
      At line 71 in file ServoControl.s
Comment: TPM_MCGPLLCLK_SEL used once
TPM_MOD_MASK 0000FFFF

Symbol: TPM_MOD_MASK
   Definitions
      At line 1915 in file MKL25Z128xxx4.s
   Uses
      None
Comment: TPM_MOD_MASK unused
TPM_MOD_OFFSET 00000008

Symbol: TPM_MOD_OFFSET
   Definitions
      At line 1807 in file MKL25Z128xxx4.s
   Uses
      At line 1964 in file MKL25Z128xxx4.s
      At line 734 in file ServoControl.s

TPM_MSA_MASK 00000010

Symbol: TPM_MSA_MASK
   Definitions
      At line 1853 in file MKL25Z128xxx4.s
   Uses
      None



ARM Macro Assembler    Page 150 Alphabetic symbol ordering
Absolute symbols

Comment: TPM_MSA_MASK unused
TPM_MSB_MASK 00000020

Symbol: TPM_MSB_MASK
   Definitions
      At line 1852 in file MKL25Z128xxx4.s
   Uses
      None
Comment: TPM_MSB_MASK unused
TPM_PS_MASK 00000007

Symbol: TPM_PS_MASK
   Definitions
      At line 1940 in file MKL25Z128xxx4.s
   Uses
      None
Comment: TPM_PS_MASK unused
TPM_PWMH 00000028

Symbol: TPM_PWMH
   Definitions
      At line 50 in file ServoControl.s
   Uses
      At line 738 in file ServoControl.s
Comment: TPM_PWMH used once
TPM_SC_OFFSET 00000000

Symbol: TPM_SC_OFFSET
   Definitions
      At line 1805 in file MKL25Z128xxx4.s
   Uses
      At line 1962 in file MKL25Z128xxx4.s
      At line 737 in file ServoControl.s

TPM_STATUS_CH0F 00000001

Symbol: TPM_STATUS_CH0F
   Definitions
      At line 1958 in file MKL25Z128xxx4.s
   Uses
      None
Comment: TPM_STATUS_CH0F unused
TPM_STATUS_CH1F 00000002

Symbol: TPM_STATUS_CH1F
   Definitions
      At line 1957 in file MKL25Z128xxx4.s
   Uses
      None
Comment: TPM_STATUS_CH1F unused
TPM_STATUS_CH2F 00000004

Symbol: TPM_STATUS_CH2F
   Definitions
      At line 1956 in file MKL25Z128xxx4.s
   Uses
      None
Comment: TPM_STATUS_CH2F unused
TPM_STATUS_CH3F 00000008



ARM Macro Assembler    Page 151 Alphabetic symbol ordering
Absolute symbols


Symbol: TPM_STATUS_CH3F
   Definitions
      At line 1955 in file MKL25Z128xxx4.s
   Uses
      None
Comment: TPM_STATUS_CH3F unused
TPM_STATUS_CH4F 00000010

Symbol: TPM_STATUS_CH4F
   Definitions
      At line 1954 in file MKL25Z128xxx4.s
   Uses
      None
Comment: TPM_STATUS_CH4F unused
TPM_STATUS_CH5F 00000020

Symbol: TPM_STATUS_CH5F
   Definitions
      At line 1953 in file MKL25Z128xxx4.s
   Uses
      None
Comment: TPM_STATUS_CH5F unused
TPM_STATUS_OFFSET 00000050

Symbol: TPM_STATUS_OFFSET
   Definitions
      At line 1820 in file MKL25Z128xxx4.s
   Uses
      At line 1977 in file MKL25Z128xxx4.s
Comment: TPM_STATUS_OFFSET used once
TPM_STATUS_TOF 00000100

Symbol: TPM_STATUS_TOF
   Definitions
      At line 1952 in file MKL25Z128xxx4.s
   Uses
      None
Comment: TPM_STATUS_TOF unused
TPM_TOF_MASK 00000080

Symbol: TPM_TOF_MASK
   Definitions
      At line 1936 in file MKL25Z128xxx4.s
   Uses
      None
Comment: TPM_TOF_MASK unused
TPM_TOIE_MASK 00000040

Symbol: TPM_TOIE_MASK
   Definitions
      At line 1937 in file MKL25Z128xxx4.s
   Uses
      None
Comment: TPM_TOIE_MASK unused
TPM_TRGSEL_MASK 0F000000

Symbol: TPM_TRGSEL_MASK
   Definitions



ARM Macro Assembler    Page 152 Alphabetic symbol ordering
Absolute symbols

      At line 1904 in file MKL25Z128xxx4.s
   Uses
      None
Comment: TPM_TRGSEL_MASK unused
TSI0_IPR E000E418

Symbol: TSI0_IPR
   Definitions
      At line 925 in file MKL25Z128xxx4.s
   Uses
      None
Comment: TSI0_IPR unused
TSI0_IRQ 0000001A

Symbol: TSI0_IRQ
   Definitions
      At line 995 in file MKL25Z128xxx4.s
   Uses
      At line 1029 in file MKL25Z128xxx4.s
Comment: TSI0_IRQ used once
TSI0_IRQ_MASK 04000000

Symbol: TSI0_IRQ_MASK
   Definitions
      At line 1029 in file MKL25Z128xxx4.s
   Uses
      None
Comment: TSI0_IRQ_MASK unused
TSI0_PRI_POS 00000016

Symbol: TSI0_PRI_POS
   Definitions
      At line 961 in file MKL25Z128xxx4.s
   Uses
      None
Comment: TSI0_PRI_POS unused
TSI0_Vector 0000002A

Symbol: TSI0_Vector
   Definitions
      At line 1079 in file MKL25Z128xxx4.s
   Uses
      None
Comment: TSI0_Vector unused
UART0ODE_MASK 00010000

Symbol: UART0ODE_MASK
   Definitions
      At line 1798 in file MKL25Z128xxx4.s
   Uses
      None
Comment: UART0ODE_MASK unused
UART0RXSRC_MASK 00000004

Symbol: UART0RXSRC_MASK
   Definitions
      At line 1801 in file MKL25Z128xxx4.s
   Uses
      None



ARM Macro Assembler    Page 153 Alphabetic symbol ordering
Absolute symbols

Comment: UART0RXSRC_MASK unused
UART0TXSRC_MASK 00000003

Symbol: UART0TXSRC_MASK
   Definitions
      At line 1802 in file MKL25Z128xxx4.s
   Uses
      None
Comment: UART0TXSRC_MASK unused
UART0_IPR E000E40C

Symbol: UART0_IPR
   Definitions
      At line 911 in file MKL25Z128xxx4.s
   Uses
      None
Comment: UART0_IPR unused
UART0_IRQ 0000000C

Symbol: UART0_IRQ
   Definitions
      At line 981 in file MKL25Z128xxx4.s
   Uses
      At line 1015 in file MKL25Z128xxx4.s
Comment: UART0_IRQ used once
UART0_IRQ_MASK 00001000

Symbol: UART0_IRQ_MASK
   Definitions
      At line 1015 in file MKL25Z128xxx4.s
   Uses
      None
Comment: UART0_IRQ_MASK unused
UART0_PRI_POS 00000006

Symbol: UART0_PRI_POS
   Definitions
      At line 947 in file MKL25Z128xxx4.s
   Uses
      None
Comment: UART0_PRI_POS unused
UART0_Vector 0000001C

Symbol: UART0_Vector
   Definitions
      At line 1065 in file MKL25Z128xxx4.s
   Uses
      None
Comment: UART0_Vector unused
UART1CGC_MASK 00000800

Symbol: UART1CGC_MASK
   Definitions
      At line 87 in file ServoControl.s
   Uses
      At line 755 in file ServoControl.s
Comment: UART1CGC_MASK used once
UART1ODE_MASK 00020000




ARM Macro Assembler    Page 154 Alphabetic symbol ordering
Absolute symbols

Symbol: UART1ODE_MASK
   Definitions
      At line 1797 in file MKL25Z128xxx4.s
   Uses
      At line 97 in file ServoControl.s
Comment: UART1ODE_MASK used once
UART1RXSRC_MASK 00000040

Symbol: UART1RXSRC_MASK
   Definitions
      At line 1799 in file MKL25Z128xxx4.s
   Uses
      At line 97 in file ServoControl.s
Comment: UART1RXSRC_MASK used once
UART1TXSRC_MASK 00000030

Symbol: UART1TXSRC_MASK
   Definitions
      At line 1800 in file MKL25Z128xxx4.s
   Uses
      At line 97 in file ServoControl.s
Comment: UART1TXSRC_MASK used once
UART1_BASE 4006B000

Symbol: UART1_BASE
   Definitions
      At line 1981 in file MKL25Z128xxx4.s
   Uses
      At line 1991 in file MKL25Z128xxx4.s
      At line 1992 in file MKL25Z128xxx4.s
      At line 1993 in file MKL25Z128xxx4.s
      At line 1994 in file MKL25Z128xxx4.s
      At line 1995 in file MKL25Z128xxx4.s
      At line 1996 in file MKL25Z128xxx4.s
      At line 1997 in file MKL25Z128xxx4.s
      At line 1998 in file MKL25Z128xxx4.s
      At line 1999 in file MKL25Z128xxx4.s
      At line 312 in file ServoControl.s
      At line 774 in file ServoControl.s
      At line 812 in file ServoControl.s

UART1_BDH 4006B000

Symbol: UART1_BDH
   Definitions
      At line 1991 in file MKL25Z128xxx4.s
   Uses
      None
Comment: UART1_BDH unused
UART1_BDL 4006B001

Symbol: UART1_BDL
   Definitions
      At line 1992 in file MKL25Z128xxx4.s
   Uses
      None
Comment: UART1_BDL unused
UART1_C1 4006B002




ARM Macro Assembler    Page 155 Alphabetic symbol ordering
Absolute symbols

Symbol: UART1_C1
   Definitions
      At line 1993 in file MKL25Z128xxx4.s
   Uses
      None
Comment: UART1_C1 unused
UART1_C2 4006B003

Symbol: UART1_C2
   Definitions
      At line 1994 in file MKL25Z128xxx4.s
   Uses
      None
Comment: UART1_C2 unused
UART1_C3 4006B006

Symbol: UART1_C3
   Definitions
      At line 1997 in file MKL25Z128xxx4.s
   Uses
      None
Comment: UART1_C3 unused
UART1_C4 4006B008

Symbol: UART1_C4
   Definitions
      At line 1999 in file MKL25Z128xxx4.s
   Uses
      None
Comment: UART1_C4 unused
UART1_D 4006B007

Symbol: UART1_D
   Definitions
      At line 1998 in file MKL25Z128xxx4.s
   Uses
      None
Comment: UART1_D unused
UART1_EXTERN_MASK_CLEAR 00020070

Symbol: UART1_EXTERN_MASK_CLEAR
   Definitions
      At line 97 in file ServoControl.s
   Uses
      At line 749 in file ServoControl.s
Comment: UART1_EXTERN_MASK_CLEAR used once
UART1_IPR E000E40C

Symbol: UART1_IPR
   Definitions
      At line 912 in file MKL25Z128xxx4.s
   Uses
      At line 799 in file ServoControl.s
Comment: UART1_IPR used once
UART1_IRQ 0000000D

Symbol: UART1_IRQ
   Definitions
      At line 982 in file MKL25Z128xxx4.s



ARM Macro Assembler    Page 156 Alphabetic symbol ordering
Absolute symbols

   Uses
      At line 1016 in file MKL25Z128xxx4.s
Comment: UART1_IRQ used once
UART1_IRQ_MASK 00002000

Symbol: UART1_IRQ_MASK
   Definitions
      At line 1016 in file MKL25Z128xxx4.s
   Uses
      At line 795 in file ServoControl.s
Comment: UART1_IRQ_MASK used once
UART1_IRQ_PRI 00000003

Symbol: UART1_IRQ_PRI
   Definitions
      At line 140 in file ServoControl.s
   Uses
      At line 800 in file ServoControl.s
Comment: UART1_IRQ_PRI used once
UART1_PRI_POS 0000000E

Symbol: UART1_PRI_POS
   Definitions
      At line 948 in file MKL25Z128xxx4.s
   Uses
      At line 800 in file ServoControl.s
Comment: UART1_PRI_POS used once
UART1_S1 4006B004

Symbol: UART1_S1
   Definitions
      At line 1995 in file MKL25Z128xxx4.s
   Uses
      None
Comment: UART1_S1 unused
UART1_S2 4006B005

Symbol: UART1_S2
   Definitions
      At line 1996 in file MKL25Z128xxx4.s
   Uses
      None
Comment: UART1_S2 unused
UART1_Vector 0000001D

Symbol: UART1_Vector
   Definitions
      At line 1066 in file MKL25Z128xxx4.s
   Uses
      None
Comment: UART1_Vector unused
UART2ODE_MASK 00040000

Symbol: UART2ODE_MASK
   Definitions
      At line 1796 in file MKL25Z128xxx4.s
   Uses
      None
Comment: UART2ODE_MASK unused



ARM Macro Assembler    Page 157 Alphabetic symbol ordering
Absolute symbols

UART2_IPR E000E40C

Symbol: UART2_IPR
   Definitions
      At line 913 in file MKL25Z128xxx4.s
   Uses
      None
Comment: UART2_IPR unused
UART2_IRQ 0000000E

Symbol: UART2_IRQ
   Definitions
      At line 983 in file MKL25Z128xxx4.s
   Uses
      At line 1017 in file MKL25Z128xxx4.s
Comment: UART2_IRQ used once
UART2_IRQ_MASK 00004000

Symbol: UART2_IRQ_MASK
   Definitions
      At line 1017 in file MKL25Z128xxx4.s
   Uses
      None
Comment: UART2_IRQ_MASK unused
UART2_PRI_POS 00000016

Symbol: UART2_PRI_POS
   Definitions
      At line 949 in file MKL25Z128xxx4.s
   Uses
      None
Comment: UART2_PRI_POS unused
UART2_Vector 0000001E

Symbol: UART2_Vector
   Definitions
      At line 1067 in file MKL25Z128xxx4.s
   Uses
      None
Comment: UART2_Vector unused
UART_8N1 00000000

Symbol: UART_8N1
   Definitions
      At line 127 in file ServoControl.s
   Uses
      At line 779 in file ServoControl.s
Comment: UART_8N1 used once
UART_9600H 00000000

Symbol: UART_9600H
   Definitions
      At line 108 in file ServoControl.s
   Uses
      At line 775 in file ServoControl.s
Comment: UART_9600H used once
UART_9600L 0000009C

Symbol: UART_9600L



ARM Macro Assembler    Page 158 Alphabetic symbol ordering
Absolute symbols

   Definitions
      At line 116 in file ServoControl.s
   Uses
      At line 777 in file ServoControl.s
Comment: UART_9600L used once
UART_BDH_OFFSET 00000000

Symbol: UART_BDH_OFFSET
   Definitions
      At line 1982 in file MKL25Z128xxx4.s
   Uses
      At line 1991 in file MKL25Z128xxx4.s
      At line 776 in file ServoControl.s

UART_BDL_OFFSET 00000001

Symbol: UART_BDL_OFFSET
   Definitions
      At line 1983 in file MKL25Z128xxx4.s
   Uses
      At line 1992 in file MKL25Z128xxx4.s
      At line 778 in file ServoControl.s

UART_C1_OFFSET 00000002

Symbol: UART_C1_OFFSET
   Definitions
      At line 1984 in file MKL25Z128xxx4.s
   Uses
      At line 1993 in file MKL25Z128xxx4.s
      At line 781 in file ServoControl.s

UART_C2_OFFSET 00000003

Symbol: UART_C2_OFFSET
   Definitions
      At line 1985 in file MKL25Z128xxx4.s
   Uses
      At line 1994 in file MKL25Z128xxx4.s
      At line 314 in file ServoControl.s
      At line 788 in file ServoControl.s
      At line 825 in file ServoControl.s

UART_C3_OFFSET 00000006

Symbol: UART_C3_OFFSET
   Definitions
      At line 1988 in file MKL25Z128xxx4.s
   Uses
      At line 1997 in file MKL25Z128xxx4.s
      At line 783 in file ServoControl.s

UART_C4_OFFSET 00000008

Symbol: UART_C4_OFFSET
   Definitions
      At line 1990 in file MKL25Z128xxx4.s
   Uses
      At line 1999 in file MKL25Z128xxx4.s



ARM Macro Assembler    Page 159 Alphabetic symbol ordering
Absolute symbols

      At line 785 in file ServoControl.s

UART_D_OFFSET 00000007

Symbol: UART_D_OFFSET
   Definitions
      At line 1989 in file MKL25Z128xxx4.s
   Uses
      At line 1998 in file MKL25Z128xxx4.s
      At line 822 in file ServoControl.s
      At line 829 in file ServoControl.s

UART_FEIE_MASK 00000002

Symbol: UART_FEIE_MASK
   Definitions
      At line 2065 in file MKL25Z128xxx4.s
   Uses
      None
Comment: UART_FEIE_MASK unused
UART_FE_MASK 00000002

Symbol: UART_FE_MASK
   Definitions
      At line 2093 in file MKL25Z128xxx4.s
   Uses
      None
Comment: UART_FE_MASK unused
UART_IDLE_MASK 00000010

Symbol: UART_IDLE_MASK
   Definitions
      At line 2090 in file MKL25Z128xxx4.s
   Uses
      None
Comment: UART_IDLE_MASK unused
UART_ILIE_MASK 00000010

Symbol: UART_ILIE_MASK
   Definitions
      At line 2044 in file MKL25Z128xxx4.s
   Uses
      None
Comment: UART_ILIE_MASK unused
UART_ILT_MASK 00000004

Symbol: UART_ILT_MASK
   Definitions
      At line 2028 in file MKL25Z128xxx4.s
   Uses
      None
Comment: UART_ILT_MASK unused
UART_LBKDIE_MASK 00000080

Symbol: UART_LBKDIE_MASK
   Definitions
      At line 2006 in file MKL25Z128xxx4.s
   Uses
      None



ARM Macro Assembler    Page 160 Alphabetic symbol ordering
Absolute symbols

Comment: UART_LBKDIE_MASK unused
UART_LOOPS_MASK 00000080

Symbol: UART_LOOPS_MASK
   Definitions
      At line 2023 in file MKL25Z128xxx4.s
   Uses
      None
Comment: UART_LOOPS_MASK unused
UART_M_MASK 00000010

Symbol: UART_M_MASK
   Definitions
      At line 2026 in file MKL25Z128xxx4.s
   Uses
      None
Comment: UART_M_MASK unused
UART_NEIE_MASK 00000004

Symbol: UART_NEIE_MASK
   Definitions
      At line 2064 in file MKL25Z128xxx4.s
   Uses
      None
Comment: UART_NEIE_MASK unused
UART_NF_MASK 00000004

Symbol: UART_NF_MASK
   Definitions
      At line 2092 in file MKL25Z128xxx4.s
   Uses
      None
Comment: UART_NF_MASK unused
UART_NO_DMA 00000000

Symbol: UART_NO_DMA
   Definitions
      At line 160 in file ServoControl.s
   Uses
      At line 784 in file ServoControl.s
Comment: UART_NO_DMA used once
UART_ORIE_MASK 00000008

Symbol: UART_ORIE_MASK
   Definitions
      At line 2063 in file MKL25Z128xxx4.s
   Uses
      None
Comment: UART_ORIE_MASK unused
UART_OR_MASK 00000008

Symbol: UART_OR_MASK
   Definitions
      At line 2091 in file MKL25Z128xxx4.s
   Uses
      None
Comment: UART_OR_MASK unused
UART_PEIE_MASK 00000001




ARM Macro Assembler    Page 161 Alphabetic symbol ordering
Absolute symbols

Symbol: UART_PEIE_MASK
   Definitions
      At line 2066 in file MKL25Z128xxx4.s
   Uses
      None
Comment: UART_PEIE_MASK unused
UART_PE_MASK 00000002

Symbol: UART_PE_MASK
   Definitions
      At line 2029 in file MKL25Z128xxx4.s
   Uses
      None
Comment: UART_PE_MASK unused
UART_PF_MASK 00000001

Symbol: UART_PF_MASK
   Definitions
      At line 2094 in file MKL25Z128xxx4.s
   Uses
      None
Comment: UART_PF_MASK unused
UART_PT_MASK 00000001

Symbol: UART_PT_MASK
   Definitions
      At line 2030 in file MKL25Z128xxx4.s
   Uses
      None
Comment: UART_PT_MASK unused
UART_R8_MASK 00000080

Symbol: UART_R8_MASK
   Definitions
      At line 2059 in file MKL25Z128xxx4.s
   Uses
      None
Comment: UART_R8_MASK unused
UART_RDMAS_MASK 00000020

Symbol: UART_RDMAS_MASK
   Definitions
      At line 2076 in file MKL25Z128xxx4.s
   Uses
      None
Comment: UART_RDMAS_MASK unused
UART_RDRF_MASK 00000020

Symbol: UART_RDRF_MASK
   Definitions
      At line 2089 in file MKL25Z128xxx4.s
   Uses
      At line 814 in file ServoControl.s
Comment: UART_RDRF_MASK used once
UART_RE_MASK 00000004

Symbol: UART_RE_MASK
   Definitions
      At line 2046 in file MKL25Z128xxx4.s



ARM Macro Assembler    Page 162 Alphabetic symbol ordering
Absolute symbols

   Uses
      At line 138 in file ServoControl.s
      At line 139 in file ServoControl.s

UART_RIE_MASK 00000020

Symbol: UART_RIE_MASK
   Definitions
      At line 2043 in file MKL25Z128xxx4.s
   Uses
      At line 138 in file ServoControl.s
      At line 139 in file ServoControl.s

UART_RSRC_MASK 00000020

Symbol: UART_RSRC_MASK
   Definitions
      At line 2025 in file MKL25Z128xxx4.s
   Uses
      None
Comment: UART_RSRC_MASK unused
UART_RWU_MASK 00000002

Symbol: UART_RWU_MASK
   Definitions
      At line 2047 in file MKL25Z128xxx4.s
   Uses
      None
Comment: UART_RWU_MASK unused
UART_RXEDGIE_MASK 00000040

Symbol: UART_RXEDGIE_MASK
   Definitions
      At line 2007 in file MKL25Z128xxx4.s
   Uses
      None
Comment: UART_RXEDGIE_MASK unused
UART_S1_OFFSET 00000004

Symbol: UART_S1_OFFSET
   Definitions
      At line 1986 in file MKL25Z128xxx4.s
   Uses
      At line 1995 in file MKL25Z128xxx4.s
      At line 813 in file ServoControl.s

UART_S2_OFFSET 00000005

Symbol: UART_S2_OFFSET
   Definitions
      At line 1987 in file MKL25Z128xxx4.s
   Uses
      At line 1996 in file MKL25Z128xxx4.s
Comment: UART_S2_OFFSET used once
UART_SBK_MASK 00000001

Symbol: UART_SBK_MASK
   Definitions
      At line 2048 in file MKL25Z128xxx4.s



ARM Macro Assembler    Page 163 Alphabetic symbol ordering
Absolute symbols

   Uses
      None
Comment: UART_SBK_MASK unused
UART_SBNS_MASK 00000020

Symbol: UART_SBNS_MASK
   Definitions
      At line 2008 in file MKL25Z128xxx4.s
   Uses
      None
Comment: UART_SBNS_MASK unused
UART_SBR_12_0_MASK 0000001F

Symbol: UART_SBR_12_0_MASK
   Definitions
      At line 2009 in file MKL25Z128xxx4.s
   Uses
      None
Comment: UART_SBR_12_0_MASK unused
UART_T8_MASK 00000040

Symbol: UART_T8_MASK
   Definitions
      At line 2060 in file MKL25Z128xxx4.s
   Uses
      None
Comment: UART_T8_MASK unused
UART_TCIE_MASK 00000040

Symbol: UART_TCIE_MASK
   Definitions
      At line 2042 in file MKL25Z128xxx4.s
   Uses
      None
Comment: UART_TCIE_MASK unused
UART_TC_MASK 00000040

Symbol: UART_TC_MASK
   Definitions
      At line 2088 in file MKL25Z128xxx4.s
   Uses
      None
Comment: UART_TC_MASK unused
UART_TDMAS_MASK 00000080

Symbol: UART_TDMAS_MASK
   Definitions
      At line 2075 in file MKL25Z128xxx4.s
   Uses
      None
Comment: UART_TDMAS_MASK unused
UART_TDRE_MASK 00000080

Symbol: UART_TDRE_MASK
   Definitions
      At line 2087 in file MKL25Z128xxx4.s
   Uses
      None
Comment: UART_TDRE_MASK unused



ARM Macro Assembler    Page 164 Alphabetic symbol ordering
Absolute symbols

UART_TE_MASK 00000008

Symbol: UART_TE_MASK
   Definitions
      At line 2045 in file MKL25Z128xxx4.s
   Uses
      At line 138 in file ServoControl.s
      At line 139 in file ServoControl.s

UART_TIE_MASK 00000080

Symbol: UART_TIE_MASK
   Definitions
      At line 2041 in file MKL25Z128xxx4.s
   Uses
      At line 139 in file ServoControl.s
Comment: UART_TIE_MASK used once
UART_TI_RI 000000AC

Symbol: UART_TI_RI
   Definitions
      At line 139 in file ServoControl.s
   Uses
      At line 313 in file ServoControl.s
Comment: UART_TI_RI used once
UART_TXDIR_MASK 00000020

Symbol: UART_TXDIR_MASK
   Definitions
      At line 2061 in file MKL25Z128xxx4.s
   Uses
      None
Comment: UART_TXDIR_MASK unused
UART_TXINV_MASK 00000010

Symbol: UART_TXINV_MASK
   Definitions
      At line 2062 in file MKL25Z128xxx4.s
   Uses
      None
Comment: UART_TXINV_MASK unused
UART_TX_NOT_INVERTED 00000000

Symbol: UART_TX_NOT_INVERTED
   Definitions
      At line 151 in file ServoControl.s
   Uses
      At line 782 in file ServoControl.s
Comment: UART_TX_NOT_INVERTED used once
UART_T_RI 0000002C

Symbol: UART_T_RI
   Definitions
      At line 138 in file ServoControl.s
   Uses
      At line 787 in file ServoControl.s
      At line 824 in file ServoControl.s

UART_UARTSWAI_MASK 00000040



ARM Macro Assembler    Page 165 Alphabetic symbol ordering
Absolute symbols


Symbol: UART_UARTSWAI_MASK
   Definitions
      At line 2024 in file MKL25Z128xxx4.s
   Uses
      None
Comment: UART_UARTSWAI_MASK unused
UART_WAKE_MASK 00000008

Symbol: UART_WAKE_MASK
   Definitions
      At line 2027 in file MKL25Z128xxx4.s
   Uses
      None
Comment: UART_WAKE_MASK unused
USB0_IPR E000E418

Symbol: USB0_IPR
   Definitions
      At line 923 in file MKL25Z128xxx4.s
   Uses
      None
Comment: USB0_IPR unused
USB0_IRQ 00000018

Symbol: USB0_IRQ
   Definitions
      At line 993 in file MKL25Z128xxx4.s
   Uses
      At line 1027 in file MKL25Z128xxx4.s
Comment: USB0_IRQ used once
USB0_IRQ_MASK 01000000

Symbol: USB0_IRQ_MASK
   Definitions
      At line 1027 in file MKL25Z128xxx4.s
   Uses
      None
Comment: USB0_IRQ_MASK unused
USB0_PRI_POS 00000006

Symbol: USB0_PRI_POS
   Definitions
      At line 959 in file MKL25Z128xxx4.s
   Uses
      None
Comment: USB0_PRI_POS unused
USB0_Vector 00000028

Symbol: USB0_Vector
   Definitions
      At line 1077 in file MKL25Z128xxx4.s
   Uses
      None
Comment: USB0_Vector unused
VECTOR_SIZE 00000004

Symbol: VECTOR_SIZE
   Definitions



ARM Macro Assembler    Page 166 Alphabetic symbol ordering
Absolute symbols

      At line 46 in file MKL25Z128xxx4.s
   Uses
      None
Comment: VECTOR_SIZE unused
VECTOR_TABLE_SIZE 000000C0

Symbol: VECTOR_TABLE_SIZE
   Definitions
      At line 45 in file MKL25Z128xxx4.s
   Uses
      None
Comment: VECTOR_TABLE_SIZE unused
WORD_SIZE 00000004

Symbol: WORD_SIZE
   Definitions
      At line 37 in file MKL25Z128xxx4.s
   Uses
      None
Comment: WORD_SIZE unused
1154 symbols
1584 symbols in table
