


ARM Macro Assembler    Page 1 Lab8 Queue


    1 00000000                 TTL              Lab8 Queue
    2 00000000         ;*******************************************************
                       ********
    3 00000000         ;This application shows a implementation of a queue data
                        
    4 00000000         ;structure for byte data
    5 00000000         ;Name:  David Desrochers
    6 00000000         ;Date:  3/18/2014
    7 00000000         ;Class:  CMPE-250
    8 00000000         ;Section:  Tuesday 11am
    9 00000000         ;-------------------------------------------------------
                       --------
   10 00000000         ;Template:  R. W. Melton, March 1, 2014
   11 00000000         ;*******************************************************
                       ********
   12 00000000         ;Assembler directives
   13 00000000                 THUMB
   15 00000000 00000100 
                       SSTACK_SIZE
                               EQU              0x00000100  ;required for MKL25
                                                            Z128xxx4.s
   16 00000000         ;*******************************************************
                       ********
   17 00000000         ;Include files
   18 00000000         ;  MK25Z128xxx4.s
   19 00000000                 GET              MKL25Z128xxx4.s
   21 00000100         ;*******************************************************
                       ********
   22 00000100         ;EQUates
   23 00000100         
   24 00000100         ;EQUates for queue record management
   25 00000100 00000000 
                       IN_PTR  EQU              0
   26 00000100 00000004 
                       OUT_PTR EQU              4
   27 00000100 00000008 
                       BUF_STRT
                               EQU              8
   28 00000100 0000000C 
                       BUF_PAST
                               EQU              12
   29 00000100 00000010 
                       BUF_SIZE
                               EQU              16
   30 00000100 00000011 
                       NUM_ENQD
                               EQU              17
   31 00000100         
   32 00000100         ;EQUated for stucture sizes
   33 00000100 00000012 
                       Q_REC_SZ
                               EQU              18
   34 00000100 00000004 
                       Q_BUF_SZ
                               EQU              4
   35 00000100         
   36 00000100         ;-------------------------------------------------------
                       --------
   37 00000100         ;EQUates to use UART1 for serial I/O



ARM Macro Assembler    Page 2 Lab8 Queue


   38 00000100         ;PORTx_PCRn (Port x pin control register n [for pin n])
   39 00000100         ;___->10-08:Pin mux control (select 0 to 8)
   40 00000100 00000300 
                       PIN_MUX_SELECT_3
                               EQU              0x00000300
   41 00000100         ;-------------------------------------------------------
                       --------
   42 00000100         ;Port C
   43 00000100 00000300 
                       PTC3_MUX_UART1_RX
                               EQU              PIN_MUX_SELECT_3
   44 00000100 00000300 
                       PTC4_MUX_UART1_TX
                               EQU              PIN_MUX_SELECT_3
   45 00000100 01000300 
                       SET_PTC3_UART1_RX
                               EQU              (PIN_ISF_MASK :OR: PTC3_MUX_UAR
T1_RX)
   46 00000100 01000300 
                       SET_PTC4_UART1_TX
                               EQU              (PIN_ISF_MASK :OR: PTC4_MUX_UAR
T1_TX)
   47 00000100         ;-------------------------------------------------------
                       --------
   48 00000100         ;SIM_SCGC4
   49 00000100         ;1->11:UART1 clock gate control (enabled)
   50 00000100 00000800 
                       UART1CGC_MASK
                               EQU              SIM_SCGC4_UART1_MASK
   51 00000100         ;-------------------------------------------------------
                       --------
   52 00000100         ;SIM_SCGC5
   53 00000100         ;1->   11:Port C clock gate control (enabled)
   54 00000100 00000800 
                       PORTCCGC_MASK
                               EQU              SIM_SCGC5_PORTC_MASK
   55 00000100         ;-------------------------------------------------------
                       --------
   56 00000100         ;SIM_SOPT5
   57 00000100         ; 0->   17:UART1 open drain enable (disabled)
   58 00000100         ; 0->   06:UART1 receive data select (UART1_RX)
   59 00000100         ;00->05-04:UART1 transmit data select source (UART1_TX)
   60 00000100 00020070 
                       UART1_EXTERN_MASK_CLEAR
                               EQU              (UART1ODE_MASK :OR: UART1RXSRC_
MASK :OR: UART1TXSRC_MASK)
   61 00000100         ;-------------------------------------------------------
                       --------
   62 00000100         ;UARTx_BDH
   63 00000100         ;    0->  7:LIN break detect IE (disabled)
   64 00000100         ;    0->  6:RxD input active edge IE (disabled)
   65 00000100         ;    0->  5:Stop bit number select (1)
   66 00000100         ;00000->4-0:SBR[12:0] (BUSCLK / (16 x 9600))
   67 00000100         ;BUSCLK = CORECLK / 2 = PLLCLK / 4
   68 00000100         ;PLLCLK is 96 MHz
   69 00000100         ;BUSCLK is 24 MHz
   70 00000100         ;SBR = 24 MHz / (16 x 9600) = 156.25 --> 156 = 0x009C
   71 00000100 00000000 
                       UART_9600H



ARM Macro Assembler    Page 3 Lab8 Queue


                               EQU              0x00
   72 00000100         ;-------------------------------------------------------
                       --------
   73 00000100         ;UARTx_BDL
   74 00000100         ;26->7-0:SBR[7:0] (BUSCLK / 16 x 9600))
   75 00000100         ;BUSCLK = CORECLK / 2 = PLLCLK / 4
   76 00000100         ;PLLCLK is 96 MHz
   77 00000100         ;BUSCLK is 24 MHz
   78 00000100         ;SBR = 24 MHz / (16 x 9600) = 156.25 --> 0x9C
   79 00000100 0000009C 
                       UART_9600L
                               EQU              0x9C
   80 00000100         ;-------------------------------------------------------
                       --------
   81 00000100         ;UARTx_C1
   82 00000100         ;0-->7:LOOPS=loops select (normal)
   83 00000100         ;0-->6:UARTSWAI=UART stop in wait mode (disabled)
   84 00000100         ;0-->5:RSRC=receiver source select (internal--no effect 
                       LOOPS=0)
   85 00000100         ;0-->4:M=9- or 8-bit mode select (1 start, 8 data [lsb f
                       irst], 1 stop)
   86 00000100         ;0-->3:WAKE=receiver wakeup method select (idle)
   87 00000100         ;0-->2:IDLE=idle line type select (idle begins after sta
                       rt bit)
   88 00000100         ;0-->1:PE=parity enable (disabled)
   89 00000100         ;0-->0:PT=parity type (even parity--no effect PE=0)
   90 00000100 00000000 
                       UART_8N1
                               EQU              0x00
   91 00000100         ;-------------------------------------------------------
                       --------
   92 00000100         ;UARTx_C2
   93 00000100         ;0-->7:TIE=transmit IE for TDRE (disabled)
   94 00000100         ;0-->6:TCIE=trasmission complete IE for TC (disabled)
   95 00000100         ;0-->5:RIE=receiver IE for RDRF (disabled)
   96 00000100         ;0-->4:ILIE=idle line IE for IDLE (disabled)
   97 00000100         ;1-->3:TE=transmitter enable (enabled)
   98 00000100         ;1-->2:RE=receiver enable (enabled)
   99 00000100         ;0-->1:RWU=receiver wakeup control (normal)
  100 00000100         ;0-->0:SBK=send break (disabled, normal)
  101 00000100 0000000C 
                       UART_T_R
                               EQU              (UART_TE_MASK :OR: UART_RE_MASK
)
  102 00000100         ;-------------------------------------------------------
                       --------
  103 00000100         ;UARTx_C3
  104 00000100         ;0-->7:R8=9th data bit for receiver (not used M=0)
  105 00000100         ;0-->6:T8=9th data bit for transmitter (not used M=0)
  106 00000100         ;0-->5:TXDIR=TxD pin direction in single-wire mode (no e
                       ffect LOOPS=0)
  107 00000100         ;0-->4:TXINV=transmit data inversion (not invereted)
  108 00000100         ;0-->3:ORIE=overrun IE for OR (disabled)
  109 00000100         ;0-->2:NEIE=noise error IE for NF (disabled)
  110 00000100         ;0-->1:FEIE=framing error IE for FE (disabled)
  111 00000100         ;0-->0:PEIE=parity error IE for PF (disabled)
  112 00000100 00000000 
                       UART_TX_NOT_INVERTED
                               EQU              0x00



ARM Macro Assembler    Page 4 Lab8 Queue


  113 00000100         ;-------------------------------------------------------
                       --------
  114 00000100         ;UARTx_C4
  115 00000100         ;0-->  7:TDMAS=transmitter DMA select (disabled)
  116 00000100         ;0-->  6:Reserved; read-only; always 0
  117 00000100         ;0-->  5:RDMAS=receiver full DMA select (disabled)
  118 00000100         ;0-->  4:Reserved; read-only; always 0
  119 00000100         ;0-->  3:Reserved; read-only; always 0
  120 00000100         ;0-->2-0:Reserved; read-only; always 0
  121 00000100 00000000 
                       UART_NO_DMA
                               EQU              0x00
  122 00000100         ;*******************************************************
                       ***************
  123 00000100         ;Program
  124 00000100         ;Linker requires Reset_Handler
  125 00000100                 AREA             MyCode,CODE,READONLY
  126 00000000                 ENTRY
  127 00000000                 EXPORT           Reset_Handler
  128 00000000         Reset_Handler
  129 00000000         main
  130 00000000         ;-------------------------------------------------------
                       --------
  131 00000000         ;begin program code
  132 00000000 F7FF FFFE       BL               SystemInit
  133 00000004         ;Mask interrupts
  134 00000004 B672            CPSID            I
  135 00000006         ;Configure 48-MHz system clock
  136 00000006 F7FF FFFE       BL               SetClock48MHz
  137 0000000A         ;-------------------------------------------------------
                       --------
  138 0000000A         ;begin program code
  139 0000000A         
  140 0000000A         ;Set-up application by loading base address for
  141 0000000A         ;Record structure and initalizing UART1
  142 0000000A F000 F942       BL               UART1__Init
  143 0000000E F000 F8AF       BL               Q_init
  144 00000012 49CB            LDR              R1, =QRecord
  145 00000014 48CB    Main    LDR              R0, =TypePrmp ;Prompt user for 
                                                            command
  146 00000016 F000 F91A       BL               PutString
  147 0000001A F000 F906 
                       NotRec  BL               GetChar
  148 0000001E         ;Compair with known commands and call 
  149 0000001E         ;correct subroutine
  150 0000001E 2861            CMP              R0, #'a'
  151 00000020 D300            BLO              CorrectCase
  152 00000022 3820    FixCase SUBS             R0, R0, #0x20
  153 00000024 2844    CorrectCase
                               CMP              R0, #'D'
  154 00000026 D008            BEQ              TerDeq
  155 00000028 2845            CMP              R0, #'E'
  156 0000002A D01A            BEQ              TerEnq
  157 0000002C 2848            CMP              R0, #'H'
  158 0000002E D039            BEQ              TerHlp
  159 00000030 2850            CMP              R0, #'P'
  160 00000032 D043            BEQ              TerPrt
  161 00000034 2853            CMP              R0, #'S'
  162 00000036 D076            BEQ              TerSts



ARM Macro Assembler    Page 5 Lab8 Queue


  163 00000038 E7EF            B                NotRec
  164 0000003A         
  165 0000003A         ;Echo's comand and dequeues character
  166 0000003A         ;Prints success or failure based on
  167 0000003A         ;return from dequeue
  168 0000003A F000 F8FF 
                       TerDeq  BL               PutChar
  169 0000003E 200D            MOVS             R0, #0x0D
  170 00000040 F000 F8FC       BL               PutChar
  171 00000044 200A            MOVS             R0, #0x0A
  172 00000046 F000 F8F9       BL               PutChar
  173 0000004A F000 F89D       BL               Dequeue
  174 0000004E D221            BCS              Failure
  175 00000050 F000 F8F4       BL               PutChar
  176 00000054 200D            MOVS             R0, #0x0D
  177 00000056 F000 F8F1       BL               PutChar
  178 0000005A 200A            MOVS             R0, #0x0A
  179 0000005C F000 F8EE       BL               PutChar
  180 00000060 E7D8            B                Main
  181 00000062         
  182 00000062         ;Echo's comand and prompts for
  183 00000062         ;character to enqueue
  184 00000062         ;Prints success or failure based on
  185 00000062         ;return from enqueue
  186 00000062 F000 F8EB 
                       TerEnq  BL               PutChar
  187 00000066 200D            MOVS             R0, #0x0D
  188 00000068 F000 F8E8       BL               PutChar
  189 0000006C 200A            MOVS             R0, #0x0A
  190 0000006E F000 F8E5       BL               PutChar
  191 00000072 48B5            LDR              R0, =CharPrmp
  192 00000074 F000 F8EB       BL               PutString
  193 00000078 F000 F8D7       BL               GetChar
  194 0000007C F000 F8DE       BL               PutChar
  195 00000080 F000 F8AA       BL               Enqueue
  196 00000084 200D            MOVS             R0, #0x0D
  197 00000086 F000 F8D9       BL               PutChar
  198 0000008A 200A            MOVS             R0, #0x0A
  199 0000008C F000 F8D6       BL               PutChar
  200 00000090 D200            BCS              Failure
  201 00000092 E003            B                Success
  202 00000094         
  203 00000094         ;Prints failure message
  204 00000094 48AD    Failure LDR              R0, =Fail
  205 00000096 F000 F8DA       BL               PutString
  206 0000009A E7BB            B                Main
  207 0000009C         
  208 0000009C         ;Prints success message
  209 0000009C 48AC    Success LDR              R0, =Sec
  210 0000009E F000 F8D6       BL               PutString
  211 000000A2 E7B7            B                Main
  212 000000A4         
  213 000000A4         ;Prints help string
  214 000000A4 F000 F8CA 
                       TerHlp  BL               PutChar
  215 000000A8 200D            MOVS             R0, #0x0D
  216 000000AA F000 F8C7       BL               PutChar
  217 000000AE 200A            MOVS             R0, #0x0A
  218 000000B0 F000 F8C4       BL               PutChar



ARM Macro Assembler    Page 6 Lab8 Queue


  219 000000B4 48A7            LDR              R0, =help
  220 000000B6 F000 F8CA       BL               PutString
  221 000000BA E7AB            B                Main
  222 000000BC         
  223 000000BC         ;Prints contents of queue
  224 000000BC F000 F8BE 
                       TerPrt  BL               PutChar
  225 000000C0 200D            MOVS             R0, #0x0D
  226 000000C2 F000 F8BB       BL               PutChar
  227 000000C6 200A            MOVS             R0, #0x0A
  228 000000C8 F000 F8B8       BL               PutChar
  229 000000CC         ;Check if queue is empty
  230 000000CC 7C4A            LDRB             R2, [R1, #NUM_ENQD]
  231 000000CE 2300            MOVS             R3, #0
  232 000000D0 429A            CMP              R2, R3
  233 000000D2 D01B            BEQ              EMPTY
  234 000000D4 7C0B            LDRB             R3, [R1, #BUF_SIZE]
  235 000000D6 429A            CMP              R2, R3
  236 000000D8         ;Load needed pointers
  237 000000D8 684A            LDR              R2, [R1, #OUT_PTR]
  238 000000DA 680B            LDR              R3, [R1, #IN_PTR]
  239 000000DC 68CC            LDR              R4, [R1, #BUF_PAST]
  240 000000DE         ;Branch for full condition
  241 000000DE D001            BEQ              Full
  242 000000E0         ;Print until out pointer 
  243 000000E0         ;is at in pointer location
  244 000000E0 429A    Printing
                               CMP              R2, R3
  245 000000E2 D097            BEQ              Main
  246 000000E4 203E    Full    MOVS             R0, #">"
  247 000000E6 F000 F8A9       BL               PutChar
  248 000000EA 7810            LDRB             R0, [R2, #0]
  249 000000EC F000 F8A6       BL               PutChar
  250 000000F0 203C            MOVS             R0, #"<"
  251 000000F2 F000 F8A3       BL               PutChar
  252 000000F6 3201            ADDS             R2, #1
  253 000000F8         ;Check next address is in the bounds
  254 000000F8         ;of the queue, wrap if not
  255 000000F8 42A2            CMP              R2, R4
  256 000000FA D300            BLO              NoWrap
  257 000000FC 688A            LDR              R2, [R1, #BUF_STRT]
  258 000000FE 200D    NoWrap  MOVS             R0, #0x0D
  259 00000100 F000 F89C       BL               PutChar
  260 00000104 200A            MOVS             R0, #0x0A
  261 00000106 F000 F899       BL               PutChar
  262 0000010A E7E9            B                Printing
  263 0000010C 203E    EMPTY   MOVS             R0, #">"
  264 0000010E F000 F895       BL               PutChar
  265 00000112 203C            MOVS             R0, #"<"
  266 00000114 F000 F892       BL               PutChar
  267 00000118 200D            MOVS             R0, #0x0D
  268 0000011A F000 F88F       BL               PutChar
  269 0000011E 200A            MOVS             R0, #0x0A
  270 00000120 F000 F88C       BL               PutChar
  271 00000124 E776            B                Main
  272 00000126         
  273 00000126         ;Prints pointers locations
  274 00000126         ;and number of elements in the queue
  275 00000126 F000 F889 



ARM Macro Assembler    Page 7 Lab8 Queue


                       TerSts  BL               PutChar
  276 0000012A 200D            MOVS             R0, #0x0D
  277 0000012C F000 F886       BL               PutChar
  278 00000130 200A            MOVS             R0, #0x0A
  279 00000132 F000 F883       BL               PutChar
  280 00000136 4888            LDR              R0, =Status
  281 00000138 F000 F889       BL               PutString
  282 0000013C 4887            LDR              R0, =In
  283 0000013E F000 F886       BL               PutString
  284 00000142 497F            LDR              R1, =QRecord
  285 00000144 6808            LDR              R0, [R1, #IN_PTR]
  286 00000146 F000 F8C7       BL               PutNumHex
  287 0000014A 4885            LDR              R0, =Out
  288 0000014C F000 F87F       BL               PutString
  289 00000150 6848            LDR              R0, [R1, #OUT_PTR]
  290 00000152 F000 F8C1       BL               PutNumHex
  291 00000156 4883            LDR              R0, =Num
  292 00000158 F000 F879       BL               PutString
  293 0000015C 7C48            LDRB             R0, [R1, #NUM_ENQD]
  294 0000015E F000 F8E4       BL               PutNumUB
  295 00000162 200D            MOVS             R0, #0x0D
  296 00000164 F000 F86A       BL               PutChar
  297 00000168 200A            MOVS             R0, #0x0A
  298 0000016A F000 F867       BL               PutChar
  299 0000016E E751            B                Main
  300 00000170         
  301 00000170         ;*******************************************************
                       *******
  302 00000170         ;Init for queue record at QRecord space, QBuffer needs t
                       o also
  303 00000170         ;be defined. 
  304 00000170         ;Modify: R0, R1, PSR
  305 00000170         ;*******************************************************
                       ******* 
  306 00000170         
  307 00000170         ;Retrive buffer location and instantiate all pointers/co
                       nters
  308 00000170 4873    Q_init  LDR              R0, =QRecord
  309 00000172 497D            LDR              R1, =QBuffer
  310 00000174 6001            STR              R1, [R0, #IN_PTR]
  311 00000176 6041            STR              R1, [R0, #OUT_PTR]
  312 00000178 6081            STR              R1, [R0, #BUF_STRT]
  313 0000017A 3104            ADDS             R1, #Q_BUF_SZ
  314 0000017C 60C1            STR              R1, [R0, #BUF_PAST]
  315 0000017E 2104            MOVS             R1, #Q_BUF_SZ
  316 00000180 7401            STRB             R1, [R0, #BUF_SIZE]
  317 00000182 2100            MOVS             R1, #0
  318 00000184 7441            STRB             R1, [R0, #NUM_ENQD]
  319 00000186 4770            BX               LR
  320 00000188         
  321 00000188         
  322 00000188         ;*******************************************************
                       *******
  323 00000188         ;Dequeue attempts to get a charater from the ques whose 
                       record 
  324 00000188         ;structure is in R1, if empty operation fails and set C 
                       flag
  325 00000188         ;Input: R1: base memory of record 
  326 00000188         ;Output: R0: character from queue



ARM Macro Assembler    Page 8 Lab8 Queue


  327 00000188         ;Modify: PSR, R0, RAM
  328 00000188         ;*******************************************************
                       ******* 
  329 00000188         
  330 00000188 B40C    Dequeue PUSH{R2,R3}
  331 0000018A 7C4A            LDRB             R2,[R1, #NUM_ENQD]
  332 0000018C 2A00            CMP              R2, #0      ;If queue empty
  333 0000018E D016            BEQ              QEMP
  334 00000190 3A01            SUBS             R2, #1
  335 00000192 744A            STRB             R2, [R1, #NUM_ENQD]
  336 00000194 684A            LDR              R2, [R1, #OUT_PTR] 
                                                            ;Load out pointer
  337 00000196 7810            LDRB             R0, [R2, #0] ;Get character 
  338 00000198 3201            ADDS             R2, #1
  339 0000019A 68CB            LDR              R3, [R1, #BUF_PAST] 
                                                            ;Check boundry
  340 0000019C 429A            CMP              R2, R3
  341 0000019E D300            BLO              NOTSTR
  342 000001A0 688A            LDR              R2, [R1, #BUF_STRT]
  343 000001A2         ;Update record data and clear C flag
  344 000001A2 604A    NOTSTR  STR              R2, [R1, #OUT_PTR]
  345 000001A4 B401            PUSH             {R0}
  346 000001A6 B402            PUSH             {R1}
  347 000001A8 F3EF 8000       MRS              R0, APSR
  348 000001AC 2120            MOVS             R1, #0x20
  349 000001AE 0609            LSLS             R1, R1, #24
  350 000001B0 4388            BICS             R0, R1
  351 000001B2 F380 8800       MSR              APSR, R0
  352 000001B6 BC02            POP              {R1}
  353 000001B8 BC01            POP              {R0}
  354 000001BA BC0C            POP              {R2,R3}
  355 000001BC 4770            BX               LR
  356 000001BE         
  357 000001BE         ;Set C flag in failure case
  358 000001BE B401    QEMP    PUSH             {R0}
  359 000001C0 B402            PUSH             {R1}
  360 000001C2 F3EF 8000       MRS              R0, APSR
  361 000001C6 2120            MOVS             R1, #0x20
  362 000001C8 0609            LSLS             R1, R1, #24
  363 000001CA 4308            ORRS             R0, R1
  364 000001CC F380 8800       MSR              APSR, R0
  365 000001D0 BC02            POP              {R1}
  366 000001D2 BC01            POP              {R0}
  367 000001D4 BC0C            POP              {R2,R3}
  368 000001D6 4770            BX               LR
  369 000001D8         
  370 000001D8         ;*******************************************************
                       *******
  371 000001D8         ;Enqueue attempts to put a charater in the queue whose r
                       ecord 
  372 000001D8         ;address is in R1, if not full enqueues character in R0 
                       to queue
  373 000001D8         ;C flag set is operation fails
  374 000001D8         ;Input: R1: base memory of record 
  375 000001D8         ;Output: R0: character to queue
  376 000001D8         ;Modify: PSR, R0, RAM
  377 000001D8         ;*******************************************************
                       ******* 
  378 000001D8         



ARM Macro Assembler    Page 9 Lab8 Queue


  379 000001D8 B40C    Enqueue PUSH{R2,R3}
  380 000001DA 7C4A            LDRB             R2,[R1, #NUM_ENQD]
  381 000001DC 7C0B            LDRB             R3, [R1, #BUF_SIZE]
  382 000001DE 429A            CMP              R2, R3      ;If queue Full
  383 000001E0 D016            BEQ              QFUL
  384 000001E2 3201            ADDS             R2, #1
  385 000001E4 744A            STRB             R2, [R1, #NUM_ENQD]
  386 000001E6 680A            LDR              R2, [R1, #IN_PTR] 
                                                            ;Load in pointer
  387 000001E8 7010            STRB             R0, [R2, #0] ;Put character
  388 000001EA 3201            ADDS             R2, #1
  389 000001EC 68CB            LDR              R3, [R1, #BUF_PAST]
  390 000001EE 429A            CMP              R2, R3      ;Check boundry
  391 000001F0 D300            BLO              NOTEND
  392 000001F2 688A            LDR              R2, [R1, #BUF_STRT]
  393 000001F4         ;Update record data and clear C flag
  394 000001F4 600A    NOTEND  STR              R2, [R1, #IN_PTR]
  395 000001F6 B401            PUSH             {R0}
  396 000001F8 B402            PUSH             {R1}
  397 000001FA F3EF 8000       MRS              R0, APSR
  398 000001FE 2120            MOVS             R1, #0x20
  399 00000200 0609            LSLS             R1, R1, #24
  400 00000202 4388            BICS             R0, R1
  401 00000204 F380 8800       MSR              APSR, R0
  402 00000208 BC02            POP              {R1}
  403 0000020A BC01            POP              {R0}
  404 0000020C BC0C            POP              {R2,R3}
  405 0000020E 4770            BX               LR
  406 00000210         
  407 00000210         ;Set C flag in failure case
  408 00000210 B401    QFUL    PUSH             {R0}
  409 00000212 B402            PUSH             {R1}
  410 00000214 F3EF 8000       MRS              R0, APSR
  411 00000218 2120            MOVS             R1, #0x20
  412 0000021A 0609            LSLS             R1, R1, #24
  413 0000021C 4308            ORRS             R0, R1
  414 0000021E F380 8800       MSR              APSR, R0
  415 00000222 BC02            POP              {R1}
  416 00000224 BC01            POP              {R0}
  417 00000226 BC0C            POP              {R2,R3}
  418 00000228 4770            BX               LR
  419 0000022A         
  420 0000022A         ;*******************************************************
                       *******
  421 0000022A         ;Polls UART1 untill character can be read, then
  422 0000022A         ;places the character in R0
  423 0000022A         ;Input: None
  424 0000022A         ;Output: R0: charater read
  425 0000022A         ;Modify: R0, PSR
  426 0000022A         ;*******************************************************
                       ******* 
  427 0000022A         GetChar                              ;Wait for RDRF
  428 0000022A B40E            PUSH             {R1-R3}
  429 0000022C 4951            LDR              R1, =UART1_BASE
  430 0000022E 2220            MOVS             R2, #UART_RDRF_MASK
  431 00000230 790B    PollRx  LDRB             R3, [R1,#UART_S1_OFFSET]
  432 00000232 4013            ANDS             R3,R3,R2
  433 00000234 D0FC            BEQ              PollRx
  434 00000236         ;Receive



ARM Macro Assembler    Page 10 Lab8 Queue


  435 00000236 79C8            LDRB             R0, [R1,#UART_D_OFFSET]
  436 00000238 BC0E            POP              {R1-R3}
  437 0000023A 4770            BX               LR
  438 0000023C         
  439 0000023C         ;*******************************************************
                       *******
  440 0000023C         ;Transmits a character using the UART1 module
  441 0000023C         ;Input: R1: pointer to array of signed words
  442 0000023C         ;       R2: word value of number of elements in array
  443 0000023C         ;Output: R0: number of non-zero elements in array
  444 0000023C         ;Modify: R0, PSR
  445 0000023C         ;*******************************************************
                       ******* 
  446 0000023C         PutChar                              ;Wait for TDRE
  447 0000023C B40E            PUSH             {R1-R3}
  448 0000023E 494D            LDR              R1, =UART1_BASE
  449 00000240 2280            MOVS             R2, #UART_TDRE_MASK
  450 00000242 790B    PollTx  LDRB             R3, [R1,#UART_S1_OFFSET]
  451 00000244 4013            ANDS             R3,R3,R2
  452 00000246 D0FC            BEQ              PollTx
  453 00000248         ;Send
  454 00000248 71C8            STRB             R0, [R1,#UART_D_OFFSET]
  455 0000024A BC0E            POP              {R1-R3}
  456 0000024C 4770            BX               LR
  457 0000024E         
  458 0000024E         ;*******************************************************
                       *******
  459 0000024E         ;Displays a null-terinated string from memory starting
  460 0000024E         ;at the address in R0 to the terminal.
  461 0000024E         ;Input: R0: base memory location
  462 0000024E         ;Output: None
  463 0000024E         ;Modify: PSR
  464 0000024E         ;*******************************************************
                       ******* 
  465 0000024E         ;R0: Char to put
  466 0000024E         ;R1: Current memory address
  467 0000024E B503    PutString
                               PUSH             {R0-R1,LR}
  468 00000250 0001            MOVS             R1, R0
  469 00000252 7808    NextCharP
                               LDRB             R0, [R1, #0]
  470 00000254 3101            ADDS             R1, #0x01
  471 00000256 2800            CMP              R0, #0x00
  472 00000258 D002            BEQ              Terminate
  473 0000025A F7FF FFEF       BL               PutChar
  474 0000025E E7F8            B                NextCharP
  475 00000260 BD03    Terminate
                               POP              {R0-R1,PC}
  476 00000262         
  477 00000262         ;*******************************************************
                       *******
  478 00000262         ;Division Subroutine
  479 00000262         ;Input: R0: divisor 
  480 00000262         ;       R1: dividend
  481 00000262         ;Output:R0: integer result
  482 00000262         ;  R1: Remainder
  483 00000262         ;Modify:R0,R1 PSR
  484 00000262         ;*******************************************************
                       ******* 



ARM Macro Assembler    Page 11 Lab8 Queue


  485 00000262 2800    DIVU    CMP              R0, #0      ;Check if dividing 
                                                            by zero
  486 00000264 D009            BEQ              DivByZero   ;Branch if dividing
                                                             by zero
  487 00000266         
  488 00000266 B404    startDiv
                               PUSH             {R2}        ;Push register on s
                                                            tack to be restore 
                                                            it later
  489 00000268 2200            MOVS             R2, #0      ;Set R2 to 0, will 
                                                            be used as integer 
                                                            result
  490 0000026A         
  491 0000026A 4281    Dividing
                               CMP              R1, R0      ;Check if demoninat
                                                            or is bigger then n
                                                            umberator
  492 0000026C D302            BLO              DoneDiv     ;Branch to finish i
                                                            f above is true
  493 0000026E 1A09            SUBS             R1, R0      ;Subtract demoninat
                                                            or from numerator
  494 00000270 3201            ADDS             R2, #1      ;Add one to result
  495 00000272 E7FA            B                Dividing    ;Continue dividing 
                                                            if above is false
  496 00000274         
  497 00000274 4610    DoneDiv MOV              R0, R2      ;Move result in cor
                                                            rect register
  498 00000276 BC04            POP              {R2}        ;Restore data in R2
                                                             from the stack
  499 00000278 4770            BX               LR          ;Return from call
  500 0000027A         
  501 0000027A B401    DivByZero
                               PUSH             {R0}        ;Push register onto
                                                             stack to restore l
                                                            ater
  502 0000027C B402            PUSH             {R1}        ;Push register onto
                                                             stack to restore l
                                                            ater
  503 0000027E F3EF 8000       MRS              R0, APSR    ;Move the APSR into
                                                             R0
  504 00000282 2120            MOVS             R1, #0x20   ;Change the flags 
  505 00000284 0609            LSLS             R1, R1, #24 ;Shift into correct
                                                             position
  506 00000286 4308            ORRS             R0, R1
  507 00000288 F380 8800       MSR              APSR, R0    ;Write the represen
                                                            tation of the flags
                                                             into the APSR
  508 0000028C BC02            POP              {R1}        ;Restore R1 from st
                                                            ack
  509 0000028E BC01            POP              {R0}        ;Restore R2 form st
                                                            ack
  510 00000290 4770            BX               LR          ;Return from call
  511 00000292         
  512 00000292         ;*******************************************************
                       *******
  513 00000292         ;Configure and initalize UART1 model for commincation
  514 00000292         ;*******************************************************
                       ******* 
  515 00000292         UART1__Init                          ;External Comms



ARM Macro Assembler    Page 12 Lab8 Queue


  516 00000292 4839            LDR              R0, =SIM_SOPT5
  517 00000294 4939            LDR              R1, =UART1_EXTERN_MASK_CLEAR
  518 00000296 6802            LDR              R2,[R0,#0]
  519 00000298 438A            BICS             R2,R2,R1
  520 0000029A 6002            STR              R2,[R0,#0]
  521 0000029C         ;Clock UART1 enable
  522 0000029C 4838            LDR              R0, =SIM_SCGC4
  523 0000029E 4939            LDR              R1, =UART1CGC_MASK
  524 000002A0 6802            LDR              R2,[R0,#0]
  525 000002A2 430A            ORRS             R2,R2,R1
  526 000002A4 6002            STR              R2,[R0,#0]
  527 000002A6         ;Clock PortC enable
  528 000002A6 4838            LDR              R0, =SIM_SCGC5
  529 000002A8 4936            LDR              R1, =PORTCCGC_MASK
  530 000002AA 6802            LDR              R2, [R0,#0]
  531 000002AC 430A            ORRS             R2,R2,R1
  532 000002AE 6002            STR              R2,[R0,#0]
  533 000002B0         ;UART1 Rx to PCT3
  534 000002B0 4836            LDR              R0, =PORTC_PCR3
  535 000002B2 4937            LDR              R1, =SET_PTC3_UART1_RX
  536 000002B4 6001            STR              R1, [R0,#0]
  537 000002B6         ;UART Tc to PCT4
  538 000002B6 4837            LDR              R0, =PORTC_PCR4
  539 000002B8 4935            LDR              R1, =SET_PTC4_UART1_TX
  540 000002BA 6001            STR              R1, [R0,#0]
  541 000002BC         ;Load buad rate
  542 000002BC 482D            LDR              R0, =UART1_BASE
  543 000002BE 2100            MOVS             R1, #UART_9600H
  544 000002C0 7001            STRB             R1, [R0, #UART_BDH_OFFSET]
  545 000002C2 219C            MOVS             R1, #UART_9600L
  546 000002C4 7041            STRB             R1, [R0, #UART_BDL_OFFSET]
  547 000002C6 2100            MOVS             R1, #UART_8N1
  548 000002C8         ;Set control registers
  549 000002C8 7081            STRB             R1, [R0, #UART_C1_OFFSET]
  550 000002CA 2100            MOVS             R1, #UART_TX_NOT_INVERTED
  551 000002CC 7181            STRB             R1, [R0, #UART_C3_OFFSET]
  552 000002CE 2100            MOVS             R1, #UART_NO_DMA
  553 000002D0 7201            STRB             R1, [R0, #UART_C4_OFFSET]
  554 000002D2         ;Turn on
  555 000002D2 210C            MOVS             R1, #UART_T_R
  556 000002D4 70C1            STRB             R1, [R0, #UART_C2_OFFSET]
  557 000002D6 4770            BX               LR
  558 000002D8         
  559 000002D8         ;*******************************************************
                       ***************
  560 000002D8         ;Begin machine code provided for Lab Exercise Eight
  561 000002D8         ;Place at bottom of MyCode section before ";end program 
                       code"
  562 000002D8         ;comment in provided template so that "ALIGN" directive 
                       and 
  563 000002D8         ;"__EndMyCode" label follow this code block.
  564 000002D8         ;*******************************************************
                       ***************
  565 000002D8                 ALIGN
  566 000002D8 B53E    PutNumHex
                               DCI              0xB53E
  567 000002DA 4601            DCI              0x4601
  568 000002DC 4D17            DCI              0x4D17
  569 000002DE 2030            DCI              0x2030



ARM Macro Assembler    Page 13 Lab8 Queue


  570 000002E0 47A8            DCI              0x47A8
  571 000002E2 2078            DCI              0x2078
  572 000002E4 47A8            DCI              0x47A8
  573 000002E6 2208            DCI              0x2208
  574 000002E8 231C            DCI              0x231C
  575 000002EA 240F            DCI              0x240F
  576 000002EC 41D9            DCI              0x41D9
  577 000002EE 4608            DCI              0x4608
  578 000002F0 4020            DCI              0x4020
  579 000002F2 3030            DCI              0x3030
  580 000002F4 2839            DCI              0x2839
  581 000002F6 D901            DCI              0xD901
  582 000002F8 3041            DCI              0x3041
  583 000002FA 383A            DCI              0x383A
  584 000002FC 47A8            DCI              0x47A8
  585 000002FE 1E52            DCI              0x1E52
  586 00000300 D1F4            DCI              0xD1F4
  587 00000302 4608            DCI              0x4608
  588 00000304 BD3E            DCI              0xBD3E
  589 00000306 B507    PutNumU DCI              0xB507
  590 00000308 2100            DCI              0x2100
  591 0000030A B402            DCI              0xB402
  592 0000030C 4A0A            DCI              0x4A0A
  593 0000030E 4B0B            DCI              0x4B0B
  594 00000310 4601            DCI              0x4601
  595 00000312 200A            DCI              0x200A
  596 00000314 4790            DCI              0x4790
  597 00000316 3130            DCI              0x3130
  598 00000318 B402            DCI              0xB402
  599 0000031A 2800            DCI              0x2800
  600 0000031C D1F8            DCI              0xD1F8
  601 0000031E BC01            DCI              0xBC01
  602 00000320 2800            DCI              0x2800
  603 00000322 D001            DCI              0xD001
  604 00000324 4798            DCI              0x4798
  605 00000326 E7FA            DCI              0xE7FA
  606 00000328 BD07            DCI              0xBD07
  607 0000032A B503    PutNumUB
                               DCI              0xB503
  608 0000032C 21FF            DCI              0x21FF
  609 0000032E 4008            DCI              0x4008
  610 00000330 F7FF FFE9       DCI.W            0xF7FFFFE9
  611 00000334 BD03            DCI              0xBD03
  612 00000336 00 00           ALIGN
  613 00000338 00000000        DCD              DIVU
  614 0000033C 00000000        DCD              PutChar
  615 00000340         ;*******************************************************
                       ***************
  616 00000340         ;End machine code provided for Lab Exercise Eight
  617 00000340         ;";end program code" comment of provided template should
                        now follow
  618 00000340         ;so that "ALIGN" directive and "__EndMyCode" are after.
  619 00000340         ;*******************************************************
                       ***************
  620 00000340         ;end program code
  621 00000340                 ALIGN
  622 00000340         __EndMyCode
  623 00000340         ;*******************************************************
                       ***************



ARM Macro Assembler    Page 14 Lab8 Queue


  624 00000340         ;Constants
  625 00000340 00000000 
              00000000 
              00000000 
              00000000 
              00000000 
              00000000 
              00000000 
              00000000 
              00000000 
              00000000 
              00000000 
              00000000 
              00000000 
              4006B000 
              40048010 
              00020070 
              40048034 
              00000800 
              40048038 
              4004B00C 
              01000300 
              4004B010         AREA             MyConst,DATA,READONLY
  626 00000000         ;begin constants here
  627 00000000 54 79 70 
              65 20 61 
              20 71 75 
              65 75 65 
              20 63 6F 
              6D 6D 61 
              6E 64 20 
              28 64 2C 
              65 2C 68 
              2C 70 2C 
              73 29 3B 
              00       TypePrmp
                               DCB              "Type a queue command (d,e,h,p,
s);", 0x00
  628 00000022 43 68 61 
              72 61 63 
              74 65 72 
              20 74 6F 
              20 65 6E 
              71 75 65 
              75 65 3A 
              00       CharPrmp
                               DCB              "Character to enqueue:", 0x00
  629 00000038 53 75 63 
              63 65 73 
              73 3A 0D 
              0A 00    Sec     DCB              "Success:", 0x0D, 0x0A, 0x00
  630 00000043 46 61 69 
              6C 75 72 
              65 3A 0D 
              0A 00    Fail    DCB              "Failure:", 0x0D, 0x0A, 0x00
  631 0000004E 53 74 61 
              74 75 73 
              3A 20 20 
              00       Status  DCB              "Status:  ", 0x00



ARM Macro Assembler    Page 15 Lab8 Queue


  632 00000058 49 6E 3D 
              00       In      DCB              "In=", 0x00
  633 0000005C 20 20 4F 
              75 74 3D 
              00       Out     DCB              "  Out=", 0x00
  634 00000063 20 20 4E 
              75 6D 3D 
              00       Num     DCB              "  Num=", 0x00
  635 0000006A 64 20 28 
              64 65 71 
              75 65 75 
              65 29 2C 
              20 65 20 
              28 65 6E 
              71 75 65 
              75 65 29 
              2C 20 68 
              20 28 68 
              65 6C 70 
              29 2C 20 
              70 20 28 
              70 72 69 
              6E 74 29 
              2C 20 73 
              20 28 73 
              74 61 74 
              75 73 29 
              0D 0A 00 help    DCB              "d (dequeue), e (enqueue), h (h
elp), p (print), s (status)", 0x0D, 0x0A, 0x00
  636 000000A6         ;end constants here
  637 000000A6 00 00           ALIGN
  638 000000A8         __EndMyConst
  639 000000A8         ;*******************************************************
                       ***************
  640 000000A8         ;Variables
  641 000000A8                 AREA             MyData,DATA,READWRITE
  642 00000000         ;begin variables here
  643 00000000 00 00 00 
              00       QBuffer SPACE            Q_BUF_SZ
  644 00000004 00 00 00 
              00 00 00 
              00 00 00 
              00 00 00 
              00 00 00 
              00 00 00 QRecord SPACE            Q_REC_SZ
  645 00000016         ;end variables here
  646 00000016         __EndMyData
  647 00000016                 END
Command Line: --debug --xref --diag_suppress=9931 --cpu=Cortex-M0+ --apcs=inter
work --depend=.\lab8.d -o.\lab8.o -IC:\Keil\ARM\RV31\INC -IC:\Keil\ARM\PACK\ARM
\CMSIS\3.20.4\CMSIS\Include -IC:\Keil\ARM\Inc\Freescale\Kinetis --list=.\lab8.l
st Lab8.s



ARM Macro Assembler    Page 1 Alphabetic symbol ordering
Relocatable symbols

.ARM.__at_0x400 00000000

Symbol: .ARM.__at_0x400
   Definitions
      At line 212 in file MKL25Z128xxx4.s
   Uses
      None
Comment: .ARM.__at_0x400 unused
__END_FCF 00000010

Symbol: __END_FCF
   Definitions
      At line 219 in file MKL25Z128xxx4.s
   Uses
      At line 1103 in file MKL25Z128xxx4.s
Comment: __END_FCF used once
2 symbols



ARM Macro Assembler    Page 1 Alphabetic symbol ordering
Relocatable symbols

RESET 00000000

Symbol: RESET
   Definitions
      At line 1072 in file MKL25Z128xxx4.s
   Uses
      None
Comment: RESET unused
__Vectors 00000000

Symbol: __Vectors
   Definitions
      At line 1074 in file MKL25Z128xxx4.s
   Uses
      At line 1073 in file MKL25Z128xxx4.s
Comment: __Vectors used once
2 symbols



ARM Macro Assembler    Page 1 Alphabetic symbol ordering
Relocatable symbols

SetClock48MHz 0000005C

Symbol: SetClock48MHz
   Definitions
      At line 1147 in file MKL25Z128xxx4.s
   Uses
      At line 136 in file Lab8.s
Comment: SetClock48MHz used once
Start 00000000

Symbol: Start
   Definitions
      At line 1080 in file MKL25Z128xxx4.s
   Uses
      None
Comment: Start unused
SystemInit 00000000

Symbol: SystemInit
   Definitions
      At line 1081 in file MKL25Z128xxx4.s
   Uses
      At line 132 in file Lab8.s
Comment: SystemInit used once
__MCG_CLKST_EXT 00000094

Symbol: __MCG_CLKST_EXT
   Definitions
      At line 1207 in file MKL25Z128xxx4.s
   Uses
      At line 1204 in file MKL25Z128xxx4.s
Comment: __MCG_CLKST_EXT used once
__MCG_CLKST_PLL 000000F4

Symbol: __MCG_CLKST_PLL
   Definitions
      At line 1281 in file MKL25Z128xxx4.s
   Uses
      At line 1278 in file MKL25Z128xxx4.s
Comment: __MCG_CLKST_PLL used once
__MCG_IREFST_Clear 00000084

Symbol: __MCG_IREFST_Clear
   Definitions
      At line 1194 in file MKL25Z128xxx4.s
   Uses
      At line 1191 in file MKL25Z128xxx4.s
Comment: __MCG_IREFST_Clear used once
__MCG_LOCK0 000000D4

Symbol: __MCG_LOCK0
   Definitions
      At line 1253 in file MKL25Z128xxx4.s
   Uses
      At line 1250 in file MKL25Z128xxx4.s
Comment: __MCG_LOCK0 used once
__MCG_OSCINIT0 00000076

Symbol: __MCG_OSCINIT0



ARM Macro Assembler    Page 2 Alphabetic symbol ordering
Relocatable symbols

   Definitions
      At line 1183 in file MKL25Z128xxx4.s
   Uses
      At line 1180 in file MKL25Z128xxx4.s
Comment: __MCG_OSCINIT0 used once
__MCG_PLLST 000000C6

Symbol: __MCG_PLLST
   Definitions
      At line 1242 in file MKL25Z128xxx4.s
   Uses
      At line 1239 in file MKL25Z128xxx4.s
Comment: __MCG_PLLST used once
__MCG_Wait_CLKST_EXT 00000088

Symbol: __MCG_Wait_CLKST_EXT
   Definitions
      At line 1200 in file MKL25Z128xxx4.s
   Uses
      At line 1206 in file MKL25Z128xxx4.s
Comment: __MCG_Wait_CLKST_EXT used once
__MCG_Wait_CLKST_PLL 000000E8

Symbol: __MCG_Wait_CLKST_PLL
   Definitions
      At line 1274 in file MKL25Z128xxx4.s
   Uses
      At line 1280 in file MKL25Z128xxx4.s
Comment: __MCG_Wait_CLKST_PLL used once
__MCG_Wait_IREFST_Clear 0000007A

Symbol: __MCG_Wait_IREFST_Clear
   Definitions
      At line 1188 in file MKL25Z128xxx4.s
   Uses
      At line 1193 in file MKL25Z128xxx4.s
Comment: __MCG_Wait_IREFST_Clear used once
__MCG_Wait_LOCK0 000000CA

Symbol: __MCG_Wait_LOCK0
   Definitions
      At line 1247 in file MKL25Z128xxx4.s
   Uses
      At line 1252 in file MKL25Z128xxx4.s
Comment: __MCG_Wait_LOCK0 used once
__MCG_Wait_OSCINIT0 0000006C

Symbol: __MCG_Wait_OSCINIT0
   Definitions
      At line 1177 in file MKL25Z128xxx4.s
   Uses
      At line 1182 in file MKL25Z128xxx4.s
Comment: __MCG_Wait_OSCINIT0 used once
__MCG_Wait_PLLST 000000BC

Symbol: __MCG_Wait_PLLST
   Definitions
      At line 1236 in file MKL25Z128xxx4.s
   Uses



ARM Macro Assembler    Page 3 Alphabetic symbol ordering
Relocatable symbols

      At line 1241 in file MKL25Z128xxx4.s
Comment: __MCG_Wait_PLLST used once
__RAMImage 00000014

Symbol: __RAMImage
   Definitions
      At line 1107 in file MKL25Z128xxx4.s
   Uses
      At line 1105 in file MKL25Z128xxx4.s
Comment: __RAMImage used once
__RAMInit 0000001C

Symbol: __RAMInit
   Definitions
      At line 1111 in file MKL25Z128xxx4.s
   Uses
      At line 1109 in file MKL25Z128xxx4.s
Comment: __RAMInit used once
__RAMInitDone 00000030

Symbol: __RAMInitDone
   Definitions
      At line 1123 in file MKL25Z128xxx4.s
   Uses
      At line 1115 in file MKL25Z128xxx4.s
Comment: __RAMInitDone used once
__RAMInitLoop 00000024

Symbol: __RAMInitLoop
   Definitions
      At line 1116 in file MKL25Z128xxx4.s
   Uses
      At line 1122 in file MKL25Z128xxx4.s
Comment: __RAMInitLoop used once
19 symbols



ARM Macro Assembler    Page 1 Alphabetic symbol ordering
Relocatable symbols

SP_INIT 00000100

Symbol: SP_INIT
   Definitions
      At line 1289 in file MKL25Z128xxx4.s
   Uses
      At line 1075 in file MKL25Z128xxx4.s
Comment: SP_INIT used once
SSTACK 00000000

Symbol: SSTACK
   Definitions
      At line 1285 in file MKL25Z128xxx4.s
   Uses
      None
Comment: SSTACK unused
2 symbols



ARM Macro Assembler    Page 1 Alphabetic symbol ordering
Relocatable symbols

CorrectCase 00000024

Symbol: CorrectCase
   Definitions
      At line 153 in file Lab8.s
   Uses
      At line 151 in file Lab8.s
Comment: CorrectCase used once
DIVU 00000262

Symbol: DIVU
   Definitions
      At line 485 in file Lab8.s
   Uses
      At line 613 in file Lab8.s
Comment: DIVU used once
Dequeue 00000188

Symbol: Dequeue
   Definitions
      At line 330 in file Lab8.s
   Uses
      At line 173 in file Lab8.s
Comment: Dequeue used once
DivByZero 0000027A

Symbol: DivByZero
   Definitions
      At line 501 in file Lab8.s
   Uses
      At line 486 in file Lab8.s
Comment: DivByZero used once
Dividing 0000026A

Symbol: Dividing
   Definitions
      At line 491 in file Lab8.s
   Uses
      At line 495 in file Lab8.s
Comment: Dividing used once
DoneDiv 00000274

Symbol: DoneDiv
   Definitions
      At line 497 in file Lab8.s
   Uses
      At line 492 in file Lab8.s
Comment: DoneDiv used once
EMPTY 0000010C

Symbol: EMPTY
   Definitions
      At line 263 in file Lab8.s
   Uses
      At line 233 in file Lab8.s
Comment: EMPTY used once
Enqueue 000001D8

Symbol: Enqueue



ARM Macro Assembler    Page 2 Alphabetic symbol ordering
Relocatable symbols

   Definitions
      At line 379 in file Lab8.s
   Uses
      At line 195 in file Lab8.s
Comment: Enqueue used once
Failure 00000094

Symbol: Failure
   Definitions
      At line 204 in file Lab8.s
   Uses
      At line 174 in file Lab8.s
      At line 200 in file Lab8.s

FixCase 00000022

Symbol: FixCase
   Definitions
      At line 152 in file Lab8.s
   Uses
      None
Comment: FixCase unused
Full 000000E4

Symbol: Full
   Definitions
      At line 246 in file Lab8.s
   Uses
      At line 241 in file Lab8.s
Comment: Full used once
GetChar 0000022A

Symbol: GetChar
   Definitions
      At line 427 in file Lab8.s
   Uses
      At line 147 in file Lab8.s
      At line 193 in file Lab8.s

Main 00000014

Symbol: Main
   Definitions
      At line 145 in file Lab8.s
   Uses
      At line 180 in file Lab8.s
      At line 206 in file Lab8.s
      At line 211 in file Lab8.s
      At line 221 in file Lab8.s
      At line 245 in file Lab8.s
      At line 271 in file Lab8.s
      At line 299 in file Lab8.s

MyCode 00000000

Symbol: MyCode
   Definitions
      At line 125 in file Lab8.s
   Uses



ARM Macro Assembler    Page 3 Alphabetic symbol ordering
Relocatable symbols

      None
Comment: MyCode unused
NOTEND 000001F4

Symbol: NOTEND
   Definitions
      At line 394 in file Lab8.s
   Uses
      At line 391 in file Lab8.s
Comment: NOTEND used once
NOTSTR 000001A2

Symbol: NOTSTR
   Definitions
      At line 344 in file Lab8.s
   Uses
      At line 341 in file Lab8.s
Comment: NOTSTR used once
NextCharP 00000252

Symbol: NextCharP
   Definitions
      At line 469 in file Lab8.s
   Uses
      At line 474 in file Lab8.s
Comment: NextCharP used once
NoWrap 000000FE

Symbol: NoWrap
   Definitions
      At line 258 in file Lab8.s
   Uses
      At line 256 in file Lab8.s
Comment: NoWrap used once
NotRec 0000001A

Symbol: NotRec
   Definitions
      At line 147 in file Lab8.s
   Uses
      At line 163 in file Lab8.s
Comment: NotRec used once
PollRx 00000230

Symbol: PollRx
   Definitions
      At line 431 in file Lab8.s
   Uses
      At line 433 in file Lab8.s
Comment: PollRx used once
PollTx 00000242

Symbol: PollTx
   Definitions
      At line 450 in file Lab8.s
   Uses
      At line 452 in file Lab8.s
Comment: PollTx used once
Printing 000000E0



ARM Macro Assembler    Page 4 Alphabetic symbol ordering
Relocatable symbols


Symbol: Printing
   Definitions
      At line 244 in file Lab8.s
   Uses
      At line 262 in file Lab8.s
Comment: Printing used once
PutChar 0000023C

Symbol: PutChar
   Definitions
      At line 446 in file Lab8.s
   Uses
      At line 168 in file Lab8.s
      At line 170 in file Lab8.s
      At line 172 in file Lab8.s
      At line 175 in file Lab8.s
      At line 177 in file Lab8.s
      At line 179 in file Lab8.s
      At line 186 in file Lab8.s
      At line 188 in file Lab8.s
      At line 190 in file Lab8.s
      At line 194 in file Lab8.s
      At line 197 in file Lab8.s
      At line 199 in file Lab8.s
      At line 214 in file Lab8.s
      At line 216 in file Lab8.s
      At line 218 in file Lab8.s
      At line 224 in file Lab8.s
      At line 226 in file Lab8.s
      At line 228 in file Lab8.s
      At line 247 in file Lab8.s
      At line 249 in file Lab8.s
      At line 251 in file Lab8.s
      At line 259 in file Lab8.s
      At line 261 in file Lab8.s
      At line 264 in file Lab8.s
      At line 266 in file Lab8.s
      At line 268 in file Lab8.s
      At line 270 in file Lab8.s
      At line 275 in file Lab8.s
      At line 277 in file Lab8.s
      At line 279 in file Lab8.s
      At line 296 in file Lab8.s
      At line 298 in file Lab8.s
      At line 473 in file Lab8.s
      At line 614 in file Lab8.s

PutNumHex 000002D8

Symbol: PutNumHex
   Definitions
      At line 566 in file Lab8.s
   Uses
      At line 286 in file Lab8.s
      At line 290 in file Lab8.s

PutNumU 00000306




ARM Macro Assembler    Page 5 Alphabetic symbol ordering
Relocatable symbols

Symbol: PutNumU
   Definitions
      At line 589 in file Lab8.s
   Uses
      None
Comment: PutNumU unused
PutNumUB 0000032A

Symbol: PutNumUB
   Definitions
      At line 607 in file Lab8.s
   Uses
      At line 294 in file Lab8.s
Comment: PutNumUB used once
PutString 0000024E

Symbol: PutString
   Definitions
      At line 467 in file Lab8.s
   Uses
      At line 146 in file Lab8.s
      At line 192 in file Lab8.s
      At line 205 in file Lab8.s
      At line 210 in file Lab8.s
      At line 220 in file Lab8.s
      At line 281 in file Lab8.s
      At line 283 in file Lab8.s
      At line 288 in file Lab8.s
      At line 292 in file Lab8.s

QEMP 000001BE

Symbol: QEMP
   Definitions
      At line 358 in file Lab8.s
   Uses
      At line 333 in file Lab8.s
Comment: QEMP used once
QFUL 00000210

Symbol: QFUL
   Definitions
      At line 408 in file Lab8.s
   Uses
      At line 383 in file Lab8.s
Comment: QFUL used once
Q_init 00000170

Symbol: Q_init
   Definitions
      At line 308 in file Lab8.s
   Uses
      At line 143 in file Lab8.s
Comment: Q_init used once
Reset_Handler 00000000

Symbol: Reset_Handler
   Definitions
      At line 128 in file Lab8.s



ARM Macro Assembler    Page 6 Alphabetic symbol ordering
Relocatable symbols

   Uses
      At line 1076 in file MKL25Z128xxx4.s
      At line 127 in file Lab8.s

Success 0000009C

Symbol: Success
   Definitions
      At line 209 in file Lab8.s
   Uses
      At line 201 in file Lab8.s
Comment: Success used once
TerDeq 0000003A

Symbol: TerDeq
   Definitions
      At line 168 in file Lab8.s
   Uses
      At line 154 in file Lab8.s
Comment: TerDeq used once
TerEnq 00000062

Symbol: TerEnq
   Definitions
      At line 186 in file Lab8.s
   Uses
      At line 156 in file Lab8.s
Comment: TerEnq used once
TerHlp 000000A4

Symbol: TerHlp
   Definitions
      At line 214 in file Lab8.s
   Uses
      At line 158 in file Lab8.s
Comment: TerHlp used once
TerPrt 000000BC

Symbol: TerPrt
   Definitions
      At line 224 in file Lab8.s
   Uses
      At line 160 in file Lab8.s
Comment: TerPrt used once
TerSts 00000126

Symbol: TerSts
   Definitions
      At line 275 in file Lab8.s
   Uses
      At line 162 in file Lab8.s
Comment: TerSts used once
Terminate 00000260

Symbol: Terminate
   Definitions
      At line 475 in file Lab8.s
   Uses
      At line 472 in file Lab8.s



ARM Macro Assembler    Page 7 Alphabetic symbol ordering
Relocatable symbols

Comment: Terminate used once
UART1__Init 00000292

Symbol: UART1__Init
   Definitions
      At line 515 in file Lab8.s
   Uses
      At line 142 in file Lab8.s
Comment: UART1__Init used once
__EndMyCode 00000340

Symbol: __EndMyCode
   Definitions
      At line 622 in file Lab8.s
   Uses
      At line 1107 in file MKL25Z128xxx4.s
Comment: __EndMyCode used once
main 00000000

Symbol: main
   Definitions
      At line 129 in file Lab8.s
   Uses
      None
Comment: main unused
startDiv 00000266

Symbol: startDiv
   Definitions
      At line 488 in file Lab8.s
   Uses
      None
Comment: startDiv unused
42 symbols



ARM Macro Assembler    Page 1 Alphabetic symbol ordering
Relocatable symbols

CharPrmp 00000022

Symbol: CharPrmp
   Definitions
      At line 628 in file Lab8.s
   Uses
      At line 191 in file Lab8.s
Comment: CharPrmp used once
Fail 00000043

Symbol: Fail
   Definitions
      At line 630 in file Lab8.s
   Uses
      At line 204 in file Lab8.s
Comment: Fail used once
In 00000058

Symbol: In
   Definitions
      At line 632 in file Lab8.s
   Uses
      At line 282 in file Lab8.s
Comment: In used once
MyConst 00000000

Symbol: MyConst
   Definitions
      At line 625 in file Lab8.s
   Uses
      None
Comment: MyConst unused
Num 00000063

Symbol: Num
   Definitions
      At line 634 in file Lab8.s
   Uses
      At line 291 in file Lab8.s
Comment: Num used once
Out 0000005C

Symbol: Out
   Definitions
      At line 633 in file Lab8.s
   Uses
      At line 287 in file Lab8.s
Comment: Out used once
Sec 00000038

Symbol: Sec
   Definitions
      At line 629 in file Lab8.s
   Uses
      At line 209 in file Lab8.s
Comment: Sec used once
Status 0000004E

Symbol: Status



ARM Macro Assembler    Page 2 Alphabetic symbol ordering
Relocatable symbols

   Definitions
      At line 631 in file Lab8.s
   Uses
      At line 280 in file Lab8.s
Comment: Status used once
TypePrmp 00000000

Symbol: TypePrmp
   Definitions
      At line 627 in file Lab8.s
   Uses
      At line 145 in file Lab8.s
Comment: TypePrmp used once
__EndMyConst 000000A8

Symbol: __EndMyConst
   Definitions
      At line 638 in file Lab8.s
   Uses
      At line 1102 in file MKL25Z128xxx4.s
Comment: __EndMyConst used once
help 0000006A

Symbol: help
   Definitions
      At line 635 in file Lab8.s
   Uses
      At line 219 in file Lab8.s
Comment: help used once
11 symbols



ARM Macro Assembler    Page 1 Alphabetic symbol ordering
Relocatable symbols

MyData 00000000

Symbol: MyData
   Definitions
      At line 641 in file Lab8.s
   Uses
      At line 1112 in file MKL25Z128xxx4.s
Comment: MyData used once
QBuffer 00000000

Symbol: QBuffer
   Definitions
      At line 643 in file Lab8.s
   Uses
      At line 309 in file Lab8.s
Comment: QBuffer used once
QRecord 00000004

Symbol: QRecord
   Definitions
      At line 644 in file Lab8.s
   Uses
      At line 144 in file Lab8.s
      At line 284 in file Lab8.s
      At line 308 in file Lab8.s

__EndMyData 00000016

Symbol: __EndMyData
   Definitions
      At line 646 in file Lab8.s
   Uses
      At line 1113 in file MKL25Z128xxx4.s
Comment: __EndMyData used once
4 symbols



ARM Macro Assembler    Page 1 Alphabetic symbol ordering
Absolute symbols

BUF_PAST 0000000C

Symbol: BUF_PAST
   Definitions
      At line 28 in file Lab8.s
   Uses
      At line 239 in file Lab8.s
      At line 314 in file Lab8.s
      At line 339 in file Lab8.s
      At line 389 in file Lab8.s

BUF_SIZE 00000010

Symbol: BUF_SIZE
   Definitions
      At line 29 in file Lab8.s
   Uses
      At line 234 in file Lab8.s
      At line 316 in file Lab8.s
      At line 381 in file Lab8.s

BUF_STRT 00000008

Symbol: BUF_STRT
   Definitions
      At line 27 in file Lab8.s
   Uses
      At line 257 in file Lab8.s
      At line 312 in file Lab8.s
      At line 342 in file Lab8.s
      At line 392 in file Lab8.s

COP_COPCLKS_MASK 00000002

Symbol: COP_COPCLKS_MASK
   Definitions
      At line 867 in file MKL25Z128xxx4.s
   Uses
      None
Comment: COP_COPCLKS_MASK unused
COP_COPT_MASK 0000000C

Symbol: COP_COPT_MASK
   Definitions
      At line 866 in file MKL25Z128xxx4.s
   Uses
      None
Comment: COP_COPT_MASK unused
COP_COPW_MASK 00000001

Symbol: COP_COPW_MASK
   Definitions
      At line 868 in file MKL25Z128xxx4.s
   Uses
      None
Comment: COP_COPW_MASK unused
COP_DISABLE 00000000

Symbol: COP_DISABLE



ARM Macro Assembler    Page 2 Alphabetic symbol ordering
Absolute symbols

   Definitions
      At line 869 in file MKL25Z128xxx4.s
   Uses
      At line 1097 in file MKL25Z128xxx4.s
Comment: COP_DISABLE used once
FCF_BACKDOOR_KEY0 000000FF

Symbol: FCF_BACKDOOR_KEY0
   Definitions
      At line 93 in file MKL25Z128xxx4.s
   Uses
      At line 213 in file MKL25Z128xxx4.s
Comment: FCF_BACKDOOR_KEY0 used once
FCF_BACKDOOR_KEY1 000000FF

Symbol: FCF_BACKDOOR_KEY1
   Definitions
      At line 97 in file MKL25Z128xxx4.s
   Uses
      At line 213 in file MKL25Z128xxx4.s
Comment: FCF_BACKDOOR_KEY1 used once
FCF_BACKDOOR_KEY2 000000FF

Symbol: FCF_BACKDOOR_KEY2
   Definitions
      At line 101 in file MKL25Z128xxx4.s
   Uses
      At line 214 in file MKL25Z128xxx4.s
Comment: FCF_BACKDOOR_KEY2 used once
FCF_BACKDOOR_KEY3 000000FF

Symbol: FCF_BACKDOOR_KEY3
   Definitions
      At line 105 in file MKL25Z128xxx4.s
   Uses
      At line 214 in file MKL25Z128xxx4.s
Comment: FCF_BACKDOOR_KEY3 used once
FCF_BACKDOOR_KEY4 000000FF

Symbol: FCF_BACKDOOR_KEY4
   Definitions
      At line 109 in file MKL25Z128xxx4.s
   Uses
      At line 215 in file MKL25Z128xxx4.s
Comment: FCF_BACKDOOR_KEY4 used once
FCF_BACKDOOR_KEY5 000000FF

Symbol: FCF_BACKDOOR_KEY5
   Definitions
      At line 113 in file MKL25Z128xxx4.s
   Uses
      At line 215 in file MKL25Z128xxx4.s
Comment: FCF_BACKDOOR_KEY5 used once
FCF_BACKDOOR_KEY6 000000FF

Symbol: FCF_BACKDOOR_KEY6
   Definitions
      At line 117 in file MKL25Z128xxx4.s
   Uses



ARM Macro Assembler    Page 3 Alphabetic symbol ordering
Absolute symbols

      At line 216 in file MKL25Z128xxx4.s
Comment: FCF_BACKDOOR_KEY6 used once
FCF_BACKDOOR_KEY7 000000FF

Symbol: FCF_BACKDOOR_KEY7
   Definitions
      At line 121 in file MKL25Z128xxx4.s
   Uses
      At line 216 in file MKL25Z128xxx4.s
Comment: FCF_BACKDOOR_KEY7 used once
FCF_FOPT 000000FF

Symbol: FCF_FOPT
   Definitions
      At line 132 in file MKL25Z128xxx4.s
   Uses
      At line 218 in file MKL25Z128xxx4.s
Comment: FCF_FOPT used once
FCF_FPROT0 000000FF

Symbol: FCF_FPROT0
   Definitions
      At line 147 in file MKL25Z128xxx4.s
   Uses
      At line 217 in file MKL25Z128xxx4.s
Comment: FCF_FPROT0 used once
FCF_FPROT1 000000FF

Symbol: FCF_FPROT1
   Definitions
      At line 158 in file MKL25Z128xxx4.s
   Uses
      At line 217 in file MKL25Z128xxx4.s
Comment: FCF_FPROT1 used once
FCF_FPROT2 000000FF

Symbol: FCF_FPROT2
   Definitions
      At line 169 in file MKL25Z128xxx4.s
   Uses
      At line 217 in file MKL25Z128xxx4.s
Comment: FCF_FPROT2 used once
FCF_FPROT3 000000FF

Symbol: FCF_FPROT3
   Definitions
      At line 180 in file MKL25Z128xxx4.s
   Uses
      At line 217 in file MKL25Z128xxx4.s
Comment: FCF_FPROT3 used once
FCF_FSEC 0000007E

Symbol: FCF_FSEC
   Definitions
      At line 209 in file MKL25Z128xxx4.s
   Uses
      At line 218 in file MKL25Z128xxx4.s
Comment: FCF_FSEC used once
FGPIOA_BASE F80FF000



ARM Macro Assembler    Page 4 Alphabetic symbol ordering
Absolute symbols


Symbol: FGPIOA_BASE
   Definitions
      At line 41 in file MKL25Z128xxx4.s
   Uses
      At line 42 in file MKL25Z128xxx4.s
      At line 43 in file MKL25Z128xxx4.s
      At line 44 in file MKL25Z128xxx4.s
      At line 45 in file MKL25Z128xxx4.s
      At line 46 in file MKL25Z128xxx4.s
      At line 47 in file MKL25Z128xxx4.s

FGPIOA_PCOR F80FF008

Symbol: FGPIOA_PCOR
   Definitions
      At line 44 in file MKL25Z128xxx4.s
   Uses
      None
Comment: FGPIOA_PCOR unused
FGPIOA_PDDR F80FF014

Symbol: FGPIOA_PDDR
   Definitions
      At line 47 in file MKL25Z128xxx4.s
   Uses
      None
Comment: FGPIOA_PDDR unused
FGPIOA_PDIR F80FF010

Symbol: FGPIOA_PDIR
   Definitions
      At line 46 in file MKL25Z128xxx4.s
   Uses
      None
Comment: FGPIOA_PDIR unused
FGPIOA_PDOR F80FF000

Symbol: FGPIOA_PDOR
   Definitions
      At line 42 in file MKL25Z128xxx4.s
   Uses
      None
Comment: FGPIOA_PDOR unused
FGPIOA_PSOR F80FF004

Symbol: FGPIOA_PSOR
   Definitions
      At line 43 in file MKL25Z128xxx4.s
   Uses
      None
Comment: FGPIOA_PSOR unused
FGPIOA_PTOR F80FF00C

Symbol: FGPIOA_PTOR
   Definitions
      At line 45 in file MKL25Z128xxx4.s
   Uses
      None



ARM Macro Assembler    Page 5 Alphabetic symbol ordering
Absolute symbols

Comment: FGPIOA_PTOR unused
FGPIOB_BASE F80FF040

Symbol: FGPIOB_BASE
   Definitions
      At line 49 in file MKL25Z128xxx4.s
   Uses
      At line 50 in file MKL25Z128xxx4.s
      At line 51 in file MKL25Z128xxx4.s
      At line 52 in file MKL25Z128xxx4.s
      At line 53 in file MKL25Z128xxx4.s
      At line 54 in file MKL25Z128xxx4.s
      At line 55 in file MKL25Z128xxx4.s

FGPIOB_PCOR F80FF048

Symbol: FGPIOB_PCOR
   Definitions
      At line 52 in file MKL25Z128xxx4.s
   Uses
      None
Comment: FGPIOB_PCOR unused
FGPIOB_PDDR F80FF054

Symbol: FGPIOB_PDDR
   Definitions
      At line 55 in file MKL25Z128xxx4.s
   Uses
      None
Comment: FGPIOB_PDDR unused
FGPIOB_PDIR F80FF050

Symbol: FGPIOB_PDIR
   Definitions
      At line 54 in file MKL25Z128xxx4.s
   Uses
      None
Comment: FGPIOB_PDIR unused
FGPIOB_PDOR F80FF040

Symbol: FGPIOB_PDOR
   Definitions
      At line 50 in file MKL25Z128xxx4.s
   Uses
      None
Comment: FGPIOB_PDOR unused
FGPIOB_PSOR F80FF044

Symbol: FGPIOB_PSOR
   Definitions
      At line 51 in file MKL25Z128xxx4.s
   Uses
      None
Comment: FGPIOB_PSOR unused
FGPIOB_PTOR F80FF04C

Symbol: FGPIOB_PTOR
   Definitions
      At line 53 in file MKL25Z128xxx4.s



ARM Macro Assembler    Page 6 Alphabetic symbol ordering
Absolute symbols

   Uses
      None
Comment: FGPIOB_PTOR unused
FGPIOC_BASE F80FF080

Symbol: FGPIOC_BASE
   Definitions
      At line 57 in file MKL25Z128xxx4.s
   Uses
      At line 58 in file MKL25Z128xxx4.s
      At line 59 in file MKL25Z128xxx4.s
      At line 60 in file MKL25Z128xxx4.s
      At line 61 in file MKL25Z128xxx4.s
      At line 62 in file MKL25Z128xxx4.s
      At line 63 in file MKL25Z128xxx4.s

FGPIOC_PCOR F80FF088

Symbol: FGPIOC_PCOR
   Definitions
      At line 60 in file MKL25Z128xxx4.s
   Uses
      None
Comment: FGPIOC_PCOR unused
FGPIOC_PDDR F80FF094

Symbol: FGPIOC_PDDR
   Definitions
      At line 63 in file MKL25Z128xxx4.s
   Uses
      None
Comment: FGPIOC_PDDR unused
FGPIOC_PDIR F80FF090

Symbol: FGPIOC_PDIR
   Definitions
      At line 62 in file MKL25Z128xxx4.s
   Uses
      None
Comment: FGPIOC_PDIR unused
FGPIOC_PDOR F80FF080

Symbol: FGPIOC_PDOR
   Definitions
      At line 58 in file MKL25Z128xxx4.s
   Uses
      None
Comment: FGPIOC_PDOR unused
FGPIOC_PSOR F80FF084

Symbol: FGPIOC_PSOR
   Definitions
      At line 59 in file MKL25Z128xxx4.s
   Uses
      None
Comment: FGPIOC_PSOR unused
FGPIOC_PTOR F80FF08C

Symbol: FGPIOC_PTOR



ARM Macro Assembler    Page 7 Alphabetic symbol ordering
Absolute symbols

   Definitions
      At line 61 in file MKL25Z128xxx4.s
   Uses
      None
Comment: FGPIOC_PTOR unused
FGPIOD_BASE F80FF0C0

Symbol: FGPIOD_BASE
   Definitions
      At line 65 in file MKL25Z128xxx4.s
   Uses
      At line 66 in file MKL25Z128xxx4.s
      At line 67 in file MKL25Z128xxx4.s
      At line 68 in file MKL25Z128xxx4.s
      At line 69 in file MKL25Z128xxx4.s
      At line 70 in file MKL25Z128xxx4.s
      At line 71 in file MKL25Z128xxx4.s

FGPIOD_PCOR F80FF0C8

Symbol: FGPIOD_PCOR
   Definitions
      At line 68 in file MKL25Z128xxx4.s
   Uses
      None
Comment: FGPIOD_PCOR unused
FGPIOD_PDDR F80FF0D4

Symbol: FGPIOD_PDDR
   Definitions
      At line 71 in file MKL25Z128xxx4.s
   Uses
      None
Comment: FGPIOD_PDDR unused
FGPIOD_PDIR F80FF0D0

Symbol: FGPIOD_PDIR
   Definitions
      At line 70 in file MKL25Z128xxx4.s
   Uses
      None
Comment: FGPIOD_PDIR unused
FGPIOD_PDOR F80FF0C0

Symbol: FGPIOD_PDOR
   Definitions
      At line 66 in file MKL25Z128xxx4.s
   Uses
      None
Comment: FGPIOD_PDOR unused
FGPIOD_PSOR F80FF0C4

Symbol: FGPIOD_PSOR
   Definitions
      At line 67 in file MKL25Z128xxx4.s
   Uses
      None
Comment: FGPIOD_PSOR unused
FGPIOD_PTOR F80FF0CC



ARM Macro Assembler    Page 8 Alphabetic symbol ordering
Absolute symbols


Symbol: FGPIOD_PTOR
   Definitions
      At line 69 in file MKL25Z128xxx4.s
   Uses
      None
Comment: FGPIOD_PTOR unused
FGPIOE_BASE F80FF100

Symbol: FGPIOE_BASE
   Definitions
      At line 73 in file MKL25Z128xxx4.s
   Uses
      At line 74 in file MKL25Z128xxx4.s
      At line 75 in file MKL25Z128xxx4.s
      At line 76 in file MKL25Z128xxx4.s
      At line 77 in file MKL25Z128xxx4.s
      At line 78 in file MKL25Z128xxx4.s
      At line 79 in file MKL25Z128xxx4.s

FGPIOE_PCOR F80FF108

Symbol: FGPIOE_PCOR
   Definitions
      At line 76 in file MKL25Z128xxx4.s
   Uses
      None
Comment: FGPIOE_PCOR unused
FGPIOE_PDDR F80FF114

Symbol: FGPIOE_PDDR
   Definitions
      At line 79 in file MKL25Z128xxx4.s
   Uses
      None
Comment: FGPIOE_PDDR unused
FGPIOE_PDIR F80FF110

Symbol: FGPIOE_PDIR
   Definitions
      At line 78 in file MKL25Z128xxx4.s
   Uses
      None
Comment: FGPIOE_PDIR unused
FGPIOE_PDOR F80FF100

Symbol: FGPIOE_PDOR
   Definitions
      At line 74 in file MKL25Z128xxx4.s
   Uses
      None
Comment: FGPIOE_PDOR unused
FGPIOE_PSOR F80FF104

Symbol: FGPIOE_PSOR
   Definitions
      At line 75 in file MKL25Z128xxx4.s
   Uses
      None



ARM Macro Assembler    Page 9 Alphabetic symbol ordering
Absolute symbols

Comment: FGPIOE_PSOR unused
FGPIOE_PTOR F80FF10C

Symbol: FGPIOE_PTOR
   Definitions
      At line 77 in file MKL25Z128xxx4.s
   Uses
      None
Comment: FGPIOE_PTOR unused
FGPIO_BASE F80FF000

Symbol: FGPIO_BASE
   Definitions
      At line 36 in file MKL25Z128xxx4.s
   Uses
      None
Comment: FGPIO_BASE unused
GPIOA_BASE 400FF000

Symbol: GPIOA_BASE
   Definitions
      At line 239 in file MKL25Z128xxx4.s
   Uses
      At line 240 in file MKL25Z128xxx4.s
      At line 241 in file MKL25Z128xxx4.s
      At line 242 in file MKL25Z128xxx4.s
      At line 243 in file MKL25Z128xxx4.s
      At line 244 in file MKL25Z128xxx4.s
      At line 245 in file MKL25Z128xxx4.s

GPIOA_OFFSET 00000000

Symbol: GPIOA_OFFSET
   Definitions
      At line 233 in file MKL25Z128xxx4.s
   Uses
      None
Comment: GPIOA_OFFSET unused
GPIOA_PCOR 400FF008

Symbol: GPIOA_PCOR
   Definitions
      At line 242 in file MKL25Z128xxx4.s
   Uses
      None
Comment: GPIOA_PCOR unused
GPIOA_PDDR 400FF014

Symbol: GPIOA_PDDR
   Definitions
      At line 245 in file MKL25Z128xxx4.s
   Uses
      None
Comment: GPIOA_PDDR unused
GPIOA_PDIR 400FF010

Symbol: GPIOA_PDIR
   Definitions
      At line 244 in file MKL25Z128xxx4.s



ARM Macro Assembler    Page 10 Alphabetic symbol ordering
Absolute symbols

   Uses
      None
Comment: GPIOA_PDIR unused
GPIOA_PDOR 400FF000

Symbol: GPIOA_PDOR
   Definitions
      At line 240 in file MKL25Z128xxx4.s
   Uses
      None
Comment: GPIOA_PDOR unused
GPIOA_PSOR 400FF004

Symbol: GPIOA_PSOR
   Definitions
      At line 241 in file MKL25Z128xxx4.s
   Uses
      None
Comment: GPIOA_PSOR unused
GPIOA_PTOR 400FF00C

Symbol: GPIOA_PTOR
   Definitions
      At line 243 in file MKL25Z128xxx4.s
   Uses
      None
Comment: GPIOA_PTOR unused
GPIOB_BASE 400FF040

Symbol: GPIOB_BASE
   Definitions
      At line 247 in file MKL25Z128xxx4.s
   Uses
      At line 248 in file MKL25Z128xxx4.s
      At line 249 in file MKL25Z128xxx4.s
      At line 250 in file MKL25Z128xxx4.s
      At line 251 in file MKL25Z128xxx4.s
      At line 252 in file MKL25Z128xxx4.s
      At line 253 in file MKL25Z128xxx4.s

GPIOB_OFFSET 00000040

Symbol: GPIOB_OFFSET
   Definitions
      At line 234 in file MKL25Z128xxx4.s
   Uses
      None
Comment: GPIOB_OFFSET unused
GPIOB_PCOR 400FF048

Symbol: GPIOB_PCOR
   Definitions
      At line 250 in file MKL25Z128xxx4.s
   Uses
      None
Comment: GPIOB_PCOR unused
GPIOB_PDDR 400FF054

Symbol: GPIOB_PDDR



ARM Macro Assembler    Page 11 Alphabetic symbol ordering
Absolute symbols

   Definitions
      At line 253 in file MKL25Z128xxx4.s
   Uses
      None
Comment: GPIOB_PDDR unused
GPIOB_PDIR 400FF050

Symbol: GPIOB_PDIR
   Definitions
      At line 252 in file MKL25Z128xxx4.s
   Uses
      None
Comment: GPIOB_PDIR unused
GPIOB_PDOR 400FF040

Symbol: GPIOB_PDOR
   Definitions
      At line 248 in file MKL25Z128xxx4.s
   Uses
      None
Comment: GPIOB_PDOR unused
GPIOB_PSOR 400FF044

Symbol: GPIOB_PSOR
   Definitions
      At line 249 in file MKL25Z128xxx4.s
   Uses
      None
Comment: GPIOB_PSOR unused
GPIOB_PTOR 400FF04C

Symbol: GPIOB_PTOR
   Definitions
      At line 251 in file MKL25Z128xxx4.s
   Uses
      None
Comment: GPIOB_PTOR unused
GPIOC_BASE 400FF080

Symbol: GPIOC_BASE
   Definitions
      At line 255 in file MKL25Z128xxx4.s
   Uses
      At line 256 in file MKL25Z128xxx4.s
      At line 257 in file MKL25Z128xxx4.s
      At line 258 in file MKL25Z128xxx4.s
      At line 259 in file MKL25Z128xxx4.s
      At line 260 in file MKL25Z128xxx4.s
      At line 261 in file MKL25Z128xxx4.s

GPIOC_OFFSET 00000080

Symbol: GPIOC_OFFSET
   Definitions
      At line 235 in file MKL25Z128xxx4.s
   Uses
      None
Comment: GPIOC_OFFSET unused
GPIOC_PCOR 400FF088



ARM Macro Assembler    Page 12 Alphabetic symbol ordering
Absolute symbols


Symbol: GPIOC_PCOR
   Definitions
      At line 258 in file MKL25Z128xxx4.s
   Uses
      None
Comment: GPIOC_PCOR unused
GPIOC_PDDR 400FF094

Symbol: GPIOC_PDDR
   Definitions
      At line 261 in file MKL25Z128xxx4.s
   Uses
      None
Comment: GPIOC_PDDR unused
GPIOC_PDIR 400FF090

Symbol: GPIOC_PDIR
   Definitions
      At line 260 in file MKL25Z128xxx4.s
   Uses
      None
Comment: GPIOC_PDIR unused
GPIOC_PDOR 400FF080

Symbol: GPIOC_PDOR
   Definitions
      At line 256 in file MKL25Z128xxx4.s
   Uses
      None
Comment: GPIOC_PDOR unused
GPIOC_PSOR 400FF084

Symbol: GPIOC_PSOR
   Definitions
      At line 257 in file MKL25Z128xxx4.s
   Uses
      None
Comment: GPIOC_PSOR unused
GPIOC_PTOR 400FF08C

Symbol: GPIOC_PTOR
   Definitions
      At line 259 in file MKL25Z128xxx4.s
   Uses
      None
Comment: GPIOC_PTOR unused
GPIOD_BASE 400FF0C0

Symbol: GPIOD_BASE
   Definitions
      At line 263 in file MKL25Z128xxx4.s
   Uses
      At line 264 in file MKL25Z128xxx4.s
      At line 265 in file MKL25Z128xxx4.s
      At line 266 in file MKL25Z128xxx4.s
      At line 267 in file MKL25Z128xxx4.s
      At line 268 in file MKL25Z128xxx4.s
      At line 269 in file MKL25Z128xxx4.s



ARM Macro Assembler    Page 13 Alphabetic symbol ordering
Absolute symbols


GPIOD_OFFSET 000000C0

Symbol: GPIOD_OFFSET
   Definitions
      At line 236 in file MKL25Z128xxx4.s
   Uses
      None
Comment: GPIOD_OFFSET unused
GPIOD_PCOR 400FF0C8

Symbol: GPIOD_PCOR
   Definitions
      At line 266 in file MKL25Z128xxx4.s
   Uses
      None
Comment: GPIOD_PCOR unused
GPIOD_PDDR 400FF0D4

Symbol: GPIOD_PDDR
   Definitions
      At line 269 in file MKL25Z128xxx4.s
   Uses
      None
Comment: GPIOD_PDDR unused
GPIOD_PDIR 400FF0D0

Symbol: GPIOD_PDIR
   Definitions
      At line 268 in file MKL25Z128xxx4.s
   Uses
      None
Comment: GPIOD_PDIR unused
GPIOD_PDOR 400FF0C0

Symbol: GPIOD_PDOR
   Definitions
      At line 264 in file MKL25Z128xxx4.s
   Uses
      None
Comment: GPIOD_PDOR unused
GPIOD_PSOR 400FF0C4

Symbol: GPIOD_PSOR
   Definitions
      At line 265 in file MKL25Z128xxx4.s
   Uses
      None
Comment: GPIOD_PSOR unused
GPIOD_PTOR 400FF0CC

Symbol: GPIOD_PTOR
   Definitions
      At line 267 in file MKL25Z128xxx4.s
   Uses
      None
Comment: GPIOD_PTOR unused
GPIOE_BASE 400FF100




ARM Macro Assembler    Page 14 Alphabetic symbol ordering
Absolute symbols

Symbol: GPIOE_BASE
   Definitions
      At line 271 in file MKL25Z128xxx4.s
   Uses
      At line 272 in file MKL25Z128xxx4.s
      At line 273 in file MKL25Z128xxx4.s
      At line 274 in file MKL25Z128xxx4.s
      At line 275 in file MKL25Z128xxx4.s
      At line 276 in file MKL25Z128xxx4.s
      At line 277 in file MKL25Z128xxx4.s

GPIOE_OFFSET 00000100

Symbol: GPIOE_OFFSET
   Definitions
      At line 237 in file MKL25Z128xxx4.s
   Uses
      None
Comment: GPIOE_OFFSET unused
GPIOE_PCOR 400FF108

Symbol: GPIOE_PCOR
   Definitions
      At line 274 in file MKL25Z128xxx4.s
   Uses
      None
Comment: GPIOE_PCOR unused
GPIOE_PDDR 400FF114

Symbol: GPIOE_PDDR
   Definitions
      At line 277 in file MKL25Z128xxx4.s
   Uses
      None
Comment: GPIOE_PDDR unused
GPIOE_PDIR 400FF110

Symbol: GPIOE_PDIR
   Definitions
      At line 276 in file MKL25Z128xxx4.s
   Uses
      None
Comment: GPIOE_PDIR unused
GPIOE_PDOR 400FF100

Symbol: GPIOE_PDOR
   Definitions
      At line 272 in file MKL25Z128xxx4.s
   Uses
      None
Comment: GPIOE_PDOR unused
GPIOE_PSOR 400FF104

Symbol: GPIOE_PSOR
   Definitions
      At line 273 in file MKL25Z128xxx4.s
   Uses
      None
Comment: GPIOE_PSOR unused



ARM Macro Assembler    Page 15 Alphabetic symbol ordering
Absolute symbols

GPIOE_PTOR 400FF10C

Symbol: GPIOE_PTOR
   Definitions
      At line 275 in file MKL25Z128xxx4.s
   Uses
      None
Comment: GPIOE_PTOR unused
GPIO_BASE 400FF000

Symbol: GPIO_BASE
   Definitions
      At line 226 in file MKL25Z128xxx4.s
   Uses
      None
Comment: GPIO_BASE unused
GPIO_PCOR_OFFSET 00000008

Symbol: GPIO_PCOR_OFFSET
   Definitions
      At line 229 in file MKL25Z128xxx4.s
   Uses
      At line 44 in file MKL25Z128xxx4.s
      At line 52 in file MKL25Z128xxx4.s
      At line 60 in file MKL25Z128xxx4.s
      At line 68 in file MKL25Z128xxx4.s
      At line 76 in file MKL25Z128xxx4.s
      At line 242 in file MKL25Z128xxx4.s
      At line 250 in file MKL25Z128xxx4.s
      At line 258 in file MKL25Z128xxx4.s
      At line 266 in file MKL25Z128xxx4.s
      At line 274 in file MKL25Z128xxx4.s

GPIO_PDDR_OFFSET 00000014

Symbol: GPIO_PDDR_OFFSET
   Definitions
      At line 232 in file MKL25Z128xxx4.s
   Uses
      At line 47 in file MKL25Z128xxx4.s
      At line 55 in file MKL25Z128xxx4.s
      At line 63 in file MKL25Z128xxx4.s
      At line 71 in file MKL25Z128xxx4.s
      At line 79 in file MKL25Z128xxx4.s
      At line 245 in file MKL25Z128xxx4.s
      At line 253 in file MKL25Z128xxx4.s
      At line 261 in file MKL25Z128xxx4.s
      At line 269 in file MKL25Z128xxx4.s
      At line 277 in file MKL25Z128xxx4.s

GPIO_PDIR_OFFSET 00000010

Symbol: GPIO_PDIR_OFFSET
   Definitions
      At line 231 in file MKL25Z128xxx4.s
   Uses
      At line 46 in file MKL25Z128xxx4.s
      At line 54 in file MKL25Z128xxx4.s
      At line 62 in file MKL25Z128xxx4.s



ARM Macro Assembler    Page 16 Alphabetic symbol ordering
Absolute symbols

      At line 70 in file MKL25Z128xxx4.s
      At line 78 in file MKL25Z128xxx4.s
      At line 244 in file MKL25Z128xxx4.s
      At line 252 in file MKL25Z128xxx4.s
      At line 260 in file MKL25Z128xxx4.s
      At line 268 in file MKL25Z128xxx4.s
      At line 276 in file MKL25Z128xxx4.s

GPIO_PDOR_OFFSET 00000000

Symbol: GPIO_PDOR_OFFSET
   Definitions
      At line 227 in file MKL25Z128xxx4.s
   Uses
      At line 42 in file MKL25Z128xxx4.s
      At line 50 in file MKL25Z128xxx4.s
      At line 58 in file MKL25Z128xxx4.s
      At line 66 in file MKL25Z128xxx4.s
      At line 74 in file MKL25Z128xxx4.s
      At line 240 in file MKL25Z128xxx4.s
      At line 248 in file MKL25Z128xxx4.s
      At line 256 in file MKL25Z128xxx4.s
      At line 264 in file MKL25Z128xxx4.s
      At line 272 in file MKL25Z128xxx4.s

GPIO_PSOR_OFFSET 00000004

Symbol: GPIO_PSOR_OFFSET
   Definitions
      At line 228 in file MKL25Z128xxx4.s
   Uses
      At line 43 in file MKL25Z128xxx4.s
      At line 51 in file MKL25Z128xxx4.s
      At line 59 in file MKL25Z128xxx4.s
      At line 67 in file MKL25Z128xxx4.s
      At line 75 in file MKL25Z128xxx4.s
      At line 241 in file MKL25Z128xxx4.s
      At line 249 in file MKL25Z128xxx4.s
      At line 257 in file MKL25Z128xxx4.s
      At line 265 in file MKL25Z128xxx4.s
      At line 273 in file MKL25Z128xxx4.s

GPIO_PTOR_OFFSET 0000000C

Symbol: GPIO_PTOR_OFFSET
   Definitions
      At line 230 in file MKL25Z128xxx4.s
   Uses
      At line 45 in file MKL25Z128xxx4.s
      At line 53 in file MKL25Z128xxx4.s
      At line 61 in file MKL25Z128xxx4.s
      At line 69 in file MKL25Z128xxx4.s
      At line 77 in file MKL25Z128xxx4.s
      At line 243 in file MKL25Z128xxx4.s
      At line 251 in file MKL25Z128xxx4.s
      At line 259 in file MKL25Z128xxx4.s
      At line 267 in file MKL25Z128xxx4.s
      At line 275 in file MKL25Z128xxx4.s




ARM Macro Assembler    Page 17 Alphabetic symbol ordering
Absolute symbols

HALFWORD_SIZE 00000002

Symbol: HALFWORD_SIZE
   Definitions
      At line 22 in file MKL25Z128xxx4.s
   Uses
      None
Comment: HALFWORD_SIZE unused
IN_PTR 00000000

Symbol: IN_PTR
   Definitions
      At line 25 in file Lab8.s
   Uses
      At line 238 in file Lab8.s
      At line 285 in file Lab8.s
      At line 310 in file Lab8.s
      At line 386 in file Lab8.s
      At line 394 in file Lab8.s

MCG_BASE 40064000

Symbol: MCG_BASE
   Definitions
      At line 283 in file MKL25Z128xxx4.s
   Uses
      At line 290 in file MKL25Z128xxx4.s
      At line 291 in file MKL25Z128xxx4.s
      At line 292 in file MKL25Z128xxx4.s
      At line 293 in file MKL25Z128xxx4.s
      At line 294 in file MKL25Z128xxx4.s
      At line 295 in file MKL25Z128xxx4.s
      At line 1161 in file MKL25Z128xxx4.s

MCG_C1 40064000

Symbol: MCG_C1
   Definitions
      At line 290 in file MKL25Z128xxx4.s
   Uses
      None
Comment: MCG_C1 unused
MCG_C1_CLKS_EXT_MASK 00000080

Symbol: MCG_C1_CLKS_EXT_MASK
   Definitions
      At line 324 in file MKL25Z128xxx4.s
   Uses
      At line 327 in file MKL25Z128xxx4.s
Comment: MCG_C1_CLKS_EXT_MASK used once
MCG_C1_CLKS_MASK 000000C0

Symbol: MCG_C1_CLKS_MASK
   Definitions
      At line 319 in file MKL25Z128xxx4.s
   Uses
      At line 1264 in file MKL25Z128xxx4.s
Comment: MCG_C1_CLKS_MASK used once
MCG_C1_CLKS_PLL_MASK 00000000



ARM Macro Assembler    Page 18 Alphabetic symbol ordering
Absolute symbols


Symbol: MCG_C1_CLKS_PLL_MASK
   Definitions
      At line 325 in file MKL25Z128xxx4.s
   Uses
      None
Comment: MCG_C1_CLKS_PLL_MASK unused
MCG_C1_EXT_DIV256 00000098

Symbol: MCG_C1_EXT_DIV256
   Definitions
      At line 327 in file MKL25Z128xxx4.s
   Uses
      At line 1171 in file MKL25Z128xxx4.s
Comment: MCG_C1_EXT_DIV256 used once
MCG_C1_FRDIV_256_MASK 00000018

Symbol: MCG_C1_FRDIV_256_MASK
   Definitions
      At line 326 in file MKL25Z128xxx4.s
   Uses
      At line 327 in file MKL25Z128xxx4.s
Comment: MCG_C1_FRDIV_256_MASK used once
MCG_C1_FRDIV_MASK 00000038

Symbol: MCG_C1_FRDIV_MASK
   Definitions
      At line 320 in file MKL25Z128xxx4.s
   Uses
      None
Comment: MCG_C1_FRDIV_MASK unused
MCG_C1_IRCLKEN_MASK 00000002

Symbol: MCG_C1_IRCLKEN_MASK
   Definitions
      At line 322 in file MKL25Z128xxx4.s
   Uses
      None
Comment: MCG_C1_IRCLKEN_MASK unused
MCG_C1_IREFSTEN_MASK 00000001

Symbol: MCG_C1_IREFSTEN_MASK
   Definitions
      At line 323 in file MKL25Z128xxx4.s
   Uses
      None
Comment: MCG_C1_IREFSTEN_MASK unused
MCG_C1_IREFS_MASK 00000004

Symbol: MCG_C1_IREFS_MASK
   Definitions
      At line 321 in file MKL25Z128xxx4.s
   Uses
      None
Comment: MCG_C1_IREFS_MASK unused
MCG_C1_OFFSET 00000000

Symbol: MCG_C1_OFFSET
   Definitions



ARM Macro Assembler    Page 19 Alphabetic symbol ordering
Absolute symbols

      At line 284 in file MKL25Z128xxx4.s
   Uses
      At line 290 in file MKL25Z128xxx4.s
      At line 1172 in file MKL25Z128xxx4.s
      At line 1266 in file MKL25Z128xxx4.s
      At line 1268 in file MKL25Z128xxx4.s

MCG_C2 40064001

Symbol: MCG_C2
   Definitions
      At line 291 in file MKL25Z128xxx4.s
   Uses
      None
Comment: MCG_C2 unused
MCG_C2_EREFS0_MASK 00000004

Symbol: MCG_C2_EREFS0_MASK
   Definitions
      At line 353 in file MKL25Z128xxx4.s
   Uses
      At line 357 in file MKL25Z128xxx4.s
Comment: MCG_C2_EREFS0_MASK used once
MCG_C2_HF_LP_OSC 00000014

Symbol: MCG_C2_HF_LP_OSC
   Definitions
      At line 357 in file MKL25Z128xxx4.s
   Uses
      At line 1162 in file MKL25Z128xxx4.s
Comment: MCG_C2_HF_LP_OSC used once
MCG_C2_HGO0_MASK 00000008

Symbol: MCG_C2_HGO0_MASK
   Definitions
      At line 352 in file MKL25Z128xxx4.s
   Uses
      None
Comment: MCG_C2_HGO0_MASK unused
MCG_C2_IRCS_MASK 00000001

Symbol: MCG_C2_IRCS_MASK
   Definitions
      At line 355 in file MKL25Z128xxx4.s
   Uses
      None
Comment: MCG_C2_IRCS_MASK unused
MCG_C2_LOCRE0_MASK 00000080

Symbol: MCG_C2_LOCRE0_MASK
   Definitions
      At line 350 in file MKL25Z128xxx4.s
   Uses
      None
Comment: MCG_C2_LOCRE0_MASK unused
MCG_C2_LP_MASK 00000002

Symbol: MCG_C2_LP_MASK
   Definitions



ARM Macro Assembler    Page 20 Alphabetic symbol ordering
Absolute symbols

      At line 354 in file MKL25Z128xxx4.s
   Uses
      None
Comment: MCG_C2_LP_MASK unused
MCG_C2_OFFSET 00000001

Symbol: MCG_C2_OFFSET
   Definitions
      At line 285 in file MKL25Z128xxx4.s
   Uses
      At line 291 in file MKL25Z128xxx4.s
      At line 1163 in file MKL25Z128xxx4.s

MCG_C2_RANGE0_HIGH_MASK 00000010

Symbol: MCG_C2_RANGE0_HIGH_MASK
   Definitions
      At line 356 in file MKL25Z128xxx4.s
   Uses
      At line 357 in file MKL25Z128xxx4.s
Comment: MCG_C2_RANGE0_HIGH_MASK used once
MCG_C2_RANGE0_MASK 00000030

Symbol: MCG_C2_RANGE0_MASK
   Definitions
      At line 351 in file MKL25Z128xxx4.s
   Uses
      None
Comment: MCG_C2_RANGE0_MASK unused
MCG_C4 40064003

Symbol: MCG_C4
   Definitions
      At line 292 in file MKL25Z128xxx4.s
   Uses
      None
Comment: MCG_C4 unused
MCG_C4_OFFSET 00000003

Symbol: MCG_C4_OFFSET
   Definitions
      At line 286 in file MKL25Z128xxx4.s
   Uses
      At line 292 in file MKL25Z128xxx4.s
Comment: MCG_C4_OFFSET used once
MCG_C5 40064004

Symbol: MCG_C5
   Definitions
      At line 293 in file MKL25Z128xxx4.s
   Uses
      None
Comment: MCG_C5 unused
MCG_C5_OFFSET 00000004

Symbol: MCG_C5_OFFSET
   Definitions
      At line 287 in file MKL25Z128xxx4.s
   Uses



ARM Macro Assembler    Page 21 Alphabetic symbol ordering
Absolute symbols

      At line 293 in file MKL25Z128xxx4.s
      At line 1220 in file MKL25Z128xxx4.s
      At line 1223 in file MKL25Z128xxx4.s

MCG_C5_PLLCLKEN0_MASK 00000040

Symbol: MCG_C5_PLLCLKEN0_MASK
   Definitions
      At line 366 in file MKL25Z128xxx4.s
   Uses
      None
Comment: MCG_C5_PLLCLKEN0_MASK unused
MCG_C5_PLLSTEN0_MASK 00000020

Symbol: MCG_C5_PLLSTEN0_MASK
   Definitions
      At line 367 in file MKL25Z128xxx4.s
   Uses
      None
Comment: MCG_C5_PLLSTEN0_MASK unused
MCG_C5_PRDIV0_DIV2 00000001

Symbol: MCG_C5_PRDIV0_DIV2
   Definitions
      At line 369 in file MKL25Z128xxx4.s
   Uses
      At line 1219 in file MKL25Z128xxx4.s
Comment: MCG_C5_PRDIV0_DIV2 used once
MCG_C5_PRDIV0_MASK 0000001F

Symbol: MCG_C5_PRDIV0_MASK
   Definitions
      At line 368 in file MKL25Z128xxx4.s
   Uses
      At line 1217 in file MKL25Z128xxx4.s
Comment: MCG_C5_PRDIV0_MASK used once
MCG_C6 40064005

Symbol: MCG_C6
   Definitions
      At line 294 in file MKL25Z128xxx4.s
   Uses
      None
Comment: MCG_C6 unused
MCG_C6_CME0_MASK 00000020

Symbol: MCG_C6_CME0_MASK
   Definitions
      At line 381 in file MKL25Z128xxx4.s
   Uses
      At line 1209 in file MKL25Z128xxx4.s
Comment: MCG_C6_CME0_MASK used once
MCG_C6_LOLIE0_MASK 00000080

Symbol: MCG_C6_LOLIE0_MASK
   Definitions
      At line 379 in file MKL25Z128xxx4.s
   Uses
      None



ARM Macro Assembler    Page 22 Alphabetic symbol ordering
Absolute symbols

Comment: MCG_C6_LOLIE0_MASK unused
MCG_C6_OFFSET 00000005

Symbol: MCG_C6_OFFSET
   Definitions
      At line 288 in file MKL25Z128xxx4.s
   Uses
      At line 294 in file MKL25Z128xxx4.s
      At line 1210 in file MKL25Z128xxx4.s
      At line 1212 in file MKL25Z128xxx4.s
      At line 1228 in file MKL25Z128xxx4.s
      At line 1231 in file MKL25Z128xxx4.s

MCG_C6_PLLS_MASK 00000040

Symbol: MCG_C6_PLLS_MASK
   Definitions
      At line 380 in file MKL25Z128xxx4.s
   Uses
      At line 384 in file MKL25Z128xxx4.s
Comment: MCG_C6_PLLS_MASK used once
MCG_C6_PLLS_PLL_MASK 00000040

Symbol: MCG_C6_PLLS_PLL_MASK
   Definitions
      At line 384 in file MKL25Z128xxx4.s
   Uses
      At line 385 in file MKL25Z128xxx4.s
Comment: MCG_C6_PLLS_PLL_MASK used once
MCG_C6_PLL_MUL24 00000040

Symbol: MCG_C6_PLL_MUL24
   Definitions
      At line 385 in file MKL25Z128xxx4.s
   Uses
      At line 1227 in file MKL25Z128xxx4.s
Comment: MCG_C6_PLL_MUL24 used once
MCG_C6_VDIV0_MASK 0000001F

Symbol: MCG_C6_VDIV0_MASK
   Definitions
      At line 382 in file MKL25Z128xxx4.s
   Uses
      At line 1225 in file MKL25Z128xxx4.s
Comment: MCG_C6_VDIV0_MASK used once
MCG_C6_VDIV0_MUL24 00000000

Symbol: MCG_C6_VDIV0_MUL24
   Definitions
      At line 383 in file MKL25Z128xxx4.s
   Uses
      At line 385 in file MKL25Z128xxx4.s
Comment: MCG_C6_VDIV0_MUL24 used once
MCG_S 40064006

Symbol: MCG_S
   Definitions
      At line 295 in file MKL25Z128xxx4.s
   Uses



ARM Macro Assembler    Page 23 Alphabetic symbol ordering
Absolute symbols

      None
Comment: MCG_S unused
MCG_S_CLKST_EXT_MASK 00000008

Symbol: MCG_S_CLKST_EXT_MASK
   Definitions
      At line 412 in file MKL25Z128xxx4.s
   Uses
      At line 1203 in file MKL25Z128xxx4.s
Comment: MCG_S_CLKST_EXT_MASK used once
MCG_S_CLKST_MASK 0000000C

Symbol: MCG_S_CLKST_MASK
   Definitions
      At line 409 in file MKL25Z128xxx4.s
   Uses
      At line 1198 in file MKL25Z128xxx4.s
      At line 1272 in file MKL25Z128xxx4.s

MCG_S_CLKST_PLL_MASK 0000000C

Symbol: MCG_S_CLKST_PLL_MASK
   Definitions
      At line 413 in file MKL25Z128xxx4.s
   Uses
      At line 1277 in file MKL25Z128xxx4.s
Comment: MCG_S_CLKST_PLL_MASK used once
MCG_S_IRCST_MASK 00000001

Symbol: MCG_S_IRCST_MASK
   Definitions
      At line 411 in file MKL25Z128xxx4.s
   Uses
      None
Comment: MCG_S_IRCST_MASK unused
MCG_S_IREFST_MASK 00000010

Symbol: MCG_S_IREFST_MASK
   Definitions
      At line 408 in file MKL25Z128xxx4.s
   Uses
      At line 1186 in file MKL25Z128xxx4.s
Comment: MCG_S_IREFST_MASK used once
MCG_S_LOCK0_MASK 00000040

Symbol: MCG_S_LOCK0_MASK
   Definitions
      At line 406 in file MKL25Z128xxx4.s
   Uses
      At line 1245 in file MKL25Z128xxx4.s
Comment: MCG_S_LOCK0_MASK used once
MCG_S_LOLS_MASK 00000080

Symbol: MCG_S_LOLS_MASK
   Definitions
      At line 405 in file MKL25Z128xxx4.s
   Uses
      None
Comment: MCG_S_LOLS_MASK unused



ARM Macro Assembler    Page 24 Alphabetic symbol ordering
Absolute symbols

MCG_S_OFFSET 00000006

Symbol: MCG_S_OFFSET
   Definitions
      At line 289 in file MKL25Z128xxx4.s
   Uses
      At line 295 in file MKL25Z128xxx4.s
      At line 1178 in file MKL25Z128xxx4.s
      At line 1189 in file MKL25Z128xxx4.s
      At line 1201 in file MKL25Z128xxx4.s
      At line 1237 in file MKL25Z128xxx4.s
      At line 1248 in file MKL25Z128xxx4.s
      At line 1275 in file MKL25Z128xxx4.s

MCG_S_OSCINIT0_MASK 00000002

Symbol: MCG_S_OSCINIT0_MASK
   Definitions
      At line 410 in file MKL25Z128xxx4.s
   Uses
      At line 1175 in file MKL25Z128xxx4.s
Comment: MCG_S_OSCINIT0_MASK used once
MCG_S_PLLST_MASK 00000020

Symbol: MCG_S_PLLST_MASK
   Definitions
      At line 407 in file MKL25Z128xxx4.s
   Uses
      At line 1234 in file MKL25Z128xxx4.s
Comment: MCG_S_PLLST_MASK used once
NUM_ENQD 00000011

Symbol: NUM_ENQD
   Definitions
      At line 30 in file Lab8.s
   Uses
      At line 230 in file Lab8.s
      At line 293 in file Lab8.s
      At line 318 in file Lab8.s
      At line 331 in file Lab8.s
      At line 335 in file Lab8.s
      At line 380 in file Lab8.s
      At line 385 in file Lab8.s

OUT_PTR 00000004

Symbol: OUT_PTR
   Definitions
      At line 26 in file Lab8.s
   Uses
      At line 237 in file Lab8.s
      At line 289 in file Lab8.s
      At line 311 in file Lab8.s
      At line 336 in file Lab8.s
      At line 344 in file Lab8.s

PIN_ISF_MASK 01000000

Symbol: PIN_ISF_MASK



ARM Macro Assembler    Page 25 Alphabetic symbol ordering
Absolute symbols

   Definitions
      At line 450 in file MKL25Z128xxx4.s
   Uses
      At line 45 in file Lab8.s
      At line 46 in file Lab8.s

PIN_MUX_MASK 00000700

Symbol: PIN_MUX_MASK
   Definitions
      At line 449 in file MKL25Z128xxx4.s
   Uses
      None
Comment: PIN_MUX_MASK unused
PIN_MUX_SELECT_0_MASK 00000000

Symbol: PIN_MUX_SELECT_0_MASK
   Definitions
      At line 451 in file MKL25Z128xxx4.s
   Uses
      None
Comment: PIN_MUX_SELECT_0_MASK unused
PIN_MUX_SELECT_1_MASK 00000100

Symbol: PIN_MUX_SELECT_1_MASK
   Definitions
      At line 452 in file MKL25Z128xxx4.s
   Uses
      None
Comment: PIN_MUX_SELECT_1_MASK unused
PIN_MUX_SELECT_2_MASK 00000200

Symbol: PIN_MUX_SELECT_2_MASK
   Definitions
      At line 453 in file MKL25Z128xxx4.s
   Uses
      None
Comment: PIN_MUX_SELECT_2_MASK unused
PIN_MUX_SELECT_3 00000300

Symbol: PIN_MUX_SELECT_3
   Definitions
      At line 40 in file Lab8.s
   Uses
      At line 43 in file Lab8.s
      At line 44 in file Lab8.s

PIN_MUX_SELECT_3_MASK 00000300

Symbol: PIN_MUX_SELECT_3_MASK
   Definitions
      At line 454 in file MKL25Z128xxx4.s
   Uses
      None
Comment: PIN_MUX_SELECT_3_MASK unused
PIN_MUX_SELECT_4_MASK 00000400

Symbol: PIN_MUX_SELECT_4_MASK
   Definitions



ARM Macro Assembler    Page 26 Alphabetic symbol ordering
Absolute symbols

      At line 455 in file MKL25Z128xxx4.s
   Uses
      None
Comment: PIN_MUX_SELECT_4_MASK unused
PIN_MUX_SELECT_5_MASK 00000500

Symbol: PIN_MUX_SELECT_5_MASK
   Definitions
      At line 456 in file MKL25Z128xxx4.s
   Uses
      None
Comment: PIN_MUX_SELECT_5_MASK unused
PIN_MUX_SELECT_6_MASK 00000600

Symbol: PIN_MUX_SELECT_6_MASK
   Definitions
      At line 457 in file MKL25Z128xxx4.s
   Uses
      None
Comment: PIN_MUX_SELECT_6_MASK unused
PIN_MUX_SELECT_7_MASK 00000700

Symbol: PIN_MUX_SELECT_7_MASK
   Definitions
      At line 458 in file MKL25Z128xxx4.s
   Uses
      None
Comment: PIN_MUX_SELECT_7_MASK unused
PORTA_BASE 40049000

Symbol: PORTA_BASE
   Definitions
      At line 461 in file MKL25Z128xxx4.s
   Uses
      At line 497 in file MKL25Z128xxx4.s
      At line 498 in file MKL25Z128xxx4.s
      At line 499 in file MKL25Z128xxx4.s
      At line 500 in file MKL25Z128xxx4.s
      At line 501 in file MKL25Z128xxx4.s
      At line 502 in file MKL25Z128xxx4.s
      At line 503 in file MKL25Z128xxx4.s
      At line 504 in file MKL25Z128xxx4.s
      At line 505 in file MKL25Z128xxx4.s
      At line 506 in file MKL25Z128xxx4.s
      At line 507 in file MKL25Z128xxx4.s
      At line 508 in file MKL25Z128xxx4.s
      At line 509 in file MKL25Z128xxx4.s
      At line 510 in file MKL25Z128xxx4.s
      At line 511 in file MKL25Z128xxx4.s
      At line 512 in file MKL25Z128xxx4.s
      At line 513 in file MKL25Z128xxx4.s
      At line 514 in file MKL25Z128xxx4.s
      At line 515 in file MKL25Z128xxx4.s
      At line 516 in file MKL25Z128xxx4.s
      At line 517 in file MKL25Z128xxx4.s
      At line 518 in file MKL25Z128xxx4.s
      At line 519 in file MKL25Z128xxx4.s
      At line 520 in file MKL25Z128xxx4.s
      At line 521 in file MKL25Z128xxx4.s



ARM Macro Assembler    Page 27 Alphabetic symbol ordering
Absolute symbols

      At line 522 in file MKL25Z128xxx4.s
      At line 523 in file MKL25Z128xxx4.s
      At line 524 in file MKL25Z128xxx4.s
      At line 525 in file MKL25Z128xxx4.s
      At line 526 in file MKL25Z128xxx4.s
      At line 527 in file MKL25Z128xxx4.s
      At line 528 in file MKL25Z128xxx4.s
      At line 529 in file MKL25Z128xxx4.s
      At line 530 in file MKL25Z128xxx4.s
      At line 531 in file MKL25Z128xxx4.s

PORTA_GPCHR 40049084

Symbol: PORTA_GPCHR
   Definitions
      At line 530 in file MKL25Z128xxx4.s
   Uses
      None
Comment: PORTA_GPCHR unused
PORTA_GPCHR_OFFSET 00000084

Symbol: PORTA_GPCHR_OFFSET
   Definitions
      At line 495 in file MKL25Z128xxx4.s
   Uses
      At line 530 in file MKL25Z128xxx4.s
Comment: PORTA_GPCHR_OFFSET used once
PORTA_GPCLR 40049080

Symbol: PORTA_GPCLR
   Definitions
      At line 529 in file MKL25Z128xxx4.s
   Uses
      None
Comment: PORTA_GPCLR unused
PORTA_GPCLR_OFFSET 00000080

Symbol: PORTA_GPCLR_OFFSET
   Definitions
      At line 494 in file MKL25Z128xxx4.s
   Uses
      At line 529 in file MKL25Z128xxx4.s
Comment: PORTA_GPCLR_OFFSET used once
PORTA_ISFR 400490A0

Symbol: PORTA_ISFR
   Definitions
      At line 531 in file MKL25Z128xxx4.s
   Uses
      None
Comment: PORTA_ISFR unused
PORTA_ISFR_OFFSET 000000A0

Symbol: PORTA_ISFR_OFFSET
   Definitions
      At line 496 in file MKL25Z128xxx4.s
   Uses
      At line 531 in file MKL25Z128xxx4.s
Comment: PORTA_ISFR_OFFSET used once



ARM Macro Assembler    Page 28 Alphabetic symbol ordering
Absolute symbols

PORTA_PCR0 40049000

Symbol: PORTA_PCR0
   Definitions
      At line 497 in file MKL25Z128xxx4.s
   Uses
      None
Comment: PORTA_PCR0 unused
PORTA_PCR0_OFFSET 00000000

Symbol: PORTA_PCR0_OFFSET
   Definitions
      At line 462 in file MKL25Z128xxx4.s
   Uses
      At line 497 in file MKL25Z128xxx4.s
Comment: PORTA_PCR0_OFFSET used once
PORTA_PCR1 40049004

Symbol: PORTA_PCR1
   Definitions
      At line 498 in file MKL25Z128xxx4.s
   Uses
      None
Comment: PORTA_PCR1 unused
PORTA_PCR10 40049028

Symbol: PORTA_PCR10
   Definitions
      At line 507 in file MKL25Z128xxx4.s
   Uses
      None
Comment: PORTA_PCR10 unused
PORTA_PCR10_OFFSET 00000028

Symbol: PORTA_PCR10_OFFSET
   Definitions
      At line 472 in file MKL25Z128xxx4.s
   Uses
      At line 507 in file MKL25Z128xxx4.s
Comment: PORTA_PCR10_OFFSET used once
PORTA_PCR11 4004902C

Symbol: PORTA_PCR11
   Definitions
      At line 508 in file MKL25Z128xxx4.s
   Uses
      None
Comment: PORTA_PCR11 unused
PORTA_PCR11_OFFSET 0000002C

Symbol: PORTA_PCR11_OFFSET
   Definitions
      At line 473 in file MKL25Z128xxx4.s
   Uses
      At line 508 in file MKL25Z128xxx4.s
Comment: PORTA_PCR11_OFFSET used once
PORTA_PCR12 40049030

Symbol: PORTA_PCR12



ARM Macro Assembler    Page 29 Alphabetic symbol ordering
Absolute symbols

   Definitions
      At line 509 in file MKL25Z128xxx4.s
   Uses
      None
Comment: PORTA_PCR12 unused
PORTA_PCR12_OFFSET 00000030

Symbol: PORTA_PCR12_OFFSET
   Definitions
      At line 474 in file MKL25Z128xxx4.s
   Uses
      At line 509 in file MKL25Z128xxx4.s
Comment: PORTA_PCR12_OFFSET used once
PORTA_PCR13 40049034

Symbol: PORTA_PCR13
   Definitions
      At line 510 in file MKL25Z128xxx4.s
   Uses
      None
Comment: PORTA_PCR13 unused
PORTA_PCR13_OFFSET 00000034

Symbol: PORTA_PCR13_OFFSET
   Definitions
      At line 475 in file MKL25Z128xxx4.s
   Uses
      At line 510 in file MKL25Z128xxx4.s
Comment: PORTA_PCR13_OFFSET used once
PORTA_PCR14 40049038

Symbol: PORTA_PCR14
   Definitions
      At line 511 in file MKL25Z128xxx4.s
   Uses
      None
Comment: PORTA_PCR14 unused
PORTA_PCR14_OFFSET 00000038

Symbol: PORTA_PCR14_OFFSET
   Definitions
      At line 476 in file MKL25Z128xxx4.s
   Uses
      At line 511 in file MKL25Z128xxx4.s
Comment: PORTA_PCR14_OFFSET used once
PORTA_PCR15 4004903C

Symbol: PORTA_PCR15
   Definitions
      At line 512 in file MKL25Z128xxx4.s
   Uses
      None
Comment: PORTA_PCR15 unused
PORTA_PCR15_OFFSET 0000003C

Symbol: PORTA_PCR15_OFFSET
   Definitions
      At line 477 in file MKL25Z128xxx4.s
   Uses



ARM Macro Assembler    Page 30 Alphabetic symbol ordering
Absolute symbols

      At line 512 in file MKL25Z128xxx4.s
Comment: PORTA_PCR15_OFFSET used once
PORTA_PCR16 40049040

Symbol: PORTA_PCR16
   Definitions
      At line 513 in file MKL25Z128xxx4.s
   Uses
      None
Comment: PORTA_PCR16 unused
PORTA_PCR16_OFFSET 00000040

Symbol: PORTA_PCR16_OFFSET
   Definitions
      At line 478 in file MKL25Z128xxx4.s
   Uses
      At line 513 in file MKL25Z128xxx4.s
Comment: PORTA_PCR16_OFFSET used once
PORTA_PCR17 40049044

Symbol: PORTA_PCR17
   Definitions
      At line 514 in file MKL25Z128xxx4.s
   Uses
      None
Comment: PORTA_PCR17 unused
PORTA_PCR17_OFFSET 00000044

Symbol: PORTA_PCR17_OFFSET
   Definitions
      At line 479 in file MKL25Z128xxx4.s
   Uses
      At line 514 in file MKL25Z128xxx4.s
Comment: PORTA_PCR17_OFFSET used once
PORTA_PCR18 40049048

Symbol: PORTA_PCR18
   Definitions
      At line 515 in file MKL25Z128xxx4.s
   Uses
      None
Comment: PORTA_PCR18 unused
PORTA_PCR18_OFFSET 00000048

Symbol: PORTA_PCR18_OFFSET
   Definitions
      At line 480 in file MKL25Z128xxx4.s
   Uses
      At line 515 in file MKL25Z128xxx4.s
Comment: PORTA_PCR18_OFFSET used once
PORTA_PCR19 4004904C

Symbol: PORTA_PCR19
   Definitions
      At line 516 in file MKL25Z128xxx4.s
   Uses
      None
Comment: PORTA_PCR19 unused
PORTA_PCR19_OFFSET 0000004C



ARM Macro Assembler    Page 31 Alphabetic symbol ordering
Absolute symbols


Symbol: PORTA_PCR19_OFFSET
   Definitions
      At line 481 in file MKL25Z128xxx4.s
   Uses
      At line 516 in file MKL25Z128xxx4.s
Comment: PORTA_PCR19_OFFSET used once
PORTA_PCR1_OFFSET 00000004

Symbol: PORTA_PCR1_OFFSET
   Definitions
      At line 463 in file MKL25Z128xxx4.s
   Uses
      At line 498 in file MKL25Z128xxx4.s
Comment: PORTA_PCR1_OFFSET used once
PORTA_PCR2 40049008

Symbol: PORTA_PCR2
   Definitions
      At line 499 in file MKL25Z128xxx4.s
   Uses
      None
Comment: PORTA_PCR2 unused
PORTA_PCR20 40049050

Symbol: PORTA_PCR20
   Definitions
      At line 517 in file MKL25Z128xxx4.s
   Uses
      None
Comment: PORTA_PCR20 unused
PORTA_PCR20_OFFSET 00000050

Symbol: PORTA_PCR20_OFFSET
   Definitions
      At line 482 in file MKL25Z128xxx4.s
   Uses
      At line 517 in file MKL25Z128xxx4.s
Comment: PORTA_PCR20_OFFSET used once
PORTA_PCR21 40049054

Symbol: PORTA_PCR21
   Definitions
      At line 518 in file MKL25Z128xxx4.s
   Uses
      None
Comment: PORTA_PCR21 unused
PORTA_PCR21_OFFSET 00000054

Symbol: PORTA_PCR21_OFFSET
   Definitions
      At line 483 in file MKL25Z128xxx4.s
   Uses
      At line 518 in file MKL25Z128xxx4.s
Comment: PORTA_PCR21_OFFSET used once
PORTA_PCR22 40049058

Symbol: PORTA_PCR22
   Definitions



ARM Macro Assembler    Page 32 Alphabetic symbol ordering
Absolute symbols

      At line 519 in file MKL25Z128xxx4.s
   Uses
      None
Comment: PORTA_PCR22 unused
PORTA_PCR22_OFFSET 00000058

Symbol: PORTA_PCR22_OFFSET
   Definitions
      At line 484 in file MKL25Z128xxx4.s
   Uses
      At line 519 in file MKL25Z128xxx4.s
Comment: PORTA_PCR22_OFFSET used once
PORTA_PCR23 4004905C

Symbol: PORTA_PCR23
   Definitions
      At line 520 in file MKL25Z128xxx4.s
   Uses
      None
Comment: PORTA_PCR23 unused
PORTA_PCR23_OFFSET 0000005C

Symbol: PORTA_PCR23_OFFSET
   Definitions
      At line 485 in file MKL25Z128xxx4.s
   Uses
      At line 520 in file MKL25Z128xxx4.s
Comment: PORTA_PCR23_OFFSET used once
PORTA_PCR24 40049060

Symbol: PORTA_PCR24
   Definitions
      At line 521 in file MKL25Z128xxx4.s
   Uses
      None
Comment: PORTA_PCR24 unused
PORTA_PCR24_OFFSET 00000060

Symbol: PORTA_PCR24_OFFSET
   Definitions
      At line 486 in file MKL25Z128xxx4.s
   Uses
      At line 521 in file MKL25Z128xxx4.s
Comment: PORTA_PCR24_OFFSET used once
PORTA_PCR25 40049064

Symbol: PORTA_PCR25
   Definitions
      At line 522 in file MKL25Z128xxx4.s
   Uses
      None
Comment: PORTA_PCR25 unused
PORTA_PCR25_OFFSET 00000064

Symbol: PORTA_PCR25_OFFSET
   Definitions
      At line 487 in file MKL25Z128xxx4.s
   Uses
      At line 522 in file MKL25Z128xxx4.s



ARM Macro Assembler    Page 33 Alphabetic symbol ordering
Absolute symbols

Comment: PORTA_PCR25_OFFSET used once
PORTA_PCR26 40049068

Symbol: PORTA_PCR26
   Definitions
      At line 523 in file MKL25Z128xxx4.s
   Uses
      None
Comment: PORTA_PCR26 unused
PORTA_PCR26_OFFSET 00000068

Symbol: PORTA_PCR26_OFFSET
   Definitions
      At line 488 in file MKL25Z128xxx4.s
   Uses
      At line 523 in file MKL25Z128xxx4.s
Comment: PORTA_PCR26_OFFSET used once
PORTA_PCR27 4004906C

Symbol: PORTA_PCR27
   Definitions
      At line 524 in file MKL25Z128xxx4.s
   Uses
      None
Comment: PORTA_PCR27 unused
PORTA_PCR27_OFFSET 0000006C

Symbol: PORTA_PCR27_OFFSET
   Definitions
      At line 489 in file MKL25Z128xxx4.s
   Uses
      At line 524 in file MKL25Z128xxx4.s
Comment: PORTA_PCR27_OFFSET used once
PORTA_PCR28 40049070

Symbol: PORTA_PCR28
   Definitions
      At line 525 in file MKL25Z128xxx4.s
   Uses
      None
Comment: PORTA_PCR28 unused
PORTA_PCR28_OFFSET 00000070

Symbol: PORTA_PCR28_OFFSET
   Definitions
      At line 490 in file MKL25Z128xxx4.s
   Uses
      At line 525 in file MKL25Z128xxx4.s
Comment: PORTA_PCR28_OFFSET used once
PORTA_PCR29 40049074

Symbol: PORTA_PCR29
   Definitions
      At line 526 in file MKL25Z128xxx4.s
   Uses
      None
Comment: PORTA_PCR29 unused
PORTA_PCR29_OFFSET 00000074




ARM Macro Assembler    Page 34 Alphabetic symbol ordering
Absolute symbols

Symbol: PORTA_PCR29_OFFSET
   Definitions
      At line 491 in file MKL25Z128xxx4.s
   Uses
      At line 526 in file MKL25Z128xxx4.s
Comment: PORTA_PCR29_OFFSET used once
PORTA_PCR2_OFFSET 00000008

Symbol: PORTA_PCR2_OFFSET
   Definitions
      At line 464 in file MKL25Z128xxx4.s
   Uses
      At line 499 in file MKL25Z128xxx4.s
Comment: PORTA_PCR2_OFFSET used once
PORTA_PCR3 4004900C

Symbol: PORTA_PCR3
   Definitions
      At line 500 in file MKL25Z128xxx4.s
   Uses
      None
Comment: PORTA_PCR3 unused
PORTA_PCR30 40049078

Symbol: PORTA_PCR30
   Definitions
      At line 527 in file MKL25Z128xxx4.s
   Uses
      None
Comment: PORTA_PCR30 unused
PORTA_PCR30_OFFSET 00000078

Symbol: PORTA_PCR30_OFFSET
   Definitions
      At line 492 in file MKL25Z128xxx4.s
   Uses
      At line 527 in file MKL25Z128xxx4.s
Comment: PORTA_PCR30_OFFSET used once
PORTA_PCR31 4004907C

Symbol: PORTA_PCR31
   Definitions
      At line 528 in file MKL25Z128xxx4.s
   Uses
      None
Comment: PORTA_PCR31 unused
PORTA_PCR31_OFFSET 0000007C

Symbol: PORTA_PCR31_OFFSET
   Definitions
      At line 493 in file MKL25Z128xxx4.s
   Uses
      At line 528 in file MKL25Z128xxx4.s
Comment: PORTA_PCR31_OFFSET used once
PORTA_PCR3_OFFSET 0000000C

Symbol: PORTA_PCR3_OFFSET
   Definitions
      At line 465 in file MKL25Z128xxx4.s



ARM Macro Assembler    Page 35 Alphabetic symbol ordering
Absolute symbols

   Uses
      At line 500 in file MKL25Z128xxx4.s
Comment: PORTA_PCR3_OFFSET used once
PORTA_PCR4 40049010

Symbol: PORTA_PCR4
   Definitions
      At line 501 in file MKL25Z128xxx4.s
   Uses
      None
Comment: PORTA_PCR4 unused
PORTA_PCR4_OFFSET 00000010

Symbol: PORTA_PCR4_OFFSET
   Definitions
      At line 466 in file MKL25Z128xxx4.s
   Uses
      At line 501 in file MKL25Z128xxx4.s
Comment: PORTA_PCR4_OFFSET used once
PORTA_PCR5 40049014

Symbol: PORTA_PCR5
   Definitions
      At line 502 in file MKL25Z128xxx4.s
   Uses
      None
Comment: PORTA_PCR5 unused
PORTA_PCR5_OFFSET 00000014

Symbol: PORTA_PCR5_OFFSET
   Definitions
      At line 467 in file MKL25Z128xxx4.s
   Uses
      At line 502 in file MKL25Z128xxx4.s
Comment: PORTA_PCR5_OFFSET used once
PORTA_PCR6 40049018

Symbol: PORTA_PCR6
   Definitions
      At line 503 in file MKL25Z128xxx4.s
   Uses
      None
Comment: PORTA_PCR6 unused
PORTA_PCR6_OFFSET 00000018

Symbol: PORTA_PCR6_OFFSET
   Definitions
      At line 468 in file MKL25Z128xxx4.s
   Uses
      At line 503 in file MKL25Z128xxx4.s
Comment: PORTA_PCR6_OFFSET used once
PORTA_PCR7 4004901C

Symbol: PORTA_PCR7
   Definitions
      At line 504 in file MKL25Z128xxx4.s
   Uses
      None
Comment: PORTA_PCR7 unused



ARM Macro Assembler    Page 36 Alphabetic symbol ordering
Absolute symbols

PORTA_PCR7_OFFSET 0000001C

Symbol: PORTA_PCR7_OFFSET
   Definitions
      At line 469 in file MKL25Z128xxx4.s
   Uses
      At line 504 in file MKL25Z128xxx4.s
Comment: PORTA_PCR7_OFFSET used once
PORTA_PCR8 40049020

Symbol: PORTA_PCR8
   Definitions
      At line 505 in file MKL25Z128xxx4.s
   Uses
      None
Comment: PORTA_PCR8 unused
PORTA_PCR8_OFFSET 00000020

Symbol: PORTA_PCR8_OFFSET
   Definitions
      At line 470 in file MKL25Z128xxx4.s
   Uses
      At line 505 in file MKL25Z128xxx4.s
Comment: PORTA_PCR8_OFFSET used once
PORTA_PCR9 40049024

Symbol: PORTA_PCR9
   Definitions
      At line 506 in file MKL25Z128xxx4.s
   Uses
      None
Comment: PORTA_PCR9 unused
PORTA_PCR9_OFFSET 00000024

Symbol: PORTA_PCR9_OFFSET
   Definitions
      At line 471 in file MKL25Z128xxx4.s
   Uses
      At line 506 in file MKL25Z128xxx4.s
Comment: PORTA_PCR9_OFFSET used once
PORTB_BASE 4004A000

Symbol: PORTB_BASE
   Definitions
      At line 534 in file MKL25Z128xxx4.s
   Uses
      At line 570 in file MKL25Z128xxx4.s
      At line 571 in file MKL25Z128xxx4.s
      At line 572 in file MKL25Z128xxx4.s
      At line 573 in file MKL25Z128xxx4.s
      At line 574 in file MKL25Z128xxx4.s
      At line 575 in file MKL25Z128xxx4.s
      At line 576 in file MKL25Z128xxx4.s
      At line 577 in file MKL25Z128xxx4.s
      At line 578 in file MKL25Z128xxx4.s
      At line 579 in file MKL25Z128xxx4.s
      At line 580 in file MKL25Z128xxx4.s
      At line 581 in file MKL25Z128xxx4.s
      At line 582 in file MKL25Z128xxx4.s



ARM Macro Assembler    Page 37 Alphabetic symbol ordering
Absolute symbols

      At line 583 in file MKL25Z128xxx4.s
      At line 584 in file MKL25Z128xxx4.s
      At line 585 in file MKL25Z128xxx4.s
      At line 586 in file MKL25Z128xxx4.s
      At line 587 in file MKL25Z128xxx4.s
      At line 588 in file MKL25Z128xxx4.s
      At line 589 in file MKL25Z128xxx4.s
      At line 590 in file MKL25Z128xxx4.s
      At line 591 in file MKL25Z128xxx4.s
      At line 592 in file MKL25Z128xxx4.s
      At line 593 in file MKL25Z128xxx4.s
      At line 594 in file MKL25Z128xxx4.s
      At line 595 in file MKL25Z128xxx4.s
      At line 596 in file MKL25Z128xxx4.s
      At line 597 in file MKL25Z128xxx4.s
      At line 598 in file MKL25Z128xxx4.s
      At line 599 in file MKL25Z128xxx4.s
      At line 600 in file MKL25Z128xxx4.s
      At line 601 in file MKL25Z128xxx4.s
      At line 602 in file MKL25Z128xxx4.s
      At line 603 in file MKL25Z128xxx4.s
      At line 604 in file MKL25Z128xxx4.s

PORTB_GPCHR 4004A084

Symbol: PORTB_GPCHR
   Definitions
      At line 603 in file MKL25Z128xxx4.s
   Uses
      None
Comment: PORTB_GPCHR unused
PORTB_GPCHR_OFFSET 00000084

Symbol: PORTB_GPCHR_OFFSET
   Definitions
      At line 568 in file MKL25Z128xxx4.s
   Uses
      At line 603 in file MKL25Z128xxx4.s
Comment: PORTB_GPCHR_OFFSET used once
PORTB_GPCLR 4004A080

Symbol: PORTB_GPCLR
   Definitions
      At line 602 in file MKL25Z128xxx4.s
   Uses
      None
Comment: PORTB_GPCLR unused
PORTB_GPCLR_OFFSET 00000080

Symbol: PORTB_GPCLR_OFFSET
   Definitions
      At line 567 in file MKL25Z128xxx4.s
   Uses
      At line 602 in file MKL25Z128xxx4.s
Comment: PORTB_GPCLR_OFFSET used once
PORTB_ISFR 4004A0A0

Symbol: PORTB_ISFR
   Definitions



ARM Macro Assembler    Page 38 Alphabetic symbol ordering
Absolute symbols

      At line 604 in file MKL25Z128xxx4.s
   Uses
      None
Comment: PORTB_ISFR unused
PORTB_ISFR_OFFSET 000000A0

Symbol: PORTB_ISFR_OFFSET
   Definitions
      At line 569 in file MKL25Z128xxx4.s
   Uses
      At line 604 in file MKL25Z128xxx4.s
Comment: PORTB_ISFR_OFFSET used once
PORTB_PCR0 4004A000

Symbol: PORTB_PCR0
   Definitions
      At line 570 in file MKL25Z128xxx4.s
   Uses
      None
Comment: PORTB_PCR0 unused
PORTB_PCR0_OFFSET 00000000

Symbol: PORTB_PCR0_OFFSET
   Definitions
      At line 535 in file MKL25Z128xxx4.s
   Uses
      At line 570 in file MKL25Z128xxx4.s
Comment: PORTB_PCR0_OFFSET used once
PORTB_PCR1 4004A004

Symbol: PORTB_PCR1
   Definitions
      At line 571 in file MKL25Z128xxx4.s
   Uses
      None
Comment: PORTB_PCR1 unused
PORTB_PCR10 4004A028

Symbol: PORTB_PCR10
   Definitions
      At line 580 in file MKL25Z128xxx4.s
   Uses
      None
Comment: PORTB_PCR10 unused
PORTB_PCR10_OFFSET 00000028

Symbol: PORTB_PCR10_OFFSET
   Definitions
      At line 545 in file MKL25Z128xxx4.s
   Uses
      At line 580 in file MKL25Z128xxx4.s
Comment: PORTB_PCR10_OFFSET used once
PORTB_PCR11 4004A02C

Symbol: PORTB_PCR11
   Definitions
      At line 581 in file MKL25Z128xxx4.s
   Uses
      None



ARM Macro Assembler    Page 39 Alphabetic symbol ordering
Absolute symbols

Comment: PORTB_PCR11 unused
PORTB_PCR11_OFFSET 0000002C

Symbol: PORTB_PCR11_OFFSET
   Definitions
      At line 546 in file MKL25Z128xxx4.s
   Uses
      At line 581 in file MKL25Z128xxx4.s
Comment: PORTB_PCR11_OFFSET used once
PORTB_PCR12 4004A030

Symbol: PORTB_PCR12
   Definitions
      At line 582 in file MKL25Z128xxx4.s
   Uses
      None
Comment: PORTB_PCR12 unused
PORTB_PCR12_OFFSET 00000030

Symbol: PORTB_PCR12_OFFSET
   Definitions
      At line 547 in file MKL25Z128xxx4.s
   Uses
      At line 582 in file MKL25Z128xxx4.s
Comment: PORTB_PCR12_OFFSET used once
PORTB_PCR13 4004A034

Symbol: PORTB_PCR13
   Definitions
      At line 583 in file MKL25Z128xxx4.s
   Uses
      None
Comment: PORTB_PCR13 unused
PORTB_PCR13_OFFSET 00000034

Symbol: PORTB_PCR13_OFFSET
   Definitions
      At line 548 in file MKL25Z128xxx4.s
   Uses
      At line 583 in file MKL25Z128xxx4.s
Comment: PORTB_PCR13_OFFSET used once
PORTB_PCR14 4004A038

Symbol: PORTB_PCR14
   Definitions
      At line 584 in file MKL25Z128xxx4.s
   Uses
      None
Comment: PORTB_PCR14 unused
PORTB_PCR14_OFFSET 00000038

Symbol: PORTB_PCR14_OFFSET
   Definitions
      At line 549 in file MKL25Z128xxx4.s
   Uses
      At line 584 in file MKL25Z128xxx4.s
Comment: PORTB_PCR14_OFFSET used once
PORTB_PCR15 4004A03C




ARM Macro Assembler    Page 40 Alphabetic symbol ordering
Absolute symbols

Symbol: PORTB_PCR15
   Definitions
      At line 585 in file MKL25Z128xxx4.s
   Uses
      None
Comment: PORTB_PCR15 unused
PORTB_PCR15_OFFSET 0000003C

Symbol: PORTB_PCR15_OFFSET
   Definitions
      At line 550 in file MKL25Z128xxx4.s
   Uses
      At line 585 in file MKL25Z128xxx4.s
Comment: PORTB_PCR15_OFFSET used once
PORTB_PCR16 4004A040

Symbol: PORTB_PCR16
   Definitions
      At line 586 in file MKL25Z128xxx4.s
   Uses
      None
Comment: PORTB_PCR16 unused
PORTB_PCR16_OFFSET 00000040

Symbol: PORTB_PCR16_OFFSET
   Definitions
      At line 551 in file MKL25Z128xxx4.s
   Uses
      At line 586 in file MKL25Z128xxx4.s
Comment: PORTB_PCR16_OFFSET used once
PORTB_PCR17 4004A044

Symbol: PORTB_PCR17
   Definitions
      At line 587 in file MKL25Z128xxx4.s
   Uses
      None
Comment: PORTB_PCR17 unused
PORTB_PCR17_OFFSET 00000044

Symbol: PORTB_PCR17_OFFSET
   Definitions
      At line 552 in file MKL25Z128xxx4.s
   Uses
      At line 587 in file MKL25Z128xxx4.s
Comment: PORTB_PCR17_OFFSET used once
PORTB_PCR18 4004A048

Symbol: PORTB_PCR18
   Definitions
      At line 588 in file MKL25Z128xxx4.s
   Uses
      None
Comment: PORTB_PCR18 unused
PORTB_PCR18_OFFSET 00000048

Symbol: PORTB_PCR18_OFFSET
   Definitions
      At line 553 in file MKL25Z128xxx4.s



ARM Macro Assembler    Page 41 Alphabetic symbol ordering
Absolute symbols

   Uses
      At line 588 in file MKL25Z128xxx4.s
Comment: PORTB_PCR18_OFFSET used once
PORTB_PCR19 4004A04C

Symbol: PORTB_PCR19
   Definitions
      At line 589 in file MKL25Z128xxx4.s
   Uses
      None
Comment: PORTB_PCR19 unused
PORTB_PCR19_OFFSET 0000004C

Symbol: PORTB_PCR19_OFFSET
   Definitions
      At line 554 in file MKL25Z128xxx4.s
   Uses
      At line 589 in file MKL25Z128xxx4.s
Comment: PORTB_PCR19_OFFSET used once
PORTB_PCR1_OFFSET 00000004

Symbol: PORTB_PCR1_OFFSET
   Definitions
      At line 536 in file MKL25Z128xxx4.s
   Uses
      At line 571 in file MKL25Z128xxx4.s
Comment: PORTB_PCR1_OFFSET used once
PORTB_PCR2 4004A008

Symbol: PORTB_PCR2
   Definitions
      At line 572 in file MKL25Z128xxx4.s
   Uses
      None
Comment: PORTB_PCR2 unused
PORTB_PCR20 4004A050

Symbol: PORTB_PCR20
   Definitions
      At line 590 in file MKL25Z128xxx4.s
   Uses
      None
Comment: PORTB_PCR20 unused
PORTB_PCR20_OFFSET 00000050

Symbol: PORTB_PCR20_OFFSET
   Definitions
      At line 555 in file MKL25Z128xxx4.s
   Uses
      At line 590 in file MKL25Z128xxx4.s
Comment: PORTB_PCR20_OFFSET used once
PORTB_PCR21 4004A054

Symbol: PORTB_PCR21
   Definitions
      At line 591 in file MKL25Z128xxx4.s
   Uses
      None
Comment: PORTB_PCR21 unused



ARM Macro Assembler    Page 42 Alphabetic symbol ordering
Absolute symbols

PORTB_PCR21_OFFSET 00000054

Symbol: PORTB_PCR21_OFFSET
   Definitions
      At line 556 in file MKL25Z128xxx4.s
   Uses
      At line 591 in file MKL25Z128xxx4.s
Comment: PORTB_PCR21_OFFSET used once
PORTB_PCR22 4004A058

Symbol: PORTB_PCR22
   Definitions
      At line 592 in file MKL25Z128xxx4.s
   Uses
      None
Comment: PORTB_PCR22 unused
PORTB_PCR22_OFFSET 00000058

Symbol: PORTB_PCR22_OFFSET
   Definitions
      At line 557 in file MKL25Z128xxx4.s
   Uses
      At line 592 in file MKL25Z128xxx4.s
Comment: PORTB_PCR22_OFFSET used once
PORTB_PCR23 4004A05C

Symbol: PORTB_PCR23
   Definitions
      At line 593 in file MKL25Z128xxx4.s
   Uses
      None
Comment: PORTB_PCR23 unused
PORTB_PCR23_OFFSET 0000005C

Symbol: PORTB_PCR23_OFFSET
   Definitions
      At line 558 in file MKL25Z128xxx4.s
   Uses
      At line 593 in file MKL25Z128xxx4.s
Comment: PORTB_PCR23_OFFSET used once
PORTB_PCR24 4004A060

Symbol: PORTB_PCR24
   Definitions
      At line 594 in file MKL25Z128xxx4.s
   Uses
      None
Comment: PORTB_PCR24 unused
PORTB_PCR24_OFFSET 00000060

Symbol: PORTB_PCR24_OFFSET
   Definitions
      At line 559 in file MKL25Z128xxx4.s
   Uses
      At line 594 in file MKL25Z128xxx4.s
Comment: PORTB_PCR24_OFFSET used once
PORTB_PCR25 4004A064

Symbol: PORTB_PCR25



ARM Macro Assembler    Page 43 Alphabetic symbol ordering
Absolute symbols

   Definitions
      At line 595 in file MKL25Z128xxx4.s
   Uses
      None
Comment: PORTB_PCR25 unused
PORTB_PCR25_OFFSET 00000064

Symbol: PORTB_PCR25_OFFSET
   Definitions
      At line 560 in file MKL25Z128xxx4.s
   Uses
      At line 595 in file MKL25Z128xxx4.s
Comment: PORTB_PCR25_OFFSET used once
PORTB_PCR26 4004A068

Symbol: PORTB_PCR26
   Definitions
      At line 596 in file MKL25Z128xxx4.s
   Uses
      None
Comment: PORTB_PCR26 unused
PORTB_PCR26_OFFSET 00000068

Symbol: PORTB_PCR26_OFFSET
   Definitions
      At line 561 in file MKL25Z128xxx4.s
   Uses
      At line 596 in file MKL25Z128xxx4.s
Comment: PORTB_PCR26_OFFSET used once
PORTB_PCR27 4004A06C

Symbol: PORTB_PCR27
   Definitions
      At line 597 in file MKL25Z128xxx4.s
   Uses
      None
Comment: PORTB_PCR27 unused
PORTB_PCR27_OFFSET 0000006C

Symbol: PORTB_PCR27_OFFSET
   Definitions
      At line 562 in file MKL25Z128xxx4.s
   Uses
      At line 597 in file MKL25Z128xxx4.s
Comment: PORTB_PCR27_OFFSET used once
PORTB_PCR28 4004A070

Symbol: PORTB_PCR28
   Definitions
      At line 598 in file MKL25Z128xxx4.s
   Uses
      None
Comment: PORTB_PCR28 unused
PORTB_PCR28_OFFSET 00000070

Symbol: PORTB_PCR28_OFFSET
   Definitions
      At line 563 in file MKL25Z128xxx4.s
   Uses



ARM Macro Assembler    Page 44 Alphabetic symbol ordering
Absolute symbols

      At line 598 in file MKL25Z128xxx4.s
Comment: PORTB_PCR28_OFFSET used once
PORTB_PCR29 4004A074

Symbol: PORTB_PCR29
   Definitions
      At line 599 in file MKL25Z128xxx4.s
   Uses
      None
Comment: PORTB_PCR29 unused
PORTB_PCR29_OFFSET 00000074

Symbol: PORTB_PCR29_OFFSET
   Definitions
      At line 564 in file MKL25Z128xxx4.s
   Uses
      At line 599 in file MKL25Z128xxx4.s
Comment: PORTB_PCR29_OFFSET used once
PORTB_PCR2_OFFSET 00000008

Symbol: PORTB_PCR2_OFFSET
   Definitions
      At line 537 in file MKL25Z128xxx4.s
   Uses
      At line 572 in file MKL25Z128xxx4.s
Comment: PORTB_PCR2_OFFSET used once
PORTB_PCR3 4004A00C

Symbol: PORTB_PCR3
   Definitions
      At line 573 in file MKL25Z128xxx4.s
   Uses
      None
Comment: PORTB_PCR3 unused
PORTB_PCR30 4004A078

Symbol: PORTB_PCR30
   Definitions
      At line 600 in file MKL25Z128xxx4.s
   Uses
      None
Comment: PORTB_PCR30 unused
PORTB_PCR30_OFFSET 00000078

Symbol: PORTB_PCR30_OFFSET
   Definitions
      At line 565 in file MKL25Z128xxx4.s
   Uses
      At line 600 in file MKL25Z128xxx4.s
Comment: PORTB_PCR30_OFFSET used once
PORTB_PCR31 4004A07C

Symbol: PORTB_PCR31
   Definitions
      At line 601 in file MKL25Z128xxx4.s
   Uses
      None
Comment: PORTB_PCR31 unused
PORTB_PCR31_OFFSET 0000007C



ARM Macro Assembler    Page 45 Alphabetic symbol ordering
Absolute symbols


Symbol: PORTB_PCR31_OFFSET
   Definitions
      At line 566 in file MKL25Z128xxx4.s
   Uses
      At line 601 in file MKL25Z128xxx4.s
Comment: PORTB_PCR31_OFFSET used once
PORTB_PCR3_OFFSET 0000000C

Symbol: PORTB_PCR3_OFFSET
   Definitions
      At line 538 in file MKL25Z128xxx4.s
   Uses
      At line 573 in file MKL25Z128xxx4.s
Comment: PORTB_PCR3_OFFSET used once
PORTB_PCR4 4004A010

Symbol: PORTB_PCR4
   Definitions
      At line 574 in file MKL25Z128xxx4.s
   Uses
      None
Comment: PORTB_PCR4 unused
PORTB_PCR4_OFFSET 00000010

Symbol: PORTB_PCR4_OFFSET
   Definitions
      At line 539 in file MKL25Z128xxx4.s
   Uses
      At line 574 in file MKL25Z128xxx4.s
Comment: PORTB_PCR4_OFFSET used once
PORTB_PCR5 4004A014

Symbol: PORTB_PCR5
   Definitions
      At line 575 in file MKL25Z128xxx4.s
   Uses
      None
Comment: PORTB_PCR5 unused
PORTB_PCR5_OFFSET 00000014

Symbol: PORTB_PCR5_OFFSET
   Definitions
      At line 540 in file MKL25Z128xxx4.s
   Uses
      At line 575 in file MKL25Z128xxx4.s
Comment: PORTB_PCR5_OFFSET used once
PORTB_PCR6 4004A018

Symbol: PORTB_PCR6
   Definitions
      At line 576 in file MKL25Z128xxx4.s
   Uses
      None
Comment: PORTB_PCR6 unused
PORTB_PCR6_OFFSET 00000018

Symbol: PORTB_PCR6_OFFSET
   Definitions



ARM Macro Assembler    Page 46 Alphabetic symbol ordering
Absolute symbols

      At line 541 in file MKL25Z128xxx4.s
   Uses
      At line 576 in file MKL25Z128xxx4.s
Comment: PORTB_PCR6_OFFSET used once
PORTB_PCR7 4004A01C

Symbol: PORTB_PCR7
   Definitions
      At line 577 in file MKL25Z128xxx4.s
   Uses
      None
Comment: PORTB_PCR7 unused
PORTB_PCR7_OFFSET 0000001C

Symbol: PORTB_PCR7_OFFSET
   Definitions
      At line 542 in file MKL25Z128xxx4.s
   Uses
      At line 577 in file MKL25Z128xxx4.s
Comment: PORTB_PCR7_OFFSET used once
PORTB_PCR8 4004A020

Symbol: PORTB_PCR8
   Definitions
      At line 578 in file MKL25Z128xxx4.s
   Uses
      None
Comment: PORTB_PCR8 unused
PORTB_PCR8_OFFSET 00000020

Symbol: PORTB_PCR8_OFFSET
   Definitions
      At line 543 in file MKL25Z128xxx4.s
   Uses
      At line 578 in file MKL25Z128xxx4.s
Comment: PORTB_PCR8_OFFSET used once
PORTB_PCR9 4004A024

Symbol: PORTB_PCR9
   Definitions
      At line 579 in file MKL25Z128xxx4.s
   Uses
      None
Comment: PORTB_PCR9 unused
PORTB_PCR9_OFFSET 00000024

Symbol: PORTB_PCR9_OFFSET
   Definitions
      At line 544 in file MKL25Z128xxx4.s
   Uses
      At line 579 in file MKL25Z128xxx4.s
Comment: PORTB_PCR9_OFFSET used once
PORTCCGC_MASK 00000800

Symbol: PORTCCGC_MASK
   Definitions
      At line 54 in file Lab8.s
   Uses
      At line 529 in file Lab8.s



ARM Macro Assembler    Page 47 Alphabetic symbol ordering
Absolute symbols

Comment: PORTCCGC_MASK used once
PORTC_BASE 4004B000

Symbol: PORTC_BASE
   Definitions
      At line 607 in file MKL25Z128xxx4.s
   Uses
      At line 643 in file MKL25Z128xxx4.s
      At line 644 in file MKL25Z128xxx4.s
      At line 645 in file MKL25Z128xxx4.s
      At line 646 in file MKL25Z128xxx4.s
      At line 647 in file MKL25Z128xxx4.s
      At line 648 in file MKL25Z128xxx4.s
      At line 649 in file MKL25Z128xxx4.s
      At line 650 in file MKL25Z128xxx4.s
      At line 651 in file MKL25Z128xxx4.s
      At line 652 in file MKL25Z128xxx4.s
      At line 653 in file MKL25Z128xxx4.s
      At line 654 in file MKL25Z128xxx4.s
      At line 655 in file MKL25Z128xxx4.s
      At line 656 in file MKL25Z128xxx4.s
      At line 657 in file MKL25Z128xxx4.s
      At line 658 in file MKL25Z128xxx4.s
      At line 659 in file MKL25Z128xxx4.s
      At line 660 in file MKL25Z128xxx4.s
      At line 661 in file MKL25Z128xxx4.s
      At line 662 in file MKL25Z128xxx4.s
      At line 663 in file MKL25Z128xxx4.s
      At line 664 in file MKL25Z128xxx4.s
      At line 665 in file MKL25Z128xxx4.s
      At line 666 in file MKL25Z128xxx4.s
      At line 667 in file MKL25Z128xxx4.s
      At line 668 in file MKL25Z128xxx4.s
      At line 669 in file MKL25Z128xxx4.s
      At line 670 in file MKL25Z128xxx4.s
      At line 671 in file MKL25Z128xxx4.s
      At line 672 in file MKL25Z128xxx4.s
      At line 673 in file MKL25Z128xxx4.s
      At line 674 in file MKL25Z128xxx4.s
      At line 675 in file MKL25Z128xxx4.s
      At line 676 in file MKL25Z128xxx4.s
      At line 677 in file MKL25Z128xxx4.s

PORTC_GPCHR 4004B084

Symbol: PORTC_GPCHR
   Definitions
      At line 676 in file MKL25Z128xxx4.s
   Uses
      None
Comment: PORTC_GPCHR unused
PORTC_GPCHR_OFFSET 00000084

Symbol: PORTC_GPCHR_OFFSET
   Definitions
      At line 641 in file MKL25Z128xxx4.s
   Uses
      At line 676 in file MKL25Z128xxx4.s
Comment: PORTC_GPCHR_OFFSET used once



ARM Macro Assembler    Page 48 Alphabetic symbol ordering
Absolute symbols

PORTC_GPCLR 4004B080

Symbol: PORTC_GPCLR
   Definitions
      At line 675 in file MKL25Z128xxx4.s
   Uses
      None
Comment: PORTC_GPCLR unused
PORTC_GPCLR_OFFSET 00000080

Symbol: PORTC_GPCLR_OFFSET
   Definitions
      At line 640 in file MKL25Z128xxx4.s
   Uses
      At line 675 in file MKL25Z128xxx4.s
Comment: PORTC_GPCLR_OFFSET used once
PORTC_ISFR 4004B0A0

Symbol: PORTC_ISFR
   Definitions
      At line 677 in file MKL25Z128xxx4.s
   Uses
      None
Comment: PORTC_ISFR unused
PORTC_ISFR_OFFSET 000000A0

Symbol: PORTC_ISFR_OFFSET
   Definitions
      At line 642 in file MKL25Z128xxx4.s
   Uses
      At line 677 in file MKL25Z128xxx4.s
Comment: PORTC_ISFR_OFFSET used once
PORTC_PCR0 4004B000

Symbol: PORTC_PCR0
   Definitions
      At line 643 in file MKL25Z128xxx4.s
   Uses
      None
Comment: PORTC_PCR0 unused
PORTC_PCR0_OFFSET 00000000

Symbol: PORTC_PCR0_OFFSET
   Definitions
      At line 608 in file MKL25Z128xxx4.s
   Uses
      At line 643 in file MKL25Z128xxx4.s
Comment: PORTC_PCR0_OFFSET used once
PORTC_PCR1 4004B004

Symbol: PORTC_PCR1
   Definitions
      At line 644 in file MKL25Z128xxx4.s
   Uses
      None
Comment: PORTC_PCR1 unused
PORTC_PCR10 4004B028

Symbol: PORTC_PCR10



ARM Macro Assembler    Page 49 Alphabetic symbol ordering
Absolute symbols

   Definitions
      At line 653 in file MKL25Z128xxx4.s
   Uses
      None
Comment: PORTC_PCR10 unused
PORTC_PCR10_OFFSET 00000028

Symbol: PORTC_PCR10_OFFSET
   Definitions
      At line 618 in file MKL25Z128xxx4.s
   Uses
      At line 653 in file MKL25Z128xxx4.s
Comment: PORTC_PCR10_OFFSET used once
PORTC_PCR11 4004B02C

Symbol: PORTC_PCR11
   Definitions
      At line 654 in file MKL25Z128xxx4.s
   Uses
      None
Comment: PORTC_PCR11 unused
PORTC_PCR11_OFFSET 0000002C

Symbol: PORTC_PCR11_OFFSET
   Definitions
      At line 619 in file MKL25Z128xxx4.s
   Uses
      At line 654 in file MKL25Z128xxx4.s
Comment: PORTC_PCR11_OFFSET used once
PORTC_PCR12 4004B030

Symbol: PORTC_PCR12
   Definitions
      At line 655 in file MKL25Z128xxx4.s
   Uses
      None
Comment: PORTC_PCR12 unused
PORTC_PCR12_OFFSET 00000030

Symbol: PORTC_PCR12_OFFSET
   Definitions
      At line 620 in file MKL25Z128xxx4.s
   Uses
      At line 655 in file MKL25Z128xxx4.s
Comment: PORTC_PCR12_OFFSET used once
PORTC_PCR13 4004B034

Symbol: PORTC_PCR13
   Definitions
      At line 656 in file MKL25Z128xxx4.s
   Uses
      None
Comment: PORTC_PCR13 unused
PORTC_PCR13_OFFSET 00000034

Symbol: PORTC_PCR13_OFFSET
   Definitions
      At line 621 in file MKL25Z128xxx4.s
   Uses



ARM Macro Assembler    Page 50 Alphabetic symbol ordering
Absolute symbols

      At line 656 in file MKL25Z128xxx4.s
Comment: PORTC_PCR13_OFFSET used once
PORTC_PCR14 4004B038

Symbol: PORTC_PCR14
   Definitions
      At line 657 in file MKL25Z128xxx4.s
   Uses
      None
Comment: PORTC_PCR14 unused
PORTC_PCR14_OFFSET 00000038

Symbol: PORTC_PCR14_OFFSET
   Definitions
      At line 622 in file MKL25Z128xxx4.s
   Uses
      At line 657 in file MKL25Z128xxx4.s
Comment: PORTC_PCR14_OFFSET used once
PORTC_PCR15 4004B03C

Symbol: PORTC_PCR15
   Definitions
      At line 658 in file MKL25Z128xxx4.s
   Uses
      None
Comment: PORTC_PCR15 unused
PORTC_PCR15_OFFSET 0000003C

Symbol: PORTC_PCR15_OFFSET
   Definitions
      At line 623 in file MKL25Z128xxx4.s
   Uses
      At line 658 in file MKL25Z128xxx4.s
Comment: PORTC_PCR15_OFFSET used once
PORTC_PCR16 4004B040

Symbol: PORTC_PCR16
   Definitions
      At line 659 in file MKL25Z128xxx4.s
   Uses
      None
Comment: PORTC_PCR16 unused
PORTC_PCR16_OFFSET 00000040

Symbol: PORTC_PCR16_OFFSET
   Definitions
      At line 624 in file MKL25Z128xxx4.s
   Uses
      At line 659 in file MKL25Z128xxx4.s
Comment: PORTC_PCR16_OFFSET used once
PORTC_PCR17 4004B044

Symbol: PORTC_PCR17
   Definitions
      At line 660 in file MKL25Z128xxx4.s
   Uses
      None
Comment: PORTC_PCR17 unused
PORTC_PCR17_OFFSET 00000044



ARM Macro Assembler    Page 51 Alphabetic symbol ordering
Absolute symbols


Symbol: PORTC_PCR17_OFFSET
   Definitions
      At line 625 in file MKL25Z128xxx4.s
   Uses
      At line 660 in file MKL25Z128xxx4.s
Comment: PORTC_PCR17_OFFSET used once
PORTC_PCR18 4004B048

Symbol: PORTC_PCR18
   Definitions
      At line 661 in file MKL25Z128xxx4.s
   Uses
      None
Comment: PORTC_PCR18 unused
PORTC_PCR18_OFFSET 00000048

Symbol: PORTC_PCR18_OFFSET
   Definitions
      At line 626 in file MKL25Z128xxx4.s
   Uses
      At line 661 in file MKL25Z128xxx4.s
Comment: PORTC_PCR18_OFFSET used once
PORTC_PCR19 4004B04C

Symbol: PORTC_PCR19
   Definitions
      At line 662 in file MKL25Z128xxx4.s
   Uses
      None
Comment: PORTC_PCR19 unused
PORTC_PCR19_OFFSET 0000004C

Symbol: PORTC_PCR19_OFFSET
   Definitions
      At line 627 in file MKL25Z128xxx4.s
   Uses
      At line 662 in file MKL25Z128xxx4.s
Comment: PORTC_PCR19_OFFSET used once
PORTC_PCR1_OFFSET 00000004

Symbol: PORTC_PCR1_OFFSET
   Definitions
      At line 609 in file MKL25Z128xxx4.s
   Uses
      At line 644 in file MKL25Z128xxx4.s
Comment: PORTC_PCR1_OFFSET used once
PORTC_PCR2 4004B008

Symbol: PORTC_PCR2
   Definitions
      At line 645 in file MKL25Z128xxx4.s
   Uses
      None
Comment: PORTC_PCR2 unused
PORTC_PCR20 4004B050

Symbol: PORTC_PCR20
   Definitions



ARM Macro Assembler    Page 52 Alphabetic symbol ordering
Absolute symbols

      At line 663 in file MKL25Z128xxx4.s
   Uses
      None
Comment: PORTC_PCR20 unused
PORTC_PCR20_OFFSET 00000050

Symbol: PORTC_PCR20_OFFSET
   Definitions
      At line 628 in file MKL25Z128xxx4.s
   Uses
      At line 663 in file MKL25Z128xxx4.s
Comment: PORTC_PCR20_OFFSET used once
PORTC_PCR21 4004B054

Symbol: PORTC_PCR21
   Definitions
      At line 664 in file MKL25Z128xxx4.s
   Uses
      None
Comment: PORTC_PCR21 unused
PORTC_PCR21_OFFSET 00000054

Symbol: PORTC_PCR21_OFFSET
   Definitions
      At line 629 in file MKL25Z128xxx4.s
   Uses
      At line 664 in file MKL25Z128xxx4.s
Comment: PORTC_PCR21_OFFSET used once
PORTC_PCR22 4004B058

Symbol: PORTC_PCR22
   Definitions
      At line 665 in file MKL25Z128xxx4.s
   Uses
      None
Comment: PORTC_PCR22 unused
PORTC_PCR22_OFFSET 00000058

Symbol: PORTC_PCR22_OFFSET
   Definitions
      At line 630 in file MKL25Z128xxx4.s
   Uses
      At line 665 in file MKL25Z128xxx4.s
Comment: PORTC_PCR22_OFFSET used once
PORTC_PCR23 4004B05C

Symbol: PORTC_PCR23
   Definitions
      At line 666 in file MKL25Z128xxx4.s
   Uses
      None
Comment: PORTC_PCR23 unused
PORTC_PCR23_OFFSET 0000005C

Symbol: PORTC_PCR23_OFFSET
   Definitions
      At line 631 in file MKL25Z128xxx4.s
   Uses
      At line 666 in file MKL25Z128xxx4.s



ARM Macro Assembler    Page 53 Alphabetic symbol ordering
Absolute symbols

Comment: PORTC_PCR23_OFFSET used once
PORTC_PCR24 4004B060

Symbol: PORTC_PCR24
   Definitions
      At line 667 in file MKL25Z128xxx4.s
   Uses
      None
Comment: PORTC_PCR24 unused
PORTC_PCR24_OFFSET 00000060

Symbol: PORTC_PCR24_OFFSET
   Definitions
      At line 632 in file MKL25Z128xxx4.s
   Uses
      At line 667 in file MKL25Z128xxx4.s
Comment: PORTC_PCR24_OFFSET used once
PORTC_PCR25 4004B064

Symbol: PORTC_PCR25
   Definitions
      At line 668 in file MKL25Z128xxx4.s
   Uses
      None
Comment: PORTC_PCR25 unused
PORTC_PCR25_OFFSET 00000064

Symbol: PORTC_PCR25_OFFSET
   Definitions
      At line 633 in file MKL25Z128xxx4.s
   Uses
      At line 668 in file MKL25Z128xxx4.s
Comment: PORTC_PCR25_OFFSET used once
PORTC_PCR26 4004B068

Symbol: PORTC_PCR26
   Definitions
      At line 669 in file MKL25Z128xxx4.s
   Uses
      None
Comment: PORTC_PCR26 unused
PORTC_PCR26_OFFSET 00000068

Symbol: PORTC_PCR26_OFFSET
   Definitions
      At line 634 in file MKL25Z128xxx4.s
   Uses
      At line 669 in file MKL25Z128xxx4.s
Comment: PORTC_PCR26_OFFSET used once
PORTC_PCR27 4004B06C

Symbol: PORTC_PCR27
   Definitions
      At line 670 in file MKL25Z128xxx4.s
   Uses
      None
Comment: PORTC_PCR27 unused
PORTC_PCR27_OFFSET 0000006C




ARM Macro Assembler    Page 54 Alphabetic symbol ordering
Absolute symbols

Symbol: PORTC_PCR27_OFFSET
   Definitions
      At line 635 in file MKL25Z128xxx4.s
   Uses
      At line 670 in file MKL25Z128xxx4.s
Comment: PORTC_PCR27_OFFSET used once
PORTC_PCR28 4004B070

Symbol: PORTC_PCR28
   Definitions
      At line 671 in file MKL25Z128xxx4.s
   Uses
      None
Comment: PORTC_PCR28 unused
PORTC_PCR28_OFFSET 00000070

Symbol: PORTC_PCR28_OFFSET
   Definitions
      At line 636 in file MKL25Z128xxx4.s
   Uses
      At line 671 in file MKL25Z128xxx4.s
Comment: PORTC_PCR28_OFFSET used once
PORTC_PCR29 4004B074

Symbol: PORTC_PCR29
   Definitions
      At line 672 in file MKL25Z128xxx4.s
   Uses
      None
Comment: PORTC_PCR29 unused
PORTC_PCR29_OFFSET 00000074

Symbol: PORTC_PCR29_OFFSET
   Definitions
      At line 637 in file MKL25Z128xxx4.s
   Uses
      At line 672 in file MKL25Z128xxx4.s
Comment: PORTC_PCR29_OFFSET used once
PORTC_PCR2_OFFSET 00000008

Symbol: PORTC_PCR2_OFFSET
   Definitions
      At line 610 in file MKL25Z128xxx4.s
   Uses
      At line 645 in file MKL25Z128xxx4.s
Comment: PORTC_PCR2_OFFSET used once
PORTC_PCR3 4004B00C

Symbol: PORTC_PCR3
   Definitions
      At line 646 in file MKL25Z128xxx4.s
   Uses
      At line 534 in file Lab8.s
Comment: PORTC_PCR3 used once
PORTC_PCR30 4004B078

Symbol: PORTC_PCR30
   Definitions
      At line 673 in file MKL25Z128xxx4.s



ARM Macro Assembler    Page 55 Alphabetic symbol ordering
Absolute symbols

   Uses
      None
Comment: PORTC_PCR30 unused
PORTC_PCR30_OFFSET 00000078

Symbol: PORTC_PCR30_OFFSET
   Definitions
      At line 638 in file MKL25Z128xxx4.s
   Uses
      At line 673 in file MKL25Z128xxx4.s
Comment: PORTC_PCR30_OFFSET used once
PORTC_PCR31 4004B07C

Symbol: PORTC_PCR31
   Definitions
      At line 674 in file MKL25Z128xxx4.s
   Uses
      None
Comment: PORTC_PCR31 unused
PORTC_PCR31_OFFSET 0000007C

Symbol: PORTC_PCR31_OFFSET
   Definitions
      At line 639 in file MKL25Z128xxx4.s
   Uses
      At line 674 in file MKL25Z128xxx4.s
Comment: PORTC_PCR31_OFFSET used once
PORTC_PCR3_OFFSET 0000000C

Symbol: PORTC_PCR3_OFFSET
   Definitions
      At line 611 in file MKL25Z128xxx4.s
   Uses
      At line 646 in file MKL25Z128xxx4.s
Comment: PORTC_PCR3_OFFSET used once
PORTC_PCR4 4004B010

Symbol: PORTC_PCR4
   Definitions
      At line 647 in file MKL25Z128xxx4.s
   Uses
      At line 538 in file Lab8.s
Comment: PORTC_PCR4 used once
PORTC_PCR4_OFFSET 00000010

Symbol: PORTC_PCR4_OFFSET
   Definitions
      At line 612 in file MKL25Z128xxx4.s
   Uses
      At line 647 in file MKL25Z128xxx4.s
Comment: PORTC_PCR4_OFFSET used once
PORTC_PCR5 4004B014

Symbol: PORTC_PCR5
   Definitions
      At line 648 in file MKL25Z128xxx4.s
   Uses
      None
Comment: PORTC_PCR5 unused



ARM Macro Assembler    Page 56 Alphabetic symbol ordering
Absolute symbols

PORTC_PCR5_OFFSET 00000014

Symbol: PORTC_PCR5_OFFSET
   Definitions
      At line 613 in file MKL25Z128xxx4.s
   Uses
      At line 648 in file MKL25Z128xxx4.s
Comment: PORTC_PCR5_OFFSET used once
PORTC_PCR6 4004B018

Symbol: PORTC_PCR6
   Definitions
      At line 649 in file MKL25Z128xxx4.s
   Uses
      None
Comment: PORTC_PCR6 unused
PORTC_PCR6_OFFSET 00000018

Symbol: PORTC_PCR6_OFFSET
   Definitions
      At line 614 in file MKL25Z128xxx4.s
   Uses
      At line 649 in file MKL25Z128xxx4.s
Comment: PORTC_PCR6_OFFSET used once
PORTC_PCR7 4004B01C

Symbol: PORTC_PCR7
   Definitions
      At line 650 in file MKL25Z128xxx4.s
   Uses
      None
Comment: PORTC_PCR7 unused
PORTC_PCR7_OFFSET 0000001C

Symbol: PORTC_PCR7_OFFSET
   Definitions
      At line 615 in file MKL25Z128xxx4.s
   Uses
      At line 650 in file MKL25Z128xxx4.s
Comment: PORTC_PCR7_OFFSET used once
PORTC_PCR8 4004B020

Symbol: PORTC_PCR8
   Definitions
      At line 651 in file MKL25Z128xxx4.s
   Uses
      None
Comment: PORTC_PCR8 unused
PORTC_PCR8_OFFSET 00000020

Symbol: PORTC_PCR8_OFFSET
   Definitions
      At line 616 in file MKL25Z128xxx4.s
   Uses
      At line 651 in file MKL25Z128xxx4.s
Comment: PORTC_PCR8_OFFSET used once
PORTC_PCR9 4004B024

Symbol: PORTC_PCR9



ARM Macro Assembler    Page 57 Alphabetic symbol ordering
Absolute symbols

   Definitions
      At line 652 in file MKL25Z128xxx4.s
   Uses
      None
Comment: PORTC_PCR9 unused
PORTC_PCR9_OFFSET 00000024

Symbol: PORTC_PCR9_OFFSET
   Definitions
      At line 617 in file MKL25Z128xxx4.s
   Uses
      At line 652 in file MKL25Z128xxx4.s
Comment: PORTC_PCR9_OFFSET used once
PORTD_BASE 4004C000

Symbol: PORTD_BASE
   Definitions
      At line 680 in file MKL25Z128xxx4.s
   Uses
      At line 716 in file MKL25Z128xxx4.s
      At line 717 in file MKL25Z128xxx4.s
      At line 718 in file MKL25Z128xxx4.s
      At line 719 in file MKL25Z128xxx4.s
      At line 720 in file MKL25Z128xxx4.s
      At line 721 in file MKL25Z128xxx4.s
      At line 722 in file MKL25Z128xxx4.s
      At line 723 in file MKL25Z128xxx4.s
      At line 724 in file MKL25Z128xxx4.s
      At line 725 in file MKL25Z128xxx4.s
      At line 726 in file MKL25Z128xxx4.s
      At line 727 in file MKL25Z128xxx4.s
      At line 728 in file MKL25Z128xxx4.s
      At line 729 in file MKL25Z128xxx4.s
      At line 730 in file MKL25Z128xxx4.s
      At line 731 in file MKL25Z128xxx4.s
      At line 732 in file MKL25Z128xxx4.s
      At line 733 in file MKL25Z128xxx4.s
      At line 734 in file MKL25Z128xxx4.s
      At line 735 in file MKL25Z128xxx4.s
      At line 736 in file MKL25Z128xxx4.s
      At line 737 in file MKL25Z128xxx4.s
      At line 738 in file MKL25Z128xxx4.s
      At line 739 in file MKL25Z128xxx4.s
      At line 740 in file MKL25Z128xxx4.s
      At line 741 in file MKL25Z128xxx4.s
      At line 742 in file MKL25Z128xxx4.s
      At line 743 in file MKL25Z128xxx4.s
      At line 744 in file MKL25Z128xxx4.s
      At line 745 in file MKL25Z128xxx4.s
      At line 746 in file MKL25Z128xxx4.s
      At line 747 in file MKL25Z128xxx4.s
      At line 748 in file MKL25Z128xxx4.s
      At line 749 in file MKL25Z128xxx4.s
      At line 750 in file MKL25Z128xxx4.s

PORTD_GPCHR 4004C084

Symbol: PORTD_GPCHR
   Definitions



ARM Macro Assembler    Page 58 Alphabetic symbol ordering
Absolute symbols

      At line 749 in file MKL25Z128xxx4.s
   Uses
      None
Comment: PORTD_GPCHR unused
PORTD_GPCHR_OFFSET 00000084

Symbol: PORTD_GPCHR_OFFSET
   Definitions
      At line 714 in file MKL25Z128xxx4.s
   Uses
      At line 749 in file MKL25Z128xxx4.s
Comment: PORTD_GPCHR_OFFSET used once
PORTD_GPCLR 4004C080

Symbol: PORTD_GPCLR
   Definitions
      At line 748 in file MKL25Z128xxx4.s
   Uses
      None
Comment: PORTD_GPCLR unused
PORTD_GPCLR_OFFSET 00000080

Symbol: PORTD_GPCLR_OFFSET
   Definitions
      At line 713 in file MKL25Z128xxx4.s
   Uses
      At line 748 in file MKL25Z128xxx4.s
Comment: PORTD_GPCLR_OFFSET used once
PORTD_ISFR 4004C0A0

Symbol: PORTD_ISFR
   Definitions
      At line 750 in file MKL25Z128xxx4.s
   Uses
      None
Comment: PORTD_ISFR unused
PORTD_ISFR_OFFSET 000000A0

Symbol: PORTD_ISFR_OFFSET
   Definitions
      At line 715 in file MKL25Z128xxx4.s
   Uses
      At line 750 in file MKL25Z128xxx4.s
Comment: PORTD_ISFR_OFFSET used once
PORTD_PCR0 4004C000

Symbol: PORTD_PCR0
   Definitions
      At line 716 in file MKL25Z128xxx4.s
   Uses
      None
Comment: PORTD_PCR0 unused
PORTD_PCR0_OFFSET 00000000

Symbol: PORTD_PCR0_OFFSET
   Definitions
      At line 681 in file MKL25Z128xxx4.s
   Uses
      At line 716 in file MKL25Z128xxx4.s



ARM Macro Assembler    Page 59 Alphabetic symbol ordering
Absolute symbols

Comment: PORTD_PCR0_OFFSET used once
PORTD_PCR1 4004C004

Symbol: PORTD_PCR1
   Definitions
      At line 717 in file MKL25Z128xxx4.s
   Uses
      None
Comment: PORTD_PCR1 unused
PORTD_PCR10 4004C028

Symbol: PORTD_PCR10
   Definitions
      At line 726 in file MKL25Z128xxx4.s
   Uses
      None
Comment: PORTD_PCR10 unused
PORTD_PCR10_OFFSET 00000028

Symbol: PORTD_PCR10_OFFSET
   Definitions
      At line 691 in file MKL25Z128xxx4.s
   Uses
      At line 726 in file MKL25Z128xxx4.s
Comment: PORTD_PCR10_OFFSET used once
PORTD_PCR11 4004C02C

Symbol: PORTD_PCR11
   Definitions
      At line 727 in file MKL25Z128xxx4.s
   Uses
      None
Comment: PORTD_PCR11 unused
PORTD_PCR11_OFFSET 0000002C

Symbol: PORTD_PCR11_OFFSET
   Definitions
      At line 692 in file MKL25Z128xxx4.s
   Uses
      At line 727 in file MKL25Z128xxx4.s
Comment: PORTD_PCR11_OFFSET used once
PORTD_PCR12 4004C030

Symbol: PORTD_PCR12
   Definitions
      At line 728 in file MKL25Z128xxx4.s
   Uses
      None
Comment: PORTD_PCR12 unused
PORTD_PCR12_OFFSET 00000030

Symbol: PORTD_PCR12_OFFSET
   Definitions
      At line 693 in file MKL25Z128xxx4.s
   Uses
      At line 728 in file MKL25Z128xxx4.s
Comment: PORTD_PCR12_OFFSET used once
PORTD_PCR13 4004C034




ARM Macro Assembler    Page 60 Alphabetic symbol ordering
Absolute symbols

Symbol: PORTD_PCR13
   Definitions
      At line 729 in file MKL25Z128xxx4.s
   Uses
      None
Comment: PORTD_PCR13 unused
PORTD_PCR13_OFFSET 00000034

Symbol: PORTD_PCR13_OFFSET
   Definitions
      At line 694 in file MKL25Z128xxx4.s
   Uses
      At line 729 in file MKL25Z128xxx4.s
Comment: PORTD_PCR13_OFFSET used once
PORTD_PCR14 4004C038

Symbol: PORTD_PCR14
   Definitions
      At line 730 in file MKL25Z128xxx4.s
   Uses
      None
Comment: PORTD_PCR14 unused
PORTD_PCR14_OFFSET 00000038

Symbol: PORTD_PCR14_OFFSET
   Definitions
      At line 695 in file MKL25Z128xxx4.s
   Uses
      At line 730 in file MKL25Z128xxx4.s
Comment: PORTD_PCR14_OFFSET used once
PORTD_PCR15 4004C03C

Symbol: PORTD_PCR15
   Definitions
      At line 731 in file MKL25Z128xxx4.s
   Uses
      None
Comment: PORTD_PCR15 unused
PORTD_PCR15_OFFSET 0000003C

Symbol: PORTD_PCR15_OFFSET
   Definitions
      At line 696 in file MKL25Z128xxx4.s
   Uses
      At line 731 in file MKL25Z128xxx4.s
Comment: PORTD_PCR15_OFFSET used once
PORTD_PCR16 4004C040

Symbol: PORTD_PCR16
   Definitions
      At line 732 in file MKL25Z128xxx4.s
   Uses
      None
Comment: PORTD_PCR16 unused
PORTD_PCR16_OFFSET 00000040

Symbol: PORTD_PCR16_OFFSET
   Definitions
      At line 697 in file MKL25Z128xxx4.s



ARM Macro Assembler    Page 61 Alphabetic symbol ordering
Absolute symbols

   Uses
      At line 732 in file MKL25Z128xxx4.s
Comment: PORTD_PCR16_OFFSET used once
PORTD_PCR17 4004C044

Symbol: PORTD_PCR17
   Definitions
      At line 733 in file MKL25Z128xxx4.s
   Uses
      None
Comment: PORTD_PCR17 unused
PORTD_PCR17_OFFSET 00000044

Symbol: PORTD_PCR17_OFFSET
   Definitions
      At line 698 in file MKL25Z128xxx4.s
   Uses
      At line 733 in file MKL25Z128xxx4.s
Comment: PORTD_PCR17_OFFSET used once
PORTD_PCR18 4004C048

Symbol: PORTD_PCR18
   Definitions
      At line 734 in file MKL25Z128xxx4.s
   Uses
      None
Comment: PORTD_PCR18 unused
PORTD_PCR18_OFFSET 00000048

Symbol: PORTD_PCR18_OFFSET
   Definitions
      At line 699 in file MKL25Z128xxx4.s
   Uses
      At line 734 in file MKL25Z128xxx4.s
Comment: PORTD_PCR18_OFFSET used once
PORTD_PCR19 4004C04C

Symbol: PORTD_PCR19
   Definitions
      At line 735 in file MKL25Z128xxx4.s
   Uses
      None
Comment: PORTD_PCR19 unused
PORTD_PCR19_OFFSET 0000004C

Symbol: PORTD_PCR19_OFFSET
   Definitions
      At line 700 in file MKL25Z128xxx4.s
   Uses
      At line 735 in file MKL25Z128xxx4.s
Comment: PORTD_PCR19_OFFSET used once
PORTD_PCR1_OFFSET 00000004

Symbol: PORTD_PCR1_OFFSET
   Definitions
      At line 682 in file MKL25Z128xxx4.s
   Uses
      At line 717 in file MKL25Z128xxx4.s
Comment: PORTD_PCR1_OFFSET used once



ARM Macro Assembler    Page 62 Alphabetic symbol ordering
Absolute symbols

PORTD_PCR2 4004C008

Symbol: PORTD_PCR2
   Definitions
      At line 718 in file MKL25Z128xxx4.s
   Uses
      None
Comment: PORTD_PCR2 unused
PORTD_PCR20 4004C050

Symbol: PORTD_PCR20
   Definitions
      At line 736 in file MKL25Z128xxx4.s
   Uses
      None
Comment: PORTD_PCR20 unused
PORTD_PCR20_OFFSET 00000050

Symbol: PORTD_PCR20_OFFSET
   Definitions
      At line 701 in file MKL25Z128xxx4.s
   Uses
      At line 736 in file MKL25Z128xxx4.s
Comment: PORTD_PCR20_OFFSET used once
PORTD_PCR21 4004C054

Symbol: PORTD_PCR21
   Definitions
      At line 737 in file MKL25Z128xxx4.s
   Uses
      None
Comment: PORTD_PCR21 unused
PORTD_PCR21_OFFSET 00000054

Symbol: PORTD_PCR21_OFFSET
   Definitions
      At line 702 in file MKL25Z128xxx4.s
   Uses
      At line 737 in file MKL25Z128xxx4.s
Comment: PORTD_PCR21_OFFSET used once
PORTD_PCR22 4004C058

Symbol: PORTD_PCR22
   Definitions
      At line 738 in file MKL25Z128xxx4.s
   Uses
      None
Comment: PORTD_PCR22 unused
PORTD_PCR22_OFFSET 00000058

Symbol: PORTD_PCR22_OFFSET
   Definitions
      At line 703 in file MKL25Z128xxx4.s
   Uses
      At line 738 in file MKL25Z128xxx4.s
Comment: PORTD_PCR22_OFFSET used once
PORTD_PCR23 4004C05C

Symbol: PORTD_PCR23



ARM Macro Assembler    Page 63 Alphabetic symbol ordering
Absolute symbols

   Definitions
      At line 739 in file MKL25Z128xxx4.s
   Uses
      None
Comment: PORTD_PCR23 unused
PORTD_PCR23_OFFSET 0000005C

Symbol: PORTD_PCR23_OFFSET
   Definitions
      At line 704 in file MKL25Z128xxx4.s
   Uses
      At line 739 in file MKL25Z128xxx4.s
Comment: PORTD_PCR23_OFFSET used once
PORTD_PCR24 4004C060

Symbol: PORTD_PCR24
   Definitions
      At line 740 in file MKL25Z128xxx4.s
   Uses
      None
Comment: PORTD_PCR24 unused
PORTD_PCR24_OFFSET 00000060

Symbol: PORTD_PCR24_OFFSET
   Definitions
      At line 705 in file MKL25Z128xxx4.s
   Uses
      At line 740 in file MKL25Z128xxx4.s
Comment: PORTD_PCR24_OFFSET used once
PORTD_PCR25 4004C064

Symbol: PORTD_PCR25
   Definitions
      At line 741 in file MKL25Z128xxx4.s
   Uses
      None
Comment: PORTD_PCR25 unused
PORTD_PCR25_OFFSET 00000064

Symbol: PORTD_PCR25_OFFSET
   Definitions
      At line 706 in file MKL25Z128xxx4.s
   Uses
      At line 741 in file MKL25Z128xxx4.s
Comment: PORTD_PCR25_OFFSET used once
PORTD_PCR26 4004C068

Symbol: PORTD_PCR26
   Definitions
      At line 742 in file MKL25Z128xxx4.s
   Uses
      None
Comment: PORTD_PCR26 unused
PORTD_PCR26_OFFSET 00000068

Symbol: PORTD_PCR26_OFFSET
   Definitions
      At line 707 in file MKL25Z128xxx4.s
   Uses



ARM Macro Assembler    Page 64 Alphabetic symbol ordering
Absolute symbols

      At line 742 in file MKL25Z128xxx4.s
Comment: PORTD_PCR26_OFFSET used once
PORTD_PCR27 4004C06C

Symbol: PORTD_PCR27
   Definitions
      At line 743 in file MKL25Z128xxx4.s
   Uses
      None
Comment: PORTD_PCR27 unused
PORTD_PCR27_OFFSET 0000006C

Symbol: PORTD_PCR27_OFFSET
   Definitions
      At line 708 in file MKL25Z128xxx4.s
   Uses
      At line 743 in file MKL25Z128xxx4.s
Comment: PORTD_PCR27_OFFSET used once
PORTD_PCR28 4004C070

Symbol: PORTD_PCR28
   Definitions
      At line 744 in file MKL25Z128xxx4.s
   Uses
      None
Comment: PORTD_PCR28 unused
PORTD_PCR28_OFFSET 00000070

Symbol: PORTD_PCR28_OFFSET
   Definitions
      At line 709 in file MKL25Z128xxx4.s
   Uses
      At line 744 in file MKL25Z128xxx4.s
Comment: PORTD_PCR28_OFFSET used once
PORTD_PCR29 4004C074

Symbol: PORTD_PCR29
   Definitions
      At line 745 in file MKL25Z128xxx4.s
   Uses
      None
Comment: PORTD_PCR29 unused
PORTD_PCR29_OFFSET 00000074

Symbol: PORTD_PCR29_OFFSET
   Definitions
      At line 710 in file MKL25Z128xxx4.s
   Uses
      At line 745 in file MKL25Z128xxx4.s
Comment: PORTD_PCR29_OFFSET used once
PORTD_PCR2_OFFSET 00000008

Symbol: PORTD_PCR2_OFFSET
   Definitions
      At line 683 in file MKL25Z128xxx4.s
   Uses
      At line 718 in file MKL25Z128xxx4.s
Comment: PORTD_PCR2_OFFSET used once
PORTD_PCR3 4004C00C



ARM Macro Assembler    Page 65 Alphabetic symbol ordering
Absolute symbols


Symbol: PORTD_PCR3
   Definitions
      At line 719 in file MKL25Z128xxx4.s
   Uses
      None
Comment: PORTD_PCR3 unused
PORTD_PCR30 4004C078

Symbol: PORTD_PCR30
   Definitions
      At line 746 in file MKL25Z128xxx4.s
   Uses
      None
Comment: PORTD_PCR30 unused
PORTD_PCR30_OFFSET 00000078

Symbol: PORTD_PCR30_OFFSET
   Definitions
      At line 711 in file MKL25Z128xxx4.s
   Uses
      At line 746 in file MKL25Z128xxx4.s
Comment: PORTD_PCR30_OFFSET used once
PORTD_PCR31 4004C07C

Symbol: PORTD_PCR31
   Definitions
      At line 747 in file MKL25Z128xxx4.s
   Uses
      None
Comment: PORTD_PCR31 unused
PORTD_PCR31_OFFSET 0000007C

Symbol: PORTD_PCR31_OFFSET
   Definitions
      At line 712 in file MKL25Z128xxx4.s
   Uses
      At line 747 in file MKL25Z128xxx4.s
Comment: PORTD_PCR31_OFFSET used once
PORTD_PCR3_OFFSET 0000000C

Symbol: PORTD_PCR3_OFFSET
   Definitions
      At line 684 in file MKL25Z128xxx4.s
   Uses
      At line 719 in file MKL25Z128xxx4.s
Comment: PORTD_PCR3_OFFSET used once
PORTD_PCR4 4004C010

Symbol: PORTD_PCR4
   Definitions
      At line 720 in file MKL25Z128xxx4.s
   Uses
      None
Comment: PORTD_PCR4 unused
PORTD_PCR4_OFFSET 00000010

Symbol: PORTD_PCR4_OFFSET
   Definitions



ARM Macro Assembler    Page 66 Alphabetic symbol ordering
Absolute symbols

      At line 685 in file MKL25Z128xxx4.s
   Uses
      At line 720 in file MKL25Z128xxx4.s
Comment: PORTD_PCR4_OFFSET used once
PORTD_PCR5 4004C014

Symbol: PORTD_PCR5
   Definitions
      At line 721 in file MKL25Z128xxx4.s
   Uses
      None
Comment: PORTD_PCR5 unused
PORTD_PCR5_OFFSET 00000014

Symbol: PORTD_PCR5_OFFSET
   Definitions
      At line 686 in file MKL25Z128xxx4.s
   Uses
      At line 721 in file MKL25Z128xxx4.s
Comment: PORTD_PCR5_OFFSET used once
PORTD_PCR6 4004C018

Symbol: PORTD_PCR6
   Definitions
      At line 722 in file MKL25Z128xxx4.s
   Uses
      None
Comment: PORTD_PCR6 unused
PORTD_PCR6_OFFSET 00000018

Symbol: PORTD_PCR6_OFFSET
   Definitions
      At line 687 in file MKL25Z128xxx4.s
   Uses
      At line 722 in file MKL25Z128xxx4.s
Comment: PORTD_PCR6_OFFSET used once
PORTD_PCR7 4004C01C

Symbol: PORTD_PCR7
   Definitions
      At line 723 in file MKL25Z128xxx4.s
   Uses
      None
Comment: PORTD_PCR7 unused
PORTD_PCR7_OFFSET 0000001C

Symbol: PORTD_PCR7_OFFSET
   Definitions
      At line 688 in file MKL25Z128xxx4.s
   Uses
      At line 723 in file MKL25Z128xxx4.s
Comment: PORTD_PCR7_OFFSET used once
PORTD_PCR8 4004C020

Symbol: PORTD_PCR8
   Definitions
      At line 724 in file MKL25Z128xxx4.s
   Uses
      None



ARM Macro Assembler    Page 67 Alphabetic symbol ordering
Absolute symbols

Comment: PORTD_PCR8 unused
PORTD_PCR8_OFFSET 00000020

Symbol: PORTD_PCR8_OFFSET
   Definitions
      At line 689 in file MKL25Z128xxx4.s
   Uses
      At line 724 in file MKL25Z128xxx4.s
Comment: PORTD_PCR8_OFFSET used once
PORTD_PCR9 4004C024

Symbol: PORTD_PCR9
   Definitions
      At line 725 in file MKL25Z128xxx4.s
   Uses
      None
Comment: PORTD_PCR9 unused
PORTD_PCR9_OFFSET 00000024

Symbol: PORTD_PCR9_OFFSET
   Definitions
      At line 690 in file MKL25Z128xxx4.s
   Uses
      At line 725 in file MKL25Z128xxx4.s
Comment: PORTD_PCR9_OFFSET used once
PORTE_BASE 4004D000

Symbol: PORTE_BASE
   Definitions
      At line 753 in file MKL25Z128xxx4.s
   Uses
      At line 789 in file MKL25Z128xxx4.s
      At line 790 in file MKL25Z128xxx4.s
      At line 791 in file MKL25Z128xxx4.s
      At line 792 in file MKL25Z128xxx4.s
      At line 793 in file MKL25Z128xxx4.s
      At line 794 in file MKL25Z128xxx4.s
      At line 795 in file MKL25Z128xxx4.s
      At line 796 in file MKL25Z128xxx4.s
      At line 797 in file MKL25Z128xxx4.s
      At line 798 in file MKL25Z128xxx4.s
      At line 799 in file MKL25Z128xxx4.s
      At line 800 in file MKL25Z128xxx4.s
      At line 801 in file MKL25Z128xxx4.s
      At line 802 in file MKL25Z128xxx4.s
      At line 803 in file MKL25Z128xxx4.s
      At line 804 in file MKL25Z128xxx4.s
      At line 805 in file MKL25Z128xxx4.s
      At line 806 in file MKL25Z128xxx4.s
      At line 807 in file MKL25Z128xxx4.s
      At line 808 in file MKL25Z128xxx4.s
      At line 809 in file MKL25Z128xxx4.s
      At line 810 in file MKL25Z128xxx4.s
      At line 811 in file MKL25Z128xxx4.s
      At line 812 in file MKL25Z128xxx4.s
      At line 813 in file MKL25Z128xxx4.s
      At line 814 in file MKL25Z128xxx4.s
      At line 815 in file MKL25Z128xxx4.s
      At line 816 in file MKL25Z128xxx4.s



ARM Macro Assembler    Page 68 Alphabetic symbol ordering
Absolute symbols

      At line 817 in file MKL25Z128xxx4.s
      At line 818 in file MKL25Z128xxx4.s
      At line 819 in file MKL25Z128xxx4.s
      At line 820 in file MKL25Z128xxx4.s
      At line 821 in file MKL25Z128xxx4.s
      At line 822 in file MKL25Z128xxx4.s
      At line 823 in file MKL25Z128xxx4.s

PORTE_GPCHR 4004D084

Symbol: PORTE_GPCHR
   Definitions
      At line 822 in file MKL25Z128xxx4.s
   Uses
      None
Comment: PORTE_GPCHR unused
PORTE_GPCHR_OFFSET 00000084

Symbol: PORTE_GPCHR_OFFSET
   Definitions
      At line 787 in file MKL25Z128xxx4.s
   Uses
      At line 822 in file MKL25Z128xxx4.s
Comment: PORTE_GPCHR_OFFSET used once
PORTE_GPCLR 4004D080

Symbol: PORTE_GPCLR
   Definitions
      At line 821 in file MKL25Z128xxx4.s
   Uses
      None
Comment: PORTE_GPCLR unused
PORTE_GPCLR_OFFSET 00000080

Symbol: PORTE_GPCLR_OFFSET
   Definitions
      At line 786 in file MKL25Z128xxx4.s
   Uses
      At line 821 in file MKL25Z128xxx4.s
Comment: PORTE_GPCLR_OFFSET used once
PORTE_ISFR 4004D0A0

Symbol: PORTE_ISFR
   Definitions
      At line 823 in file MKL25Z128xxx4.s
   Uses
      None
Comment: PORTE_ISFR unused
PORTE_ISFR_OFFSET 000000A0

Symbol: PORTE_ISFR_OFFSET
   Definitions
      At line 788 in file MKL25Z128xxx4.s
   Uses
      At line 823 in file MKL25Z128xxx4.s
Comment: PORTE_ISFR_OFFSET used once
PORTE_PCR0 4004D000

Symbol: PORTE_PCR0



ARM Macro Assembler    Page 69 Alphabetic symbol ordering
Absolute symbols

   Definitions
      At line 789 in file MKL25Z128xxx4.s
   Uses
      None
Comment: PORTE_PCR0 unused
PORTE_PCR0_OFFSET 00000000

Symbol: PORTE_PCR0_OFFSET
   Definitions
      At line 754 in file MKL25Z128xxx4.s
   Uses
      At line 789 in file MKL25Z128xxx4.s
Comment: PORTE_PCR0_OFFSET used once
PORTE_PCR1 4004D004

Symbol: PORTE_PCR1
   Definitions
      At line 790 in file MKL25Z128xxx4.s
   Uses
      None
Comment: PORTE_PCR1 unused
PORTE_PCR10 4004D028

Symbol: PORTE_PCR10
   Definitions
      At line 799 in file MKL25Z128xxx4.s
   Uses
      None
Comment: PORTE_PCR10 unused
PORTE_PCR10_OFFSET 00000028

Symbol: PORTE_PCR10_OFFSET
   Definitions
      At line 764 in file MKL25Z128xxx4.s
   Uses
      At line 799 in file MKL25Z128xxx4.s
Comment: PORTE_PCR10_OFFSET used once
PORTE_PCR11 4004D02C

Symbol: PORTE_PCR11
   Definitions
      At line 800 in file MKL25Z128xxx4.s
   Uses
      None
Comment: PORTE_PCR11 unused
PORTE_PCR11_OFFSET 0000002C

Symbol: PORTE_PCR11_OFFSET
   Definitions
      At line 765 in file MKL25Z128xxx4.s
   Uses
      At line 800 in file MKL25Z128xxx4.s
Comment: PORTE_PCR11_OFFSET used once
PORTE_PCR12 4004D030

Symbol: PORTE_PCR12
   Definitions
      At line 801 in file MKL25Z128xxx4.s
   Uses



ARM Macro Assembler    Page 70 Alphabetic symbol ordering
Absolute symbols

      None
Comment: PORTE_PCR12 unused
PORTE_PCR12_OFFSET 00000030

Symbol: PORTE_PCR12_OFFSET
   Definitions
      At line 766 in file MKL25Z128xxx4.s
   Uses
      At line 801 in file MKL25Z128xxx4.s
Comment: PORTE_PCR12_OFFSET used once
PORTE_PCR13 4004D034

Symbol: PORTE_PCR13
   Definitions
      At line 802 in file MKL25Z128xxx4.s
   Uses
      None
Comment: PORTE_PCR13 unused
PORTE_PCR13_OFFSET 00000034

Symbol: PORTE_PCR13_OFFSET
   Definitions
      At line 767 in file MKL25Z128xxx4.s
   Uses
      At line 802 in file MKL25Z128xxx4.s
Comment: PORTE_PCR13_OFFSET used once
PORTE_PCR14 4004D038

Symbol: PORTE_PCR14
   Definitions
      At line 803 in file MKL25Z128xxx4.s
   Uses
      None
Comment: PORTE_PCR14 unused
PORTE_PCR14_OFFSET 00000038

Symbol: PORTE_PCR14_OFFSET
   Definitions
      At line 768 in file MKL25Z128xxx4.s
   Uses
      At line 803 in file MKL25Z128xxx4.s
Comment: PORTE_PCR14_OFFSET used once
PORTE_PCR15 4004D03C

Symbol: PORTE_PCR15
   Definitions
      At line 804 in file MKL25Z128xxx4.s
   Uses
      None
Comment: PORTE_PCR15 unused
PORTE_PCR15_OFFSET 0000003C

Symbol: PORTE_PCR15_OFFSET
   Definitions
      At line 769 in file MKL25Z128xxx4.s
   Uses
      At line 804 in file MKL25Z128xxx4.s
Comment: PORTE_PCR15_OFFSET used once
PORTE_PCR16 4004D040



ARM Macro Assembler    Page 71 Alphabetic symbol ordering
Absolute symbols


Symbol: PORTE_PCR16
   Definitions
      At line 805 in file MKL25Z128xxx4.s
   Uses
      None
Comment: PORTE_PCR16 unused
PORTE_PCR16_OFFSET 00000040

Symbol: PORTE_PCR16_OFFSET
   Definitions
      At line 770 in file MKL25Z128xxx4.s
   Uses
      At line 805 in file MKL25Z128xxx4.s
Comment: PORTE_PCR16_OFFSET used once
PORTE_PCR17 4004D044

Symbol: PORTE_PCR17
   Definitions
      At line 806 in file MKL25Z128xxx4.s
   Uses
      None
Comment: PORTE_PCR17 unused
PORTE_PCR17_OFFSET 00000044

Symbol: PORTE_PCR17_OFFSET
   Definitions
      At line 771 in file MKL25Z128xxx4.s
   Uses
      At line 806 in file MKL25Z128xxx4.s
Comment: PORTE_PCR17_OFFSET used once
PORTE_PCR18 4004D048

Symbol: PORTE_PCR18
   Definitions
      At line 807 in file MKL25Z128xxx4.s
   Uses
      None
Comment: PORTE_PCR18 unused
PORTE_PCR18_OFFSET 00000048

Symbol: PORTE_PCR18_OFFSET
   Definitions
      At line 772 in file MKL25Z128xxx4.s
   Uses
      At line 807 in file MKL25Z128xxx4.s
Comment: PORTE_PCR18_OFFSET used once
PORTE_PCR19 4004D04C

Symbol: PORTE_PCR19
   Definitions
      At line 808 in file MKL25Z128xxx4.s
   Uses
      None
Comment: PORTE_PCR19 unused
PORTE_PCR19_OFFSET 0000004C

Symbol: PORTE_PCR19_OFFSET
   Definitions



ARM Macro Assembler    Page 72 Alphabetic symbol ordering
Absolute symbols

      At line 773 in file MKL25Z128xxx4.s
   Uses
      At line 808 in file MKL25Z128xxx4.s
Comment: PORTE_PCR19_OFFSET used once
PORTE_PCR1_OFFSET 00000004

Symbol: PORTE_PCR1_OFFSET
   Definitions
      At line 755 in file MKL25Z128xxx4.s
   Uses
      At line 790 in file MKL25Z128xxx4.s
Comment: PORTE_PCR1_OFFSET used once
PORTE_PCR2 4004D008

Symbol: PORTE_PCR2
   Definitions
      At line 791 in file MKL25Z128xxx4.s
   Uses
      None
Comment: PORTE_PCR2 unused
PORTE_PCR20 4004D050

Symbol: PORTE_PCR20
   Definitions
      At line 809 in file MKL25Z128xxx4.s
   Uses
      None
Comment: PORTE_PCR20 unused
PORTE_PCR20_OFFSET 00000050

Symbol: PORTE_PCR20_OFFSET
   Definitions
      At line 774 in file MKL25Z128xxx4.s
   Uses
      At line 809 in file MKL25Z128xxx4.s
Comment: PORTE_PCR20_OFFSET used once
PORTE_PCR21 4004D054

Symbol: PORTE_PCR21
   Definitions
      At line 810 in file MKL25Z128xxx4.s
   Uses
      None
Comment: PORTE_PCR21 unused
PORTE_PCR21_OFFSET 00000054

Symbol: PORTE_PCR21_OFFSET
   Definitions
      At line 775 in file MKL25Z128xxx4.s
   Uses
      At line 810 in file MKL25Z128xxx4.s
Comment: PORTE_PCR21_OFFSET used once
PORTE_PCR22 4004D058

Symbol: PORTE_PCR22
   Definitions
      At line 811 in file MKL25Z128xxx4.s
   Uses
      None



ARM Macro Assembler    Page 73 Alphabetic symbol ordering
Absolute symbols

Comment: PORTE_PCR22 unused
PORTE_PCR22_OFFSET 00000058

Symbol: PORTE_PCR22_OFFSET
   Definitions
      At line 776 in file MKL25Z128xxx4.s
   Uses
      At line 811 in file MKL25Z128xxx4.s
Comment: PORTE_PCR22_OFFSET used once
PORTE_PCR23 4004D05C

Symbol: PORTE_PCR23
   Definitions
      At line 812 in file MKL25Z128xxx4.s
   Uses
      None
Comment: PORTE_PCR23 unused
PORTE_PCR23_OFFSET 0000005C

Symbol: PORTE_PCR23_OFFSET
   Definitions
      At line 777 in file MKL25Z128xxx4.s
   Uses
      At line 812 in file MKL25Z128xxx4.s
Comment: PORTE_PCR23_OFFSET used once
PORTE_PCR24 4004D060

Symbol: PORTE_PCR24
   Definitions
      At line 813 in file MKL25Z128xxx4.s
   Uses
      None
Comment: PORTE_PCR24 unused
PORTE_PCR24_OFFSET 00000060

Symbol: PORTE_PCR24_OFFSET
   Definitions
      At line 778 in file MKL25Z128xxx4.s
   Uses
      At line 813 in file MKL25Z128xxx4.s
Comment: PORTE_PCR24_OFFSET used once
PORTE_PCR25 4004D064

Symbol: PORTE_PCR25
   Definitions
      At line 814 in file MKL25Z128xxx4.s
   Uses
      None
Comment: PORTE_PCR25 unused
PORTE_PCR25_OFFSET 00000064

Symbol: PORTE_PCR25_OFFSET
   Definitions
      At line 779 in file MKL25Z128xxx4.s
   Uses
      At line 814 in file MKL25Z128xxx4.s
Comment: PORTE_PCR25_OFFSET used once
PORTE_PCR26 4004D068




ARM Macro Assembler    Page 74 Alphabetic symbol ordering
Absolute symbols

Symbol: PORTE_PCR26
   Definitions
      At line 815 in file MKL25Z128xxx4.s
   Uses
      None
Comment: PORTE_PCR26 unused
PORTE_PCR26_OFFSET 00000068

Symbol: PORTE_PCR26_OFFSET
   Definitions
      At line 780 in file MKL25Z128xxx4.s
   Uses
      At line 815 in file MKL25Z128xxx4.s
Comment: PORTE_PCR26_OFFSET used once
PORTE_PCR27 4004D06C

Symbol: PORTE_PCR27
   Definitions
      At line 816 in file MKL25Z128xxx4.s
   Uses
      None
Comment: PORTE_PCR27 unused
PORTE_PCR27_OFFSET 0000006C

Symbol: PORTE_PCR27_OFFSET
   Definitions
      At line 781 in file MKL25Z128xxx4.s
   Uses
      At line 816 in file MKL25Z128xxx4.s
Comment: PORTE_PCR27_OFFSET used once
PORTE_PCR28 4004D070

Symbol: PORTE_PCR28
   Definitions
      At line 817 in file MKL25Z128xxx4.s
   Uses
      None
Comment: PORTE_PCR28 unused
PORTE_PCR28_OFFSET 00000070

Symbol: PORTE_PCR28_OFFSET
   Definitions
      At line 782 in file MKL25Z128xxx4.s
   Uses
      At line 817 in file MKL25Z128xxx4.s
Comment: PORTE_PCR28_OFFSET used once
PORTE_PCR29 4004D074

Symbol: PORTE_PCR29
   Definitions
      At line 818 in file MKL25Z128xxx4.s
   Uses
      None
Comment: PORTE_PCR29 unused
PORTE_PCR29_OFFSET 00000074

Symbol: PORTE_PCR29_OFFSET
   Definitions
      At line 783 in file MKL25Z128xxx4.s



ARM Macro Assembler    Page 75 Alphabetic symbol ordering
Absolute symbols

   Uses
      At line 818 in file MKL25Z128xxx4.s
Comment: PORTE_PCR29_OFFSET used once
PORTE_PCR2_OFFSET 00000008

Symbol: PORTE_PCR2_OFFSET
   Definitions
      At line 756 in file MKL25Z128xxx4.s
   Uses
      At line 791 in file MKL25Z128xxx4.s
Comment: PORTE_PCR2_OFFSET used once
PORTE_PCR3 4004D00C

Symbol: PORTE_PCR3
   Definitions
      At line 792 in file MKL25Z128xxx4.s
   Uses
      None
Comment: PORTE_PCR3 unused
PORTE_PCR30 4004D078

Symbol: PORTE_PCR30
   Definitions
      At line 819 in file MKL25Z128xxx4.s
   Uses
      None
Comment: PORTE_PCR30 unused
PORTE_PCR30_OFFSET 00000078

Symbol: PORTE_PCR30_OFFSET
   Definitions
      At line 784 in file MKL25Z128xxx4.s
   Uses
      At line 819 in file MKL25Z128xxx4.s
Comment: PORTE_PCR30_OFFSET used once
PORTE_PCR31 4004D07C

Symbol: PORTE_PCR31
   Definitions
      At line 820 in file MKL25Z128xxx4.s
   Uses
      None
Comment: PORTE_PCR31 unused
PORTE_PCR31_OFFSET 0000007C

Symbol: PORTE_PCR31_OFFSET
   Definitions
      At line 785 in file MKL25Z128xxx4.s
   Uses
      At line 820 in file MKL25Z128xxx4.s
Comment: PORTE_PCR31_OFFSET used once
PORTE_PCR3_OFFSET 0000000C

Symbol: PORTE_PCR3_OFFSET
   Definitions
      At line 757 in file MKL25Z128xxx4.s
   Uses
      At line 792 in file MKL25Z128xxx4.s
Comment: PORTE_PCR3_OFFSET used once



ARM Macro Assembler    Page 76 Alphabetic symbol ordering
Absolute symbols

PORTE_PCR4 4004D010

Symbol: PORTE_PCR4
   Definitions
      At line 793 in file MKL25Z128xxx4.s
   Uses
      None
Comment: PORTE_PCR4 unused
PORTE_PCR4_OFFSET 00000010

Symbol: PORTE_PCR4_OFFSET
   Definitions
      At line 758 in file MKL25Z128xxx4.s
   Uses
      At line 793 in file MKL25Z128xxx4.s
Comment: PORTE_PCR4_OFFSET used once
PORTE_PCR5 4004D014

Symbol: PORTE_PCR5
   Definitions
      At line 794 in file MKL25Z128xxx4.s
   Uses
      None
Comment: PORTE_PCR5 unused
PORTE_PCR5_OFFSET 00000014

Symbol: PORTE_PCR5_OFFSET
   Definitions
      At line 759 in file MKL25Z128xxx4.s
   Uses
      At line 794 in file MKL25Z128xxx4.s
Comment: PORTE_PCR5_OFFSET used once
PORTE_PCR6 4004D018

Symbol: PORTE_PCR6
   Definitions
      At line 795 in file MKL25Z128xxx4.s
   Uses
      None
Comment: PORTE_PCR6 unused
PORTE_PCR6_OFFSET 00000018

Symbol: PORTE_PCR6_OFFSET
   Definitions
      At line 760 in file MKL25Z128xxx4.s
   Uses
      At line 795 in file MKL25Z128xxx4.s
Comment: PORTE_PCR6_OFFSET used once
PORTE_PCR7 4004D01C

Symbol: PORTE_PCR7
   Definitions
      At line 796 in file MKL25Z128xxx4.s
   Uses
      None
Comment: PORTE_PCR7 unused
PORTE_PCR7_OFFSET 0000001C

Symbol: PORTE_PCR7_OFFSET



ARM Macro Assembler    Page 77 Alphabetic symbol ordering
Absolute symbols

   Definitions
      At line 761 in file MKL25Z128xxx4.s
   Uses
      At line 796 in file MKL25Z128xxx4.s
Comment: PORTE_PCR7_OFFSET used once
PORTE_PCR8 4004D020

Symbol: PORTE_PCR8
   Definitions
      At line 797 in file MKL25Z128xxx4.s
   Uses
      None
Comment: PORTE_PCR8 unused
PORTE_PCR8_OFFSET 00000020

Symbol: PORTE_PCR8_OFFSET
   Definitions
      At line 762 in file MKL25Z128xxx4.s
   Uses
      At line 797 in file MKL25Z128xxx4.s
Comment: PORTE_PCR8_OFFSET used once
PORTE_PCR9 4004D024

Symbol: PORTE_PCR9
   Definitions
      At line 798 in file MKL25Z128xxx4.s
   Uses
      None
Comment: PORTE_PCR9 unused
PORTE_PCR9_OFFSET 00000024

Symbol: PORTE_PCR9_OFFSET
   Definitions
      At line 763 in file MKL25Z128xxx4.s
   Uses
      At line 798 in file MKL25Z128xxx4.s
Comment: PORTE_PCR9_OFFSET used once
PTC3_MUX_UART1_RX 00000300

Symbol: PTC3_MUX_UART1_RX
   Definitions
      At line 43 in file Lab8.s
   Uses
      At line 45 in file Lab8.s
Comment: PTC3_MUX_UART1_RX used once
PTC4_MUX_UART1_TX 00000300

Symbol: PTC4_MUX_UART1_TX
   Definitions
      At line 44 in file Lab8.s
   Uses
      At line 46 in file Lab8.s
Comment: PTC4_MUX_UART1_TX used once
Q_BUF_SZ 00000004

Symbol: Q_BUF_SZ
   Definitions
      At line 34 in file Lab8.s
   Uses



ARM Macro Assembler    Page 78 Alphabetic symbol ordering
Absolute symbols

      At line 313 in file Lab8.s
      At line 315 in file Lab8.s
      At line 643 in file Lab8.s

Q_REC_SZ 00000012

Symbol: Q_REC_SZ
   Definitions
      At line 33 in file Lab8.s
   Uses
      At line 644 in file Lab8.s
Comment: Q_REC_SZ used once
RET_ADDR_T_MASK 00000001

Symbol: RET_ADDR_T_MASK
   Definitions
      At line 24 in file MKL25Z128xxx4.s
   Uses
      None
Comment: RET_ADDR_T_MASK unused
SET_PTC3_UART1_RX 01000300

Symbol: SET_PTC3_UART1_RX
   Definitions
      At line 45 in file Lab8.s
   Uses
      At line 535 in file Lab8.s
Comment: SET_PTC3_UART1_RX used once
SET_PTC4_UART1_TX 01000300

Symbol: SET_PTC4_UART1_TX
   Definitions
      At line 46 in file Lab8.s
   Uses
      At line 539 in file Lab8.s
Comment: SET_PTC4_UART1_TX used once
SIM_BASE 40047000

Symbol: SIM_BASE
   Definitions
      At line 826 in file MKL25Z128xxx4.s
   Uses
      At line 832 in file MKL25Z128xxx4.s
      At line 833 in file MKL25Z128xxx4.s
      At line 834 in file MKL25Z128xxx4.s
      At line 835 in file MKL25Z128xxx4.s
      At line 836 in file MKL25Z128xxx4.s

SIM_CLKDIV1 40048044

Symbol: SIM_CLKDIV1
   Definitions
      At line 832 in file MKL25Z128xxx4.s
   Uses
      At line 1259 in file MKL25Z128xxx4.s
Comment: SIM_CLKDIV1 used once
SIM_CLKDIV1_OFFSET 00001044

Symbol: SIM_CLKDIV1_OFFSET



ARM Macro Assembler    Page 79 Alphabetic symbol ordering
Absolute symbols

   Definitions
      At line 830 in file MKL25Z128xxx4.s
   Uses
      At line 832 in file MKL25Z128xxx4.s
Comment: SIM_CLKDIV1_OFFSET used once
SIM_CLKDIV1_OUTDIV1_DIV2_MASK 10000000

Symbol: SIM_CLKDIV1_OUTDIV1_DIV2_MASK
   Definitions
      At line 851 in file MKL25Z128xxx4.s
   Uses
      At line 853 in file MKL25Z128xxx4.s
Comment: SIM_CLKDIV1_OUTDIV1_DIV2_MASK used once
SIM_CLKDIV1_OUTDIV1_MASK F0000000

Symbol: SIM_CLKDIV1_OUTDIV1_MASK
   Definitions
      At line 849 in file MKL25Z128xxx4.s
   Uses
      None
Comment: SIM_CLKDIV1_OUTDIV1_MASK unused
SIM_CLKDIV1_OUTDIV4_DIV2_MASK 00010000

Symbol: SIM_CLKDIV1_OUTDIV4_DIV2_MASK
   Definitions
      At line 852 in file MKL25Z128xxx4.s
   Uses
      At line 853 in file MKL25Z128xxx4.s
Comment: SIM_CLKDIV1_OUTDIV4_DIV2_MASK used once
SIM_CLKDIV1_OUTDIV4_MASK 00070000

Symbol: SIM_CLKDIV1_OUTDIV4_MASK
   Definitions
      At line 850 in file MKL25Z128xxx4.s
   Uses
      None
Comment: SIM_CLKDIV1_OUTDIV4_MASK unused
SIM_COPC 40048100

Symbol: SIM_COPC
   Definitions
      At line 833 in file MKL25Z128xxx4.s
   Uses
      At line 1096 in file MKL25Z128xxx4.s
Comment: SIM_COPC used once
SIM_COPC_OFFSET 00001100

Symbol: SIM_COPC_OFFSET
   Definitions
      At line 831 in file MKL25Z128xxx4.s
   Uses
      At line 833 in file MKL25Z128xxx4.s
Comment: SIM_COPC_OFFSET used once
SIM_CORE_DIV2_BUS_DIV2 10010000

Symbol: SIM_CORE_DIV2_BUS_DIV2
   Definitions
      At line 853 in file MKL25Z128xxx4.s
   Uses



ARM Macro Assembler    Page 80 Alphabetic symbol ordering
Absolute symbols

      At line 1260 in file MKL25Z128xxx4.s
Comment: SIM_CORE_DIV2_BUS_DIV2 used once
SIM_SCGC4 40048034

Symbol: SIM_SCGC4
   Definitions
      At line 834 in file MKL25Z128xxx4.s
   Uses
      At line 522 in file Lab8.s
Comment: SIM_SCGC4 used once
SIM_SCGC4_CMP_MASK 00080000

Symbol: SIM_SCGC4_CMP_MASK
   Definitions
      At line 891 in file MKL25Z128xxx4.s
   Uses
      None
Comment: SIM_SCGC4_CMP_MASK unused
SIM_SCGC4_I2C0_MASK 00000040

Symbol: SIM_SCGC4_I2C0_MASK
   Definitions
      At line 897 in file MKL25Z128xxx4.s
   Uses
      None
Comment: SIM_SCGC4_I2C0_MASK unused
SIM_SCGC4_I2C1_MASK 00000080

Symbol: SIM_SCGC4_I2C1_MASK
   Definitions
      At line 896 in file MKL25Z128xxx4.s
   Uses
      None
Comment: SIM_SCGC4_I2C1_MASK unused
SIM_SCGC4_OFFSET 00001034

Symbol: SIM_SCGC4_OFFSET
   Definitions
      At line 828 in file MKL25Z128xxx4.s
   Uses
      At line 834 in file MKL25Z128xxx4.s
Comment: SIM_SCGC4_OFFSET used once
SIM_SCGC4_SPI0_MASK 00400000

Symbol: SIM_SCGC4_SPI0_MASK
   Definitions
      At line 890 in file MKL25Z128xxx4.s
   Uses
      None
Comment: SIM_SCGC4_SPI0_MASK unused
SIM_SCGC4_SPI1_MASK 00800000

Symbol: SIM_SCGC4_SPI1_MASK
   Definitions
      At line 889 in file MKL25Z128xxx4.s
   Uses
      None
Comment: SIM_SCGC4_SPI1_MASK unused
SIM_SCGC4_UART0_MASK 00000400



ARM Macro Assembler    Page 81 Alphabetic symbol ordering
Absolute symbols


Symbol: SIM_SCGC4_UART0_MASK
   Definitions
      At line 895 in file MKL25Z128xxx4.s
   Uses
      None
Comment: SIM_SCGC4_UART0_MASK unused
SIM_SCGC4_UART1_MASK 00000800

Symbol: SIM_SCGC4_UART1_MASK
   Definitions
      At line 894 in file MKL25Z128xxx4.s
   Uses
      At line 50 in file Lab8.s
Comment: SIM_SCGC4_UART1_MASK used once
SIM_SCGC4_UART2_MASK 00001000

Symbol: SIM_SCGC4_UART2_MASK
   Definitions
      At line 893 in file MKL25Z128xxx4.s
   Uses
      None
Comment: SIM_SCGC4_UART2_MASK unused
SIM_SCGC4_USBOTG_MASK 00040000

Symbol: SIM_SCGC4_USBOTG_MASK
   Definitions
      At line 892 in file MKL25Z128xxx4.s
   Uses
      None
Comment: SIM_SCGC4_USBOTG_MASK unused
SIM_SCGC5 40048038

Symbol: SIM_SCGC5
   Definitions
      At line 835 in file MKL25Z128xxx4.s
   Uses
      At line 528 in file Lab8.s
Comment: SIM_SCGC5 used once
SIM_SCGC5_LPTMR_MASK 00000001

Symbol: SIM_SCGC5_LPTMR_MASK
   Definitions
      At line 920 in file MKL25Z128xxx4.s
   Uses
      None
Comment: SIM_SCGC5_LPTMR_MASK unused
SIM_SCGC5_OFFSET 00001038

Symbol: SIM_SCGC5_OFFSET
   Definitions
      At line 829 in file MKL25Z128xxx4.s
   Uses
      At line 835 in file MKL25Z128xxx4.s
Comment: SIM_SCGC5_OFFSET used once
SIM_SCGC5_PORTA_MASK 00000200

Symbol: SIM_SCGC5_PORTA_MASK
   Definitions



ARM Macro Assembler    Page 82 Alphabetic symbol ordering
Absolute symbols

      At line 918 in file MKL25Z128xxx4.s
   Uses
      None
Comment: SIM_SCGC5_PORTA_MASK unused
SIM_SCGC5_PORTB_MASK 00000400

Symbol: SIM_SCGC5_PORTB_MASK
   Definitions
      At line 917 in file MKL25Z128xxx4.s
   Uses
      None
Comment: SIM_SCGC5_PORTB_MASK unused
SIM_SCGC5_PORTC_MASK 00000800

Symbol: SIM_SCGC5_PORTC_MASK
   Definitions
      At line 916 in file MKL25Z128xxx4.s
   Uses
      At line 54 in file Lab8.s
Comment: SIM_SCGC5_PORTC_MASK used once
SIM_SCGC5_PORTD_MASK 00001000

Symbol: SIM_SCGC5_PORTD_MASK
   Definitions
      At line 915 in file MKL25Z128xxx4.s
   Uses
      None
Comment: SIM_SCGC5_PORTD_MASK unused
SIM_SCGC5_PORTE_MASK 00002000

Symbol: SIM_SCGC5_PORTE_MASK
   Definitions
      At line 914 in file MKL25Z128xxx4.s
   Uses
      None
Comment: SIM_SCGC5_PORTE_MASK unused
SIM_SCGC5_TSI_MASK 00000020

Symbol: SIM_SCGC5_TSI_MASK
   Definitions
      At line 919 in file MKL25Z128xxx4.s
   Uses
      None
Comment: SIM_SCGC5_TSI_MASK unused
SIM_SOPT5 40048010

Symbol: SIM_SOPT5
   Definitions
      At line 836 in file MKL25Z128xxx4.s
   Uses
      At line 516 in file Lab8.s
Comment: SIM_SOPT5 used once
SIM_SOPT5_OFFSET 00001010

Symbol: SIM_SOPT5_OFFSET
   Definitions
      At line 827 in file MKL25Z128xxx4.s
   Uses
      At line 836 in file MKL25Z128xxx4.s



ARM Macro Assembler    Page 83 Alphabetic symbol ordering
Absolute symbols

Comment: SIM_SOPT5_OFFSET used once
SSTACK_SIZE 00000100

Symbol: SSTACK_SIZE
   Definitions
      At line 15 in file Lab8.s
   Uses
      At line 1288 in file MKL25Z128xxx4.s
Comment: SSTACK_SIZE used once
UART0ODE_MASK 00010000

Symbol: UART0ODE_MASK
   Definitions
      At line 948 in file MKL25Z128xxx4.s
   Uses
      None
Comment: UART0ODE_MASK unused
UART0RXSRC_MASK 00000004

Symbol: UART0RXSRC_MASK
   Definitions
      At line 951 in file MKL25Z128xxx4.s
   Uses
      None
Comment: UART0RXSRC_MASK unused
UART0TXSRC_MASK 00000003

Symbol: UART0TXSRC_MASK
   Definitions
      At line 952 in file MKL25Z128xxx4.s
   Uses
      None
Comment: UART0TXSRC_MASK unused
UART1CGC_MASK 00000800

Symbol: UART1CGC_MASK
   Definitions
      At line 50 in file Lab8.s
   Uses
      At line 523 in file Lab8.s
Comment: UART1CGC_MASK used once
UART1ODE_MASK 00020000

Symbol: UART1ODE_MASK
   Definitions
      At line 947 in file MKL25Z128xxx4.s
   Uses
      At line 60 in file Lab8.s
Comment: UART1ODE_MASK used once
UART1RXSRC_MASK 00000040

Symbol: UART1RXSRC_MASK
   Definitions
      At line 949 in file MKL25Z128xxx4.s
   Uses
      At line 60 in file Lab8.s
Comment: UART1RXSRC_MASK used once
UART1TXSRC_MASK 00000030




ARM Macro Assembler    Page 84 Alphabetic symbol ordering
Absolute symbols

Symbol: UART1TXSRC_MASK
   Definitions
      At line 950 in file MKL25Z128xxx4.s
   Uses
      At line 60 in file Lab8.s
Comment: UART1TXSRC_MASK used once
UART1_BASE 4006B000

Symbol: UART1_BASE
   Definitions
      At line 955 in file MKL25Z128xxx4.s
   Uses
      At line 965 in file MKL25Z128xxx4.s
      At line 966 in file MKL25Z128xxx4.s
      At line 967 in file MKL25Z128xxx4.s
      At line 968 in file MKL25Z128xxx4.s
      At line 969 in file MKL25Z128xxx4.s
      At line 970 in file MKL25Z128xxx4.s
      At line 971 in file MKL25Z128xxx4.s
      At line 972 in file MKL25Z128xxx4.s
      At line 973 in file MKL25Z128xxx4.s
      At line 429 in file Lab8.s
      At line 448 in file Lab8.s
      At line 542 in file Lab8.s

UART1_BDH 4006B000

Symbol: UART1_BDH
   Definitions
      At line 965 in file MKL25Z128xxx4.s
   Uses
      None
Comment: UART1_BDH unused
UART1_BDL 4006B001

Symbol: UART1_BDL
   Definitions
      At line 966 in file MKL25Z128xxx4.s
   Uses
      None
Comment: UART1_BDL unused
UART1_C1 4006B002

Symbol: UART1_C1
   Definitions
      At line 967 in file MKL25Z128xxx4.s
   Uses
      None
Comment: UART1_C1 unused
UART1_C2 4006B003

Symbol: UART1_C2
   Definitions
      At line 968 in file MKL25Z128xxx4.s
   Uses
      None
Comment: UART1_C2 unused
UART1_C3 4006B006




ARM Macro Assembler    Page 85 Alphabetic symbol ordering
Absolute symbols

Symbol: UART1_C3
   Definitions
      At line 971 in file MKL25Z128xxx4.s
   Uses
      None
Comment: UART1_C3 unused
UART1_C4 4006B008

Symbol: UART1_C4
   Definitions
      At line 973 in file MKL25Z128xxx4.s
   Uses
      None
Comment: UART1_C4 unused
UART1_D 4006B007

Symbol: UART1_D
   Definitions
      At line 972 in file MKL25Z128xxx4.s
   Uses
      None
Comment: UART1_D unused
UART1_EXTERN_MASK_CLEAR 00020070

Symbol: UART1_EXTERN_MASK_CLEAR
   Definitions
      At line 60 in file Lab8.s
   Uses
      At line 517 in file Lab8.s
Comment: UART1_EXTERN_MASK_CLEAR used once
UART1_S1 4006B004

Symbol: UART1_S1
   Definitions
      At line 969 in file MKL25Z128xxx4.s
   Uses
      None
Comment: UART1_S1 unused
UART1_S2 4006B005

Symbol: UART1_S2
   Definitions
      At line 970 in file MKL25Z128xxx4.s
   Uses
      None
Comment: UART1_S2 unused
UART2ODE_MASK 00040000

Symbol: UART2ODE_MASK
   Definitions
      At line 946 in file MKL25Z128xxx4.s
   Uses
      None
Comment: UART2ODE_MASK unused
UART_8N1 00000000

Symbol: UART_8N1
   Definitions
      At line 90 in file Lab8.s



ARM Macro Assembler    Page 86 Alphabetic symbol ordering
Absolute symbols

   Uses
      At line 547 in file Lab8.s
Comment: UART_8N1 used once
UART_9600H 00000000

Symbol: UART_9600H
   Definitions
      At line 71 in file Lab8.s
   Uses
      At line 543 in file Lab8.s
Comment: UART_9600H used once
UART_9600L 0000009C

Symbol: UART_9600L
   Definitions
      At line 79 in file Lab8.s
   Uses
      At line 545 in file Lab8.s
Comment: UART_9600L used once
UART_BDH_OFFSET 00000000

Symbol: UART_BDH_OFFSET
   Definitions
      At line 956 in file MKL25Z128xxx4.s
   Uses
      At line 965 in file MKL25Z128xxx4.s
      At line 544 in file Lab8.s

UART_BDL_OFFSET 00000001

Symbol: UART_BDL_OFFSET
   Definitions
      At line 957 in file MKL25Z128xxx4.s
   Uses
      At line 966 in file MKL25Z128xxx4.s
      At line 546 in file Lab8.s

UART_C1_OFFSET 00000002

Symbol: UART_C1_OFFSET
   Definitions
      At line 958 in file MKL25Z128xxx4.s
   Uses
      At line 967 in file MKL25Z128xxx4.s
      At line 549 in file Lab8.s

UART_C2_OFFSET 00000003

Symbol: UART_C2_OFFSET
   Definitions
      At line 959 in file MKL25Z128xxx4.s
   Uses
      At line 968 in file MKL25Z128xxx4.s
      At line 556 in file Lab8.s

UART_C3_OFFSET 00000006

Symbol: UART_C3_OFFSET
   Definitions



ARM Macro Assembler    Page 87 Alphabetic symbol ordering
Absolute symbols

      At line 962 in file MKL25Z128xxx4.s
   Uses
      At line 971 in file MKL25Z128xxx4.s
      At line 551 in file Lab8.s

UART_C4_OFFSET 00000008

Symbol: UART_C4_OFFSET
   Definitions
      At line 964 in file MKL25Z128xxx4.s
   Uses
      At line 973 in file MKL25Z128xxx4.s
      At line 553 in file Lab8.s

UART_D_OFFSET 00000007

Symbol: UART_D_OFFSET
   Definitions
      At line 963 in file MKL25Z128xxx4.s
   Uses
      At line 972 in file MKL25Z128xxx4.s
      At line 435 in file Lab8.s
      At line 454 in file Lab8.s

UART_FEIE_MASK 00000002

Symbol: UART_FEIE_MASK
   Definitions
      At line 1039 in file MKL25Z128xxx4.s
   Uses
      None
Comment: UART_FEIE_MASK unused
UART_FE_MASK 00000002

Symbol: UART_FE_MASK
   Definitions
      At line 1067 in file MKL25Z128xxx4.s
   Uses
      None
Comment: UART_FE_MASK unused
UART_IDLE_MASK 00000010

Symbol: UART_IDLE_MASK
   Definitions
      At line 1064 in file MKL25Z128xxx4.s
   Uses
      None
Comment: UART_IDLE_MASK unused
UART_ILIE_MASK 00000010

Symbol: UART_ILIE_MASK
   Definitions
      At line 1018 in file MKL25Z128xxx4.s
   Uses
      None
Comment: UART_ILIE_MASK unused
UART_ILT_MASK 00000004

Symbol: UART_ILT_MASK



ARM Macro Assembler    Page 88 Alphabetic symbol ordering
Absolute symbols

   Definitions
      At line 1002 in file MKL25Z128xxx4.s
   Uses
      None
Comment: UART_ILT_MASK unused
UART_LBKDIE_MASK 00000080

Symbol: UART_LBKDIE_MASK
   Definitions
      At line 980 in file MKL25Z128xxx4.s
   Uses
      None
Comment: UART_LBKDIE_MASK unused
UART_LOOPS_MASK 00000080

Symbol: UART_LOOPS_MASK
   Definitions
      At line 997 in file MKL25Z128xxx4.s
   Uses
      None
Comment: UART_LOOPS_MASK unused
UART_M_MASK 00000010

Symbol: UART_M_MASK
   Definitions
      At line 1000 in file MKL25Z128xxx4.s
   Uses
      None
Comment: UART_M_MASK unused
UART_NEIE_MASK 00000004

Symbol: UART_NEIE_MASK
   Definitions
      At line 1038 in file MKL25Z128xxx4.s
   Uses
      None
Comment: UART_NEIE_MASK unused
UART_NF_MASK 00000004

Symbol: UART_NF_MASK
   Definitions
      At line 1066 in file MKL25Z128xxx4.s
   Uses
      None
Comment: UART_NF_MASK unused
UART_NO_DMA 00000000

Symbol: UART_NO_DMA
   Definitions
      At line 121 in file Lab8.s
   Uses
      At line 552 in file Lab8.s
Comment: UART_NO_DMA used once
UART_ORIE_MASK 00000008

Symbol: UART_ORIE_MASK
   Definitions
      At line 1037 in file MKL25Z128xxx4.s
   Uses



ARM Macro Assembler    Page 89 Alphabetic symbol ordering
Absolute symbols

      None
Comment: UART_ORIE_MASK unused
UART_OR_MASK 00000008

Symbol: UART_OR_MASK
   Definitions
      At line 1065 in file MKL25Z128xxx4.s
   Uses
      None
Comment: UART_OR_MASK unused
UART_PEIE_MASK 00000001

Symbol: UART_PEIE_MASK
   Definitions
      At line 1040 in file MKL25Z128xxx4.s
   Uses
      None
Comment: UART_PEIE_MASK unused
UART_PE_MASK 00000002

Symbol: UART_PE_MASK
   Definitions
      At line 1003 in file MKL25Z128xxx4.s
   Uses
      None
Comment: UART_PE_MASK unused
UART_PF_MASK 00000001

Symbol: UART_PF_MASK
   Definitions
      At line 1068 in file MKL25Z128xxx4.s
   Uses
      None
Comment: UART_PF_MASK unused
UART_PT_MASK 00000001

Symbol: UART_PT_MASK
   Definitions
      At line 1004 in file MKL25Z128xxx4.s
   Uses
      None
Comment: UART_PT_MASK unused
UART_R8_MASK 00000080

Symbol: UART_R8_MASK
   Definitions
      At line 1033 in file MKL25Z128xxx4.s
   Uses
      None
Comment: UART_R8_MASK unused
UART_RDMAS_MASK 00000020

Symbol: UART_RDMAS_MASK
   Definitions
      At line 1050 in file MKL25Z128xxx4.s
   Uses
      None
Comment: UART_RDMAS_MASK unused
UART_RDRF_MASK 00000020



ARM Macro Assembler    Page 90 Alphabetic symbol ordering
Absolute symbols


Symbol: UART_RDRF_MASK
   Definitions
      At line 1063 in file MKL25Z128xxx4.s
   Uses
      At line 430 in file Lab8.s
Comment: UART_RDRF_MASK used once
UART_RE_MASK 00000004

Symbol: UART_RE_MASK
   Definitions
      At line 1020 in file MKL25Z128xxx4.s
   Uses
      At line 101 in file Lab8.s
Comment: UART_RE_MASK used once
UART_RIE_MASK 00000020

Symbol: UART_RIE_MASK
   Definitions
      At line 1017 in file MKL25Z128xxx4.s
   Uses
      None
Comment: UART_RIE_MASK unused
UART_RSRC_MASK 00000020

Symbol: UART_RSRC_MASK
   Definitions
      At line 999 in file MKL25Z128xxx4.s
   Uses
      None
Comment: UART_RSRC_MASK unused
UART_RWU_MASK 00000002

Symbol: UART_RWU_MASK
   Definitions
      At line 1021 in file MKL25Z128xxx4.s
   Uses
      None
Comment: UART_RWU_MASK unused
UART_RXEDGIE_MASK 00000040

Symbol: UART_RXEDGIE_MASK
   Definitions
      At line 981 in file MKL25Z128xxx4.s
   Uses
      None
Comment: UART_RXEDGIE_MASK unused
UART_S1_OFFSET 00000004

Symbol: UART_S1_OFFSET
   Definitions
      At line 960 in file MKL25Z128xxx4.s
   Uses
      At line 969 in file MKL25Z128xxx4.s
      At line 431 in file Lab8.s
      At line 450 in file Lab8.s

UART_S2_OFFSET 00000005




ARM Macro Assembler    Page 91 Alphabetic symbol ordering
Absolute symbols

Symbol: UART_S2_OFFSET
   Definitions
      At line 961 in file MKL25Z128xxx4.s
   Uses
      At line 970 in file MKL25Z128xxx4.s
Comment: UART_S2_OFFSET used once
UART_SBK_MASK 00000001

Symbol: UART_SBK_MASK
   Definitions
      At line 1022 in file MKL25Z128xxx4.s
   Uses
      None
Comment: UART_SBK_MASK unused
UART_SBNS_MASK 00000020

Symbol: UART_SBNS_MASK
   Definitions
      At line 982 in file MKL25Z128xxx4.s
   Uses
      None
Comment: UART_SBNS_MASK unused
UART_SBR_12_0_MASK 0000001F

Symbol: UART_SBR_12_0_MASK
   Definitions
      At line 983 in file MKL25Z128xxx4.s
   Uses
      None
Comment: UART_SBR_12_0_MASK unused
UART_T8_MASK 00000040

Symbol: UART_T8_MASK
   Definitions
      At line 1034 in file MKL25Z128xxx4.s
   Uses
      None
Comment: UART_T8_MASK unused
UART_TCIE_MASK 00000040

Symbol: UART_TCIE_MASK
   Definitions
      At line 1016 in file MKL25Z128xxx4.s
   Uses
      None
Comment: UART_TCIE_MASK unused
UART_TC_MASK 00000040

Symbol: UART_TC_MASK
   Definitions
      At line 1062 in file MKL25Z128xxx4.s
   Uses
      None
Comment: UART_TC_MASK unused
UART_TDMAS_MASK 00000080

Symbol: UART_TDMAS_MASK
   Definitions
      At line 1049 in file MKL25Z128xxx4.s



ARM Macro Assembler    Page 92 Alphabetic symbol ordering
Absolute symbols

   Uses
      None
Comment: UART_TDMAS_MASK unused
UART_TDRE_MASK 00000080

Symbol: UART_TDRE_MASK
   Definitions
      At line 1061 in file MKL25Z128xxx4.s
   Uses
      At line 449 in file Lab8.s
Comment: UART_TDRE_MASK used once
UART_TE_MASK 00000008

Symbol: UART_TE_MASK
   Definitions
      At line 1019 in file MKL25Z128xxx4.s
   Uses
      At line 101 in file Lab8.s
Comment: UART_TE_MASK used once
UART_TIE_MASK 00000080

Symbol: UART_TIE_MASK
   Definitions
      At line 1015 in file MKL25Z128xxx4.s
   Uses
      None
Comment: UART_TIE_MASK unused
UART_TXDIR_MASK 00000020

Symbol: UART_TXDIR_MASK
   Definitions
      At line 1035 in file MKL25Z128xxx4.s
   Uses
      None
Comment: UART_TXDIR_MASK unused
UART_TXINV_MASK 00000010

Symbol: UART_TXINV_MASK
   Definitions
      At line 1036 in file MKL25Z128xxx4.s
   Uses
      None
Comment: UART_TXINV_MASK unused
UART_TX_NOT_INVERTED 00000000

Symbol: UART_TX_NOT_INVERTED
   Definitions
      At line 112 in file Lab8.s
   Uses
      At line 550 in file Lab8.s
Comment: UART_TX_NOT_INVERTED used once
UART_T_R 0000000C

Symbol: UART_T_R
   Definitions
      At line 101 in file Lab8.s
   Uses
      At line 555 in file Lab8.s
Comment: UART_T_R used once



ARM Macro Assembler    Page 93 Alphabetic symbol ordering
Absolute symbols

UART_UARTSWAI_MASK 00000040

Symbol: UART_UARTSWAI_MASK
   Definitions
      At line 998 in file MKL25Z128xxx4.s
   Uses
      None
Comment: UART_UARTSWAI_MASK unused
UART_WAKE_MASK 00000008

Symbol: UART_WAKE_MASK
   Definitions
      At line 1001 in file MKL25Z128xxx4.s
   Uses
      None
Comment: UART_WAKE_MASK unused
VECTOR_SIZE 00000004

Symbol: VECTOR_SIZE
   Definitions
      At line 30 in file MKL25Z128xxx4.s
   Uses
      At line 1077 in file MKL25Z128xxx4.s
Comment: VECTOR_SIZE used once
VECTOR_TABLE_SIZE 000000C0

Symbol: VECTOR_TABLE_SIZE
   Definitions
      At line 29 in file MKL25Z128xxx4.s
   Uses
      At line 1077 in file MKL25Z128xxx4.s
Comment: VECTOR_TABLE_SIZE used once
WORD_SIZE 00000004

Symbol: WORD_SIZE
   Definitions
      At line 21 in file MKL25Z128xxx4.s
   Uses
      None
Comment: WORD_SIZE unused
640 symbols
1058 symbols in table
