


ARM Macro Assembler    Page 1 String Operations


    1 00000000                 TTL              String Operations
    2 00000000         ;*******************************************************
                       ********
    3 00000000         ;Descriptive comment header goes here.
    4 00000000         ;(What does the program do?)
    5 00000000         ;Name:  <Your name here>
    6 00000000         ;Date:  <Date completed here>
    7 00000000         ;Class:  CMPE-250
    8 00000000         ;Section:  <Your lab section, day, and time here>
    9 00000000         ;-------------------------------------------------------
                       --------
   10 00000000         ;Template:  R. W. Melton, March 1, 2014
   11 00000000         ;*******************************************************
                       ********
   12 00000000         ;Assembler directives
   13 00000000                 THUMB
   15 00000000 00000100 
                       SSTACK_SIZE
                               EQU              0x00000100  ;required for MKL25
                                                            Z128xxx4.s
   16 00000000         ;*******************************************************
                       ********
   17 00000000         ;Include files
   18 00000000         ;  MK25Z128xxx4.s
   19 00000000                 GET              MKL25Z128xxx4.s
   21 00000100         ;*******************************************************
                       ********
   22 00000100         ;EQUates
   23 00000100         
   24 00000100 0000004F 
                       MAX_STRING
                               EQU              79
   25 00000100         
   26 00000100         ;EQUates for queue record management
   27 00000100 00000000 
                       IN_PTR  EQU              0
   28 00000100 00000004 
                       OUT_PTR EQU              4
   29 00000100 00000008 
                       BUF_STRT
                               EQU              8
   30 00000100 0000000C 
                       BUF_PAST
                               EQU              12
   31 00000100 00000010 
                       BUF_SIZE
                               EQU              16
   32 00000100 00000011 
                       NUM_ENQD
                               EQU              17
   33 00000100         
   34 00000100         ;EQUated for stucture sizes
   35 00000100 00000012 
                       Q_REC_SZ
                               EQU              18
   36 00000100 00000004 
                       Q_BUF_SZ
                               EQU              4
   37 00000100         



ARM Macro Assembler    Page 2 String Operations


   38 00000100         ;-------------------------------------------------------
                       --------
   39 00000100         ;EQUates to use UART1 for serial I/O
   40 00000100         ;PORTx_PCRn (Port x pin control register n [for pin n])
   41 00000100         ;___->10-08:Pin mux control (select 0 to 8)
   42 00000100 00000300 
                       PIN_MUX_SELECT_3
                               EQU              0x00000300
   43 00000100         ;-------------------------------------------------------
                       --------
   44 00000100         ;Port C
   45 00000100 00000300 
                       PTC3_MUX_UART1_RX
                               EQU              PIN_MUX_SELECT_3
   46 00000100 00000300 
                       PTC4_MUX_UART1_TX
                               EQU              PIN_MUX_SELECT_3
   47 00000100 01000300 
                       SET_PTC3_UART1_RX
                               EQU              (PIN_ISF_MASK :OR: PTC3_MUX_UAR
T1_RX)
   48 00000100 01000300 
                       SET_PTC4_UART1_TX
                               EQU              (PIN_ISF_MASK :OR: PTC4_MUX_UAR
T1_TX)
   49 00000100         ;-------------------------------------------------------
                       --------
   50 00000100         ;SIM_SCGC4
   51 00000100         ;1->11:UART1 clock gate control (enabled)
   52 00000100 00000800 
                       UART1CGC_MASK
                               EQU              SIM_SCGC4_UART1_MASK
   53 00000100         ;-------------------------------------------------------
                       --------
   54 00000100         ;SIM_SCGC5
   55 00000100         ;1->   11:Port C clock gate control (enabled)
   56 00000100 00000800 
                       PORTCCGC_MASK
                               EQU              SIM_SCGC5_PORTC_MASK
   57 00000100         ;-------------------------------------------------------
                       --------
   58 00000100         ;SIM_SOPT5
   59 00000100         ; 0->   17:UART1 open drain enable (disabled)
   60 00000100         ; 0->   06:UART1 receive data select (UART1_RX)
   61 00000100         ;00->05-04:UART1 transmit data select source (UART1_TX)
   62 00000100 00020070 
                       UART1_EXTERN_MASK_CLEAR
                               EQU              (UART1ODE_MASK :OR: UART1RXSRC_
MASK :OR: UART1TXSRC_MASK)
   63 00000100         ;-------------------------------------------------------
                       --------
   64 00000100         ;UARTx_BDH
   65 00000100         ;    0->  7:LIN break detect IE (disabled)
   66 00000100         ;    0->  6:RxD input active edge IE (disabled)
   67 00000100         ;    0->  5:Stop bit number select (1)
   68 00000100         ;00000->4-0:SBR[12:0] (BUSCLK / (16 x 9600))
   69 00000100         ;BUSCLK = CORECLK / 2 = PLLCLK / 4
   70 00000100         ;PLLCLK is 96 MHz
   71 00000100         ;BUSCLK is 24 MHz



ARM Macro Assembler    Page 3 String Operations


   72 00000100         ;SBR = 24 MHz / (16 x 9600) = 156.25 --> 156 = 0x009C
   73 00000100 00000000 
                       UART_9600H
                               EQU              0x00
   74 00000100         ;-------------------------------------------------------
                       --------
   75 00000100         ;UARTx_BDL
   76 00000100         ;26->7-0:SBR[7:0] (BUSCLK / 16 x 9600))
   77 00000100         ;BUSCLK = CORECLK / 2 = PLLCLK / 4
   78 00000100         ;PLLCLK is 96 MHz
   79 00000100         ;BUSCLK is 24 MHz
   80 00000100         ;SBR = 24 MHz / (16 x 9600) = 156.25 --> 0x9C
   81 00000100 0000009C 
                       UART_9600L
                               EQU              0x9C
   82 00000100         ;-------------------------------------------------------
                       --------
   83 00000100         ;UARTx_C1
   84 00000100         ;0-->7:LOOPS=loops select (normal)
   85 00000100         ;0-->6:UARTSWAI=UART stop in wait mode (disabled)
   86 00000100         ;0-->5:RSRC=receiver source select (internal--no effect 
                       LOOPS=0)
   87 00000100         ;0-->4:M=9- or 8-bit mode select (1 start, 8 data [lsb f
                       irst], 1 stop)
   88 00000100         ;0-->3:WAKE=receiver wakeup method select (idle)
   89 00000100         ;0-->2:IDLE=idle line type select (idle begins after sta
                       rt bit)
   90 00000100         ;0-->1:PE=parity enable (disabled)
   91 00000100         ;0-->0:PT=parity type (even parity--no effect PE=0)
   92 00000100 00000000 
                       UART_8N1
                               EQU              0x00
   93 00000100         ;-------------------------------------------------------
                       --------
   94 00000100         ;UARTx_C2
   95 00000100         ;0-->7:TIE=transmit IE for TDRE (disabled)
   96 00000100         ;0-->6:TCIE=trasmission complete IE for TC (disabled)
   97 00000100         ;0-->5:RIE=receiver IE for RDRF (disabled)
   98 00000100         ;0-->4:ILIE=idle line IE for IDLE (disabled)
   99 00000100         ;1-->3:TE=transmitter enable (enabled)
  100 00000100         ;1-->2:RE=receiver enable (enabled)
  101 00000100         ;0-->1:RWU=receiver wakeup control (normal)
  102 00000100         ;0-->0:SBK=send break (disabled, normal)
  103 00000100 0000000C 
                       UART_T_R
                               EQU              (UART_TE_MASK :OR: UART_RE_MASK
)
  104 00000100         ;-------------------------------------------------------
                       --------
  105 00000100         ;UARTx_C3
  106 00000100         ;0-->7:R8=9th data bit for receiver (not used M=0)
  107 00000100         ;0-->6:T8=9th data bit for transmitter (not used M=0)
  108 00000100         ;0-->5:TXDIR=TxD pin direction in single-wire mode (no e
                       ffect LOOPS=0)
  109 00000100         ;0-->4:TXINV=transmit data inversion (not invereted)
  110 00000100         ;0-->3:ORIE=overrun IE for OR (disabled)
  111 00000100         ;0-->2:NEIE=noise error IE for NF (disabled)
  112 00000100         ;0-->1:FEIE=framing error IE for FE (disabled)
  113 00000100         ;0-->0:PEIE=parity error IE for PF (disabled)



ARM Macro Assembler    Page 4 String Operations


  114 00000100 00000000 
                       UART_TX_NOT_INVERTED
                               EQU              0x00
  115 00000100         ;-------------------------------------------------------
                       --------
  116 00000100         ;UARTx_C4
  117 00000100         ;0-->  7:TDMAS=transmitter DMA select (disabled)
  118 00000100         ;0-->  6:Reserved; read-only; always 0
  119 00000100         ;0-->  5:RDMAS=receiver full DMA select (disabled)
  120 00000100         ;0-->  4:Reserved; read-only; always 0
  121 00000100         ;0-->  3:Reserved; read-only; always 0
  122 00000100         ;0-->2-0:Reserved; read-only; always 0
  123 00000100 00000000 
                       UART_NO_DMA
                               EQU              0x00
  124 00000100         ;*******************************************************
                       ***************
  125 00000100         ;Program
  126 00000100         ;Linker requires Reset_Handler
  127 00000100                 AREA             MyCode,CODE,READONLY
  128 00000000                 ENTRY
  129 00000000                 EXPORT           Reset_Handler
  130 00000000         Reset_Handler
  131 00000000         main
  132 00000000         ;-------------------------------------------------------
                       --------
  133 00000000         ;begin program code
  134 00000000 F7FF FFFE       BL               SystemInit
  135 00000004         ;Mask interrupts
  136 00000004 B672            CPSID            I
  137 00000006         ;Configure 48-MHz system clock
  138 00000006 F7FF FFFE       BL               SetClock48MHz
  139 0000000A         ;-------------------------------------------------------
                       --------
  140 0000000A         ;begin program code
  141 0000000A         
  142 0000000A         ;Set up UART and initail string
  143 0000000A F000 F8FF       BL               UART1__Init
  144 0000000E 48AB            LDR              R0, =InitString
  145 00000010 49AB            LDR              R1, =OpString
  146 00000012 F000 F8BA       BL               CopyString
  147 00000016         
  148 00000016 48AB    Main    LDR              R0, =TypePrmp ;Prompt user for 
                                                            command
  149 00000018 F000 F88F       BL               PutString   ;and wait for input
                                                            
  150 0000001C F000 F87B       BL               GetChar
  151 00000020 F000 F882       BL               PutChar
  152 00000024         ;Compair with known commands and call 
  153 00000024         ;correct subroutine/function
  154 00000024 280D            CMP              R0, #0x0D
  155 00000026 D103            BNE              Command
  156 00000028 48A7            LDR              R0, =NewLinePrmp
  157 0000002A F000 F886       BL               PutString
  158 0000002E E7F2            B                Main
  159 00000030         ;Check the characters case, convert to uppercase
  160 00000030         ;if needed
  161 00000030 2861    Command CMP              R0, #'a'
  162 00000032 D300            BLO              CorrectCase



ARM Macro Assembler    Page 5 String Operations


  163 00000034 3820    FixCase SUBS             R0, R0, #0x20
  164 00000036 2843    CorrectCase
                               CMP              R0, #'C'
  165 00000038 D00B            BEQ              Compare
  166 0000003A 2847            CMP              R0, #'G'
  167 0000003C D025            BEQ              GetOPS
  168 0000003E 2850            CMP              R0, #'P'
  169 00000040 D02D            BEQ              Print
  170 00000042 2852            CMP              R0, #'R'
  171 00000044 D035            BEQ              Reverse
  172 00000046 2853            CMP              R0, #'S'
  173 00000048 D041            BEQ              Search
  174 0000004A         ;If command not listed print error and loop back
  175 0000004A 48A0            LDR              R0, =InvalidPrmp
  176 0000004C F000 F875       BL               PutString
  177 00000050 E7E1            B                Main
  178 00000052         
  179 00000052         ;*******************************************************
                       *******
  180 00000052         ;Prompts for string, then tests if the string is the sam
                       e 
  181 00000052         ;length as the stored string
  182 00000052         ;No inputs
  183 00000052         ;No outputs
  184 00000052         ;Modifyes R0-R2, PSR
  185 00000052         ;*******************************************************
                       *******
  186 00000052         Compare                              ;Prompt user
  187 00000052 489D            LDR              R0, =NewLinePrmp
  188 00000054 F000 F871       BL               PutString
  189 00000058 489D            LDR              R0, =CompPrmp
  190 0000005A F000 F86E       BL               PutString
  191 0000005E         ;When retriving the entered string, move into
  192 0000005E         ;a temp string location
  193 0000005E 489D            LDR              R0, =TempString
  194 00000060 F000 F875       BL               GetString
  195 00000064         ;Get length of both strings
  196 00000064 F000 F888       BL               StringLen
  197 00000068 000A            MOVS             R2, R1
  198 0000006A 4895            LDR              R0, =OpString
  199 0000006C F000 F884       BL               StringLen
  200 00000070 4895            LDR              R0, =NewLinePrmp
  201 00000072 F000 F862       BL               PutString
  202 00000076         ;Compares lengths, prints reasponse string accordingly
  203 00000076 428A            CMP              R2, R1
  204 00000078 D003            BEQ              EqualLen
  205 0000007A 4897            LDR              R0, =DiffLenPrmp
  206 0000007C F000 F85D       BL               PutString
  207 00000080 E7C9            B                Main
  208 00000082 4896    EqualLen
                               LDR              R0, =SameLenPrmp
  209 00000084 F000 F859       BL               PutString
  210 00000088 E7C5            B                Main
  211 0000008A         
  212 0000008A         ;*******************************************************
                       *******
  213 0000008A         ;Prompts user for new string to be stored and used when 
                       other
  214 0000008A         ;operations are called



ARM Macro Assembler    Page 6 String Operations


  215 0000008A         ;No inputs
  216 0000008A         ;No outputs
  217 0000008A         ;Modifyes R0
  218 0000008A         ;*******************************************************
                       *******
  219 0000008A 488F    GetOPS  LDR              R0, =NewLinePrmp
  220 0000008C F000 F855       BL               PutString
  221 00000090 488B            LDR              R0, =OpString
  222 00000092 F000 F85C       BL               GetString
  223 00000096 488C            LDR              R0, =NewLinePrmp
  224 00000098 F000 F84F       BL               PutString
  225 0000009C E7BB            B                Main
  226 0000009E         
  227 0000009E         ;*******************************************************
                       *******
  228 0000009E         ;Prints out stored string that is being used for operati
                       ons
  229 0000009E         ;No inputs
  230 0000009E         ;No outputs
  231 0000009E         ;Modifyes R0
  232 0000009E         ;*******************************************************
                       *******
  233 0000009E 488A    Print   LDR              R0, =NewLinePrmp
  234 000000A0 F000 F84B       BL               PutString
  235 000000A4 4886            LDR              R0, =OpString
  236 000000A6 F000 F848       BL               PutString
  237 000000AA 4887            LDR              R0, =NewLinePrmp
  238 000000AC F000 F845       BL               PutString
  239 000000B0 E7B1            B                Main
  240 000000B2         
  241 000000B2         ;*******************************************************
                       *******
  242 000000B2         ;Prints out the reverse of the string stored for operati
                       ons
  243 000000B2         ;No inputs
  244 000000B2         ;No outputs
  245 000000B2         ;Modifyes R0
  246 000000B2         ;*******************************************************
                       *******
  247 000000B2 4885    Reverse LDR              R0, =NewLinePrmp
  248 000000B4 F000 F841       BL               PutString
  249 000000B8 4881            LDR              R0, =OpString
  250 000000BA 4986            LDR              R1, =TempString
  251 000000BC F000 F86F       BL               RevString
  252 000000C0 4884            LDR              R0, =TempString
  253 000000C2 F000 F83A       BL               PutString
  254 000000C6 4880            LDR              R0, =NewLinePrmp
  255 000000C8 F000 F837       BL               PutString
  256 000000CC E7A3            B                Main
  257 000000CE         
  258 000000CE         ;*******************************************************
                       *******
  259 000000CE         ;Searchs the string in memory for the string typed by th
                       e user
  260 000000CE         ;into the prompt provided
  261 000000CE         ;No inputs
  262 000000CE         ;No outputs
  263 000000CE         ;Modifyes R0-R3
  264 000000CE         ;*******************************************************



ARM Macro Assembler    Page 7 String Operations


                       *******
  265 000000CE         ;R0: cur character
  266 000000CE         ;R1: OpString location
  267 000000CE         ;R2: Postion - SearchS return
  268 000000CE         ;R3: Location of temp String(searching for)
  269 000000CE 487E    Search  LDR              R0, =NewLinePrmp
  270 000000D0 F000 F833       BL               PutString
  271 000000D4 487F            LDR              R0, =TempString
  272 000000D6 0003            MOVS             R3, R0
  273 000000D8 F000 F839       BL               GetString
  274 000000DC 4978            LDR              R1, =OpString
  275 000000DE         ;Load character from source and check for null
  276 000000DE 7808    looking LDRB             R0, [R1, #0]
  277 000000E0 2800            CMP              R0, #0x00
  278 000000E2         ;If null string not found
  279 000000E2 D011            BEQ              NoIn
  280 000000E4         ;Load character from search string and check for null
  281 000000E4 7818            LDRB             R0, [R3, #0]
  282 000000E6         ;If null string found
  283 000000E6 2800            CMP              R0, #0x00
  284 000000E8 D007            BEQ              IsIn
  285 000000EA         ;Get position of character in string
  286 000000EA         ;If position is zero string not found
  287 000000EA         ;Else increment index of search string
  288 000000EA         ;and change source memory location to contain
  289 000000EA         ;the charcters after the character just found
  290 000000EA F000 F868       BL               SearchS
  291 000000EE 2A00            CMP              R2, #0
  292 000000F0 D00A            BEQ              NoIn
  293 000000F2 3A01            SUBS             R2, #1
  294 000000F4 1889            ADDS             R1, R2
  295 000000F6 3301            ADDS             R3, #1
  296 000000F8 E7F1            B                looking
  297 000000FA         
  298 000000FA         ;Printing routines
  299 000000FA 4873    IsIn    LDR              R0, =NewLinePrmp
  300 000000FC F000 F81D       BL               PutString
  301 00000100 4877            LDR              R0, =FoundPrmp
  302 00000102 F000 F81A       BL               PutString
  303 00000106 E786            B                Main
  304 00000108 486F    NoIn    LDR              R0, =NewLinePrmp
  305 0000010A F000 F816       BL               PutString
  306 0000010E 4875            LDR              R0, =NotFoundPrmp
  307 00000110 F000 F813       BL               PutString
  308 00000114 E77F            B                Main
  309 00000116         
  310 00000116         ;Subroutines
  311 00000116         ;*******************************************************
                       *******
  312 00000116         ;Polls UART1 untill character can be read, then
  313 00000116         ;places the character in R0
  314 00000116         ;Input: None
  315 00000116         ;Output: R0: charater read
  316 00000116         ;Modify: R0, PSR
  317 00000116         ;*******************************************************
                       ******* 
  318 00000116         GetChar                              ;Wait for RDRF
  319 00000116 B40E            PUSH             {R1-R3}
  320 00000118 4986            LDR              R1, =UART1_BASE



ARM Macro Assembler    Page 8 String Operations


  321 0000011A 2220            MOVS             R2, #UART_RDRF_MASK
  322 0000011C 790B    PollRx  LDRB             R3, [R1,#UART_S1_OFFSET]
  323 0000011E 4013            ANDS             R3,R3,R2
  324 00000120 D0FC            BEQ              PollRx
  325 00000122         ;Receive
  326 00000122 79C8            LDRB             R0, [R1,#UART_D_OFFSET]
  327 00000124 BC0E            POP              {R1-R3}
  328 00000126 4770            BX               LR
  329 00000128         
  330 00000128         ;*******************************************************
                       *******
  331 00000128         ;Transmits a character using the UART1 module
  332 00000128         ;Input: R1: pointer to array of signed words
  333 00000128         ;       R2: word value of number of elements in array
  334 00000128         ;Output: R0: number of non-zero elements in array
  335 00000128         ;Modify: R0, PSR
  336 00000128         ;*******************************************************
                       ******* 
  337 00000128         PutChar                              ;Wait for TDRE
  338 00000128 B40E            PUSH             {R1-R3}
  339 0000012A 4982            LDR              R1, =UART1_BASE
  340 0000012C 2280            MOVS             R2, #UART_TDRE_MASK
  341 0000012E 790B    PollTx  LDRB             R3, [R1,#UART_S1_OFFSET]
  342 00000130 4013            ANDS             R3,R3,R2
  343 00000132 D0FC            BEQ              PollTx
  344 00000134         ;Send
  345 00000134 71C8            STRB             R0, [R1,#UART_D_OFFSET]
  346 00000136 BC0E            POP              {R1-R3}
  347 00000138 4770            BX               LR
  348 0000013A         
  349 0000013A         ;*******************************************************
                       *******
  350 0000013A         ;Displays a null-terinated string from memory starting
  351 0000013A         ;at the address in R0 to the terminal.
  352 0000013A         ;Input: R0: base memory location
  353 0000013A         ;Output: None
  354 0000013A         ;Modify: PSR
  355 0000013A         ;*******************************************************
                       ******* 
  356 0000013A         ;R0: Char to put
  357 0000013A         ;R1: Current memory address
  358 0000013A B503    PutString
                               PUSH             {R0-R1,LR}
  359 0000013C 0001            MOVS             R1, R0
  360 0000013E 7808    NextCharP
                               LDRB             R0, [R1, #0]
  361 00000140 3101            ADDS             R1, #0x01
  362 00000142 2800            CMP              R0, #0x00
  363 00000144 D002            BEQ              Terminate
  364 00000146 F7FF FFEF       BL               PutChar
  365 0000014A E7F8            B                NextCharP
  366 0000014C BD03    Terminate
                               POP              {R0-R1,PC}
  367 0000014E         
  368 0000014E         ;*******************************************************
                       *******
  369 0000014E         ;Reads a string from the terminal keyboard to to memory
  370 0000014E         ;starting at the adress in R0 and adds null termination
  371 0000014E         ;Accepts charaters typed in terminal until carrige retur



ARM Macro Assembler    Page 9 String Operations


                       n is 
  372 0000014E         ;found, or until MAX_STRING-1
  373 0000014E         ;Input: R0: base memory location to store string
  374 0000014E         ;Output: String stored to adress in R0
  375 0000014E         ;Modify: PSR, RAM
  376 0000014E         ;*******************************************************
                       ******* 
  377 0000014E         ;Regester contents
  378 0000014E         ;R0: getChar output
  379 0000014E         ;R1: Current memory address
  380 0000014E         ;R2: Counter to restrict string lenght to MAX_STRING
  381 0000014E B507    GetString
                               PUSH             {R0-R2,LR}
  382 00000150 0001            MOVS             R1, R0
  383 00000152 2200            MOVS             R2, #0
  384 00000154 2A4E    NextCharS
                               CMP              R2, #MAX_STRING-1
  385 00000156 D008            BEQ              Max_Len
  386 00000158 F7FF FFDD       BL               GetChar
  387 0000015C F7FF FFE4       BL               PutChar
  388 00000160 280D            CMP              R0, #0x0D
  389 00000162 D006            BEQ              CarReturn
  390 00000164 5488            STRB             R0,[R1,R2]
  391 00000166 3201            ADDS             R2, #1
  392 00000168 E7F4            B                NextCharS
  393 0000016A         
  394 0000016A F7FF FFD4 
                       Max_Len BL               GetChar
  395 0000016E 280D            CMP              R0, #0x0D
  396 00000170 D1FB            BNE              Max_Len
  397 00000172         
  398 00000172 2000    CarReturn
                               MOVS             R0, #0x00
  399 00000174 5488            STRB             R0,[R1,R2]
  400 00000176 BD07            POP              {R0-R2,PC}
  401 00000178         
  402 00000178         ;*******************************************************
                       *******
  403 00000178         ;Determines how many characters are in the null terminat
                       ed 
  404 00000178         ;string in memory starting at the address in R0, and ret
                       urns 
  405 00000178         ;that number in R1
  406 00000178         ;Input: R0: base memory location
  407 00000178         ;Output: R1: Number of charaters in string
  408 00000178         ;Modify: R1
  409 00000178         ;*******************************************************
                       ******* 
  410 00000178 B405    StringLen
                               PUSH             {R0,R2}
  411 0000017A 2100            MOVS             R1, #0
  412 0000017C 5C42    Count   LDRB             R2, [R0, R1]
  413 0000017E 2A00            CMP              R2, #0x00
  414 00000180 D001            BEQ              endString
  415 00000182 3101            ADDS             R1, #1
  416 00000184 E7FA            B                Count
  417 00000186 BC05    endString
                               POP              {R0,R2}
  418 00000188 4770            BX               LR



ARM Macro Assembler    Page 10 String Operations


  419 0000018A         
  420 0000018A         ;*******************************************************
                       *******
  421 0000018A         ;CopyString
  422 0000018A         ;Creates a null terminated string in memory starting at 
                       the
  423 0000018A         ;address in R1 by copying the characters from a null 
  424 0000018A         ;terminated string in from memory starting at address in
                        R0
  425 0000018A         ;Input: R0: source string memory location
  426 0000018A         ;  R1: destination string memory location
  427 0000018A         ;Modify: PSR
  428 0000018A         ;*******************************************************
                       *******
  429 0000018A         ;R0: Source memory location
  430 0000018A         ;R1: Dest memory location
  431 0000018A         ;R2: Character moving
  432 0000018A         ;R3: Index
  433 0000018A B40C    CopyString
                               PUSH             {R2-R3}
  434 0000018C 2300            MOVS             R3, #0
  435 0000018E 5CC2    Copying LDRB             R2, [R0, R3]
  436 00000190 54CA            STRB             R2, [R1, R3]
  437 00000192 3301            ADDS             R3, #1
  438 00000194 2A00            CMP              R2, #0x00
  439 00000196 D000            BEQ              DoneCopy
  440 00000198 E7F9            B                Copying
  441 0000019A BC0C    DoneCopy
                               POP              {R2-R3}
  442 0000019C 4770            BX               LR
  443 0000019E         
  444 0000019E         ;*******************************************************
                       *******
  445 0000019E         ;Reverse String
  446 0000019E         ;Creates a null terminated string in memory starting at 
                       the
  447 0000019E         ;address in R1 by reversing the characters from a null 
  448 0000019E         ;terminated string in from memory starting at address in
                        R0
  449 0000019E         ;Input: R0: source string memory location
  450 0000019E         ;  R1: destination string memory location
  451 0000019E         ;Modify: PSR
  452 0000019E         ;*******************************************************
                       *******
  453 0000019E         ;R0: Source memory location
  454 0000019E         ;R1: String index for source
  455 0000019E         ;R2: Dest memory location
  456 0000019E         ;R3: String index for Dest
  457 0000019E         ;R4: Character moving
  458 0000019E B51E    RevString
                               PUSH{R1-R4,      LR}
  459 000001A0 000A            MOVS             R2, R1
  460 000001A2 2300            MOVS             R3, #0
  461 000001A4 F7FF FFE8       BL               StringLen
  462 000001A8 2400            MOVS             R4, #0x00
  463 000001AA 5454            STRB             R4, [R2, R1]
  464 000001AC 3901            SUBS             R1, #1
  465 000001AE 2900    ReverseS
                               CMP              R1, #0



ARM Macro Assembler    Page 11 String Operations


  466 000001B0 DB04            BLT              DoneRev
  467 000001B2 5C44            LDRB             R4, [R0, R1]
  468 000001B4 54D4            STRB             R4, [R2, R3]
  469 000001B6 3901            SUBS             R1, #1
  470 000001B8 3301            ADDS             R3, #1
  471 000001BA E7F8            B                ReverseS
  472 000001BC BD1E    DoneRev POP{R1-R4,       PC}
  473 000001BE         
  474 000001BE         ;*******************************************************
                       *******
  475 000001BE         ;SearchString
  476 000001BE         ;Searchs the null terminated string in memory starting a
                       t the 
  477 000001BE         ;address in R1 for the character in R0. If that characte
                       r is
  478 000001BE         ;present in the string, on return the value in R2 will b
                       e the
  479 000001BE         ;position in the string.
  480 000001BE         ;Input: R0: search character
  481 000001BE         ;  R1: string to search memory location
  482 000001BE         ;Output:R2: position in string
  483 000001BE         ;Modify: R2, PSR
  484 000001BE         ;*******************************************************
                       *******
  485 000001BE         ;R0: search character
  486 000001BE         ;R1: string to search memory location
  487 000001BE         ;R2: position in string - output
  488 000001BE         ;R3: Character
  489 000001BE B408    SearchS PUSH{R3}
  490 000001C0 2200            MOVS             R2, #0
  491 000001C2 5C8B    SearchCon
                               LDRB             R3, [R1, R2]
  492 000001C4 4298            CMP              R0, R3
  493 000001C6 D006            BEQ              Found
  494 000001C8 2B00            CMP              R3, #0
  495 000001CA D001            BEQ              NotFound
  496 000001CC 3201            ADDS             R2, #1
  497 000001CE E7F8            B                SearchCon
  498 000001D0 2200    NotFound
                               MOVS             R2, #0
  499 000001D2 BC08            POP              {R3}
  500 000001D4 4770            BX               LR
  501 000001D6 3201    Found   ADDS             R2, #1
  502 000001D8 BC08            POP              {R3}
  503 000001DA 4770            BX               LR
  504 000001DC         
  505 000001DC         ;*******************************************************
                       *******
  506 000001DC         ;Division Subroutine
  507 000001DC         ;Input: R0: divisor 
  508 000001DC         ;       R1: dividend
  509 000001DC         ;Output:R0: integer result
  510 000001DC         ;  R1: Remainder
  511 000001DC         ;Modify:R0,R1 PSR
  512 000001DC         ;*******************************************************
                       ******* 
  513 000001DC 2800    DIVU    CMP              R0, #0      ;Check if dividing 
                                                            by zero
  514 000001DE D009            BEQ              DivByZero   ;Branch if dividing



ARM Macro Assembler    Page 12 String Operations


                                                             by zero
  515 000001E0         
  516 000001E0 B404    startDiv
                               PUSH             {R2}        ;Push register on s
                                                            tack to be restore 
                                                            it later
  517 000001E2 2200            MOVS             R2, #0      ;Set R2 to 0, will 
                                                            be used as integer 
                                                            result
  518 000001E4         
  519 000001E4 4281    Dividing
                               CMP              R1, R0      ;Check if demoninat
                                                            or is bigger then n
                                                            umberator
  520 000001E6 D302            BLO              DoneDiv     ;Branch to finish i
                                                            f above is true
  521 000001E8 1A09            SUBS             R1, R0      ;Subtract demoninat
                                                            or from numerator
  522 000001EA 3201            ADDS             R2, #1      ;Add one to result
  523 000001EC E7FA            B                Dividing    ;Continue dividing 
                                                            if above is false
  524 000001EE         
  525 000001EE 4610    DoneDiv MOV              R0, R2      ;Move result in cor
                                                            rect register
  526 000001F0 BC04            POP              {R2}        ;Restore data in R2
                                                             from the stack
  527 000001F2 4770            BX               LR          ;Return from call
  528 000001F4         
  529 000001F4 B401    DivByZero
                               PUSH             {R0}        ;Push register onto
                                                             stack to restore l
                                                            ater
  530 000001F6 B402            PUSH             {R1}        ;Push register onto
                                                             stack to restore l
                                                            ater
  531 000001F8 F3EF 8000       MRS              R0, APSR    ;Move the APSR into
                                                             R0
  532 000001FC 2120            MOVS             R1, #0x20   ;Change the flags 
  533 000001FE 0609            LSLS             R1, R1, #24 ;Shift into correct
                                                             position
  534 00000200 4308            ORRS             R0, R1
  535 00000202 F380 8800       MSR              APSR, R0    ;Write the represen
                                                            tation of the flags
                                                             into the APSR
  536 00000206 BC02            POP              {R1}        ;Restore R1 from st
                                                            ack
  537 00000208 BC01            POP              {R0}        ;Restore R2 form st
                                                            ack
  538 0000020A 4770            BX               LR          ;Return from call
  539 0000020C         
  540 0000020C         ;*******************************************************
                       *******
  541 0000020C         ;Configure and initalize UART1 model for commincation
  542 0000020C         ;*******************************************************
                       ******* 
  543 0000020C         UART1__Init                          ;External Comms
  544 0000020C 484A            LDR              R0, =SIM_SOPT5
  545 0000020E 494B            LDR              R1, =UART1_EXTERN_MASK_CLEAR
  546 00000210 6802            LDR              R2,[R0,#0]



ARM Macro Assembler    Page 13 String Operations


  547 00000212 438A            BICS             R2,R2,R1
  548 00000214 6002            STR              R2,[R0,#0]
  549 00000216         ;Clock UART1 enable
  550 00000216 484A            LDR              R0, =SIM_SCGC4
  551 00000218 494A            LDR              R1, =UART1CGC_MASK
  552 0000021A 6802            LDR              R2,[R0,#0]
  553 0000021C 430A            ORRS             R2,R2,R1
  554 0000021E 6002            STR              R2,[R0,#0]
  555 00000220         ;Clock PortC enable
  556 00000220 4849            LDR              R0, =SIM_SCGC5
  557 00000222 4948            LDR              R1, =PORTCCGC_MASK
  558 00000224 6802            LDR              R2, [R0,#0]
  559 00000226 430A            ORRS             R2,R2,R1
  560 00000228 6002            STR              R2,[R0,#0]
  561 0000022A         ;UART1 Rx to PCT3
  562 0000022A 4848            LDR              R0, =PORTC_PCR3
  563 0000022C 4948            LDR              R1, =SET_PTC3_UART1_RX
  564 0000022E 6001            STR              R1, [R0,#0]
  565 00000230         ;UART Tc to PCT4
  566 00000230 4848            LDR              R0, =PORTC_PCR4
  567 00000232 4947            LDR              R1, =SET_PTC4_UART1_TX
  568 00000234 6001            STR              R1, [R0,#0]
  569 00000236         ;Load buad rate
  570 00000236 483F            LDR              R0, =UART1_BASE
  571 00000238 2100            MOVS             R1, #UART_9600H
  572 0000023A 7001            STRB             R1, [R0, #UART_BDH_OFFSET]
  573 0000023C 219C            MOVS             R1, #UART_9600L
  574 0000023E 7041            STRB             R1, [R0, #UART_BDL_OFFSET]
  575 00000240 2100            MOVS             R1, #UART_8N1
  576 00000242         ;Set control registers
  577 00000242 7081            STRB             R1, [R0, #UART_C1_OFFSET]
  578 00000244 2100            MOVS             R1, #UART_TX_NOT_INVERTED
  579 00000246 7181            STRB             R1, [R0, #UART_C3_OFFSET]
  580 00000248 2100            MOVS             R1, #UART_NO_DMA
  581 0000024A 7201            STRB             R1, [R0, #UART_C4_OFFSET]
  582 0000024C         ;Turn on
  583 0000024C 210C            MOVS             R1, #UART_T_R
  584 0000024E 70C1            STRB             R1, [R0, #UART_C2_OFFSET]
  585 00000250 4770            BX               LR
  586 00000252         
  587 00000252         ;*******************************************************
                       ***************
  588 00000252         ;Begin machine code provided for Lab Exercise Eight
  589 00000252         ;Place at bottom of MyCode section before ";end program 
                       code"
  590 00000252         ;comment in provided template so that "ALIGN" directive 
                       and 
  591 00000252         ;"__EndMyCode" label follow this code block.
  592 00000252         ;*******************************************************
                       ***************
  593 00000252 00 00           ALIGN
  594 00000254 B53E    PutNumHex
                               DCI              0xB53E
  595 00000256 4601            DCI              0x4601
  596 00000258 4D17            DCI              0x4D17
  597 0000025A 2030            DCI              0x2030
  598 0000025C 47A8            DCI              0x47A8
  599 0000025E 2078            DCI              0x2078
  600 00000260 47A8            DCI              0x47A8



ARM Macro Assembler    Page 14 String Operations


  601 00000262 2208            DCI              0x2208
  602 00000264 231C            DCI              0x231C
  603 00000266 240F            DCI              0x240F
  604 00000268 41D9            DCI              0x41D9
  605 0000026A 4608            DCI              0x4608
  606 0000026C 4020            DCI              0x4020
  607 0000026E 3030            DCI              0x3030
  608 00000270 2839            DCI              0x2839
  609 00000272 D901            DCI              0xD901
  610 00000274 3041            DCI              0x3041
  611 00000276 383A            DCI              0x383A
  612 00000278 47A8            DCI              0x47A8
  613 0000027A 1E52            DCI              0x1E52
  614 0000027C D1F4            DCI              0xD1F4
  615 0000027E 4608            DCI              0x4608
  616 00000280 BD3E            DCI              0xBD3E
  617 00000282 B507    PutNumU DCI              0xB507
  618 00000284 2100            DCI              0x2100
  619 00000286 B402            DCI              0xB402
  620 00000288 4A0A            DCI              0x4A0A
  621 0000028A 4B0B            DCI              0x4B0B
  622 0000028C 4601            DCI              0x4601
  623 0000028E 200A            DCI              0x200A
  624 00000290 4790            DCI              0x4790
  625 00000292 3130            DCI              0x3130
  626 00000294 B402            DCI              0xB402
  627 00000296 2800            DCI              0x2800
  628 00000298 D1F8            DCI              0xD1F8
  629 0000029A BC01            DCI              0xBC01
  630 0000029C 2800            DCI              0x2800
  631 0000029E D001            DCI              0xD001
  632 000002A0 4798            DCI              0x4798
  633 000002A2 E7FA            DCI              0xE7FA
  634 000002A4 BD07            DCI              0xBD07
  635 000002A6 B503    PutNumUB
                               DCI              0xB503
  636 000002A8 21FF            DCI              0x21FF
  637 000002AA 4008            DCI              0x4008
  638 000002AC F7FF FFE9       DCI.W            0xF7FFFFE9
  639 000002B0 BD03            DCI              0xBD03
  640 000002B2 00 00           ALIGN
  641 000002B4 00000000        DCD              DIVU
  642 000002B8 00000000        DCD              PutChar
  643 000002BC         ;*******************************************************
                       ***************
  644 000002BC         ;End machine code provided for Lab Exercise Eight
  645 000002BC         ;";end program code" comment of provided template should
                        now follow
  646 000002BC         ;so that "ALIGN" directive and "__EndMyCode" are after.
  647 000002BC         ;*******************************************************
                       ***************
  648 000002BC         ;end program code
  649 000002BC                 ALIGN
  650 000002BC         __EndMyCode
  651 000002BC         ;*******************************************************
                       ***************
  652 000002BC         ;Constants
  653 000002BC 00000000 
              00000000 



ARM Macro Assembler    Page 15 String Operations


              00000000 
              00000000 
              00000000 
              00000000 
              00000000 
              00000000 
              00000000 
              00000000 
              00000000 
              00000000 
              00000000 
              00000000 
              00000000 
              00000000 
              00000000 
              00000000 
              00000000 
              00000000 
              00000000 
              00000000 
              00000000 
              00000000 
              00000000 
              00000000 
              00000000 
              00000000 
              00000000 
              00000000 
              4006B000 
              40048010 
              00020070 
              40048034 
              00000800 
              40048038 
              4004B00C 
              01000300 
              4004B010         AREA             MyConst,DATA,READONLY
  654 00000000         ;begin constants here
  655 00000000 49 6E 69 
              74 69 61 
              6C 20 73 
              74 72 69 
              6E 67 00 InitString
                               DCB              "Initial string", 0x00
  656 0000000F 0D 0A 00 
                       NewLinePrmp
                               DCB              0x0D, 0x0A, 0x00
  657 00000012 45 6E 74 
              65 72 20 
              61 20 73 
              74 72 69 
              6E 67 20 
              63 6F 6D 
              6D 61 6E 
              64 20 28 
              63 2C 67 
              2C 70 2C 
              72 2C 73 
              29 3E 00 TypePrmp



ARM Macro Assembler    Page 16 String Operations


                               DCB              "Enter a string command (c,g,p,
r,s)>", 0x00
  658 00000036 45 6E 74 
              65 72 20 
              61 20 73 
              65 61 72 
              63 68 20 
              73 74 72 
              69 6E 67 
              3A 0D 0A 
              00       SearchPrmp
                               DCB              "Enter a search string:", 0x0D,
 0x0A, 0x00
  659 0000004F 45 6E 74 
              65 72 20 
              61 20 73 
              74 72 69 
              6E 67 20 
              74 6F 20 
              63 6F 6D 
              70 61 72 
              65 20 6C 
              65 6E 67 
              74 68 3A 
              0D 0A 00 CompPrmp
                               DCB              "Enter a string to compare leng
th:", 0x0D, 0x0A, 0x00
  660 00000073 44 69 66 
              66 65 72 
              65 6E 74 
              20 6C 65 
              6E 67 74 
              68 0D 0A 
              00       DiffLenPrmp
                               DCB              "Different length", 0x0D, 0x0A,
 0x00
  661 00000086 53 61 6D 
              65 20 6C 
              65 6E 67 
              74 68 0D 
              0A 00    SameLenPrmp
                               DCB              "Same length", 0x0D, 0x0A, 0x00
  662 00000094 3A 49 6E 
              76 61 6C 
              69 64 20 
              63 6F 6D 
              6D 61 6E 
              64 0D 0A 
              00       InvalidPrmp
                               DCB              ":Invalid command", 0x0D, 0x0A,
 0x00
  663 000000A7 46 6F 75 
              6E 64 0D 
              0A 00    FoundPrmp
                               DCB              "Found", 0x0D, 0x0A, 0x00
  664 000000AF 4E 6F 74 
              20 46 6F 
              75 6E 64 
              0D 0A 00 NotFoundPrmp



ARM Macro Assembler    Page 17 String Operations


                               DCB              "Not Found", 0x0D, 0x0A, 0x00
  665 000000BB         ;end constants here
  666 000000BB 00              ALIGN
  667 000000BC         __EndMyConst
  668 000000BC         ;*******************************************************
                       ***************
  669 000000BC         ;Variables
  670 000000BC                 AREA             MyData,DATA,READWRITE
  671 00000000         ;begin variables here
  672 00000000 00 00 00 
              00 00 00 
              00 00 00 
              00 00 00 
              00 00 00 
              00 00 00 
              00 00 00 
              00 00 00 
              00 00 00 
              00 00 00 
              00 00 00 
              00 00 00 
              00 00 00 
              00 00 00 
              00 00 00 
              00 00 00 
              00 00 00 
              00 00 00 
              00 00 00 
              00 00 00 
              00 00 00 
              00 00 00 
              00 00 00 
              00 00 00 
              00 00 00 
              00 00 00 
              00       OpString
                               SPACE            MAX_STRING  ;String for operati
                                                            ons
  673 0000004F 00 00 00 
              00 00 00 
              00 00 00 
              00 00 00 
              00 00 00 
              00 00 00 
              00 00 00 
              00 00 00 
              00 00 00 
              00 00 00 
              00 00 00 
              00 00 00 
              00 00 00 
              00 00 00 
              00 00 00 
              00 00 00 
              00 00 00 
              00 00 00 
              00 00 00 
              00 00 00 
              00 00 00 



ARM Macro Assembler    Page 18 String Operations


              00 00 00 
              00 00 00 
              00 00 00 
              00 00 00 
              00 00 00 
              00       TempString
                               SPACE            MAX_STRING  ;Space for working 
                                                            with a string
  674 0000009E         ;end variables here
  675 0000009E         __EndMyData
  676 0000009E                 END
Command Line: --debug --xref --cpu=Cortex-M0+ --apcs=interwork --depend=.\strin
gops.d -o.\stringops.o -ID:\Keil\ARM\RV31\INC -ID:\Keil\ARM\PACK\ARM\CMSIS\3.20
.4\CMSIS\Include -ID:\Keil\ARM\Inc\Freescale\Kinetis --predefine="__EVAL SETA 1
" --list=.\stringops.lst StringOps.s



ARM Macro Assembler    Page 1 Alphabetic symbol ordering
Relocatable symbols

.ARM.__at_0x400 00000000

Symbol: .ARM.__at_0x400
   Definitions
      At line 212 in file MKL25Z128xxx4.s
   Uses
      None
Comment: .ARM.__at_0x400 unused
__END_FCF 00000010

Symbol: __END_FCF
   Definitions
      At line 219 in file MKL25Z128xxx4.s
   Uses
      At line 1103 in file MKL25Z128xxx4.s
Comment: __END_FCF used once
2 symbols



ARM Macro Assembler    Page 1 Alphabetic symbol ordering
Relocatable symbols

RESET 00000000

Symbol: RESET
   Definitions
      At line 1072 in file MKL25Z128xxx4.s
   Uses
      None
Comment: RESET unused
__Vectors 00000000

Symbol: __Vectors
   Definitions
      At line 1074 in file MKL25Z128xxx4.s
   Uses
      At line 1073 in file MKL25Z128xxx4.s
Comment: __Vectors used once
2 symbols



ARM Macro Assembler    Page 1 Alphabetic symbol ordering
Relocatable symbols

SetClock48MHz 0000005C

Symbol: SetClock48MHz
   Definitions
      At line 1147 in file MKL25Z128xxx4.s
   Uses
      At line 138 in file StringOps.s
Comment: SetClock48MHz used once
Start 00000000

Symbol: Start
   Definitions
      At line 1080 in file MKL25Z128xxx4.s
   Uses
      None
Comment: Start unused
SystemInit 00000000

Symbol: SystemInit
   Definitions
      At line 1081 in file MKL25Z128xxx4.s
   Uses
      At line 134 in file StringOps.s
Comment: SystemInit used once
__MCG_CLKST_EXT 00000094

Symbol: __MCG_CLKST_EXT
   Definitions
      At line 1207 in file MKL25Z128xxx4.s
   Uses
      At line 1204 in file MKL25Z128xxx4.s
Comment: __MCG_CLKST_EXT used once
__MCG_CLKST_PLL 000000F4

Symbol: __MCG_CLKST_PLL
   Definitions
      At line 1281 in file MKL25Z128xxx4.s
   Uses
      At line 1278 in file MKL25Z128xxx4.s
Comment: __MCG_CLKST_PLL used once
__MCG_IREFST_Clear 00000084

Symbol: __MCG_IREFST_Clear
   Definitions
      At line 1194 in file MKL25Z128xxx4.s
   Uses
      At line 1191 in file MKL25Z128xxx4.s
Comment: __MCG_IREFST_Clear used once
__MCG_LOCK0 000000D4

Symbol: __MCG_LOCK0
   Definitions
      At line 1253 in file MKL25Z128xxx4.s
   Uses
      At line 1250 in file MKL25Z128xxx4.s
Comment: __MCG_LOCK0 used once
__MCG_OSCINIT0 00000076

Symbol: __MCG_OSCINIT0



ARM Macro Assembler    Page 2 Alphabetic symbol ordering
Relocatable symbols

   Definitions
      At line 1183 in file MKL25Z128xxx4.s
   Uses
      At line 1180 in file MKL25Z128xxx4.s
Comment: __MCG_OSCINIT0 used once
__MCG_PLLST 000000C6

Symbol: __MCG_PLLST
   Definitions
      At line 1242 in file MKL25Z128xxx4.s
   Uses
      At line 1239 in file MKL25Z128xxx4.s
Comment: __MCG_PLLST used once
__MCG_Wait_CLKST_EXT 00000088

Symbol: __MCG_Wait_CLKST_EXT
   Definitions
      At line 1200 in file MKL25Z128xxx4.s
   Uses
      At line 1206 in file MKL25Z128xxx4.s
Comment: __MCG_Wait_CLKST_EXT used once
__MCG_Wait_CLKST_PLL 000000E8

Symbol: __MCG_Wait_CLKST_PLL
   Definitions
      At line 1274 in file MKL25Z128xxx4.s
   Uses
      At line 1280 in file MKL25Z128xxx4.s
Comment: __MCG_Wait_CLKST_PLL used once
__MCG_Wait_IREFST_Clear 0000007A

Symbol: __MCG_Wait_IREFST_Clear
   Definitions
      At line 1188 in file MKL25Z128xxx4.s
   Uses
      At line 1193 in file MKL25Z128xxx4.s
Comment: __MCG_Wait_IREFST_Clear used once
__MCG_Wait_LOCK0 000000CA

Symbol: __MCG_Wait_LOCK0
   Definitions
      At line 1247 in file MKL25Z128xxx4.s
   Uses
      At line 1252 in file MKL25Z128xxx4.s
Comment: __MCG_Wait_LOCK0 used once
__MCG_Wait_OSCINIT0 0000006C

Symbol: __MCG_Wait_OSCINIT0
   Definitions
      At line 1177 in file MKL25Z128xxx4.s
   Uses
      At line 1182 in file MKL25Z128xxx4.s
Comment: __MCG_Wait_OSCINIT0 used once
__MCG_Wait_PLLST 000000BC

Symbol: __MCG_Wait_PLLST
   Definitions
      At line 1236 in file MKL25Z128xxx4.s
   Uses



ARM Macro Assembler    Page 3 Alphabetic symbol ordering
Relocatable symbols

      At line 1241 in file MKL25Z128xxx4.s
Comment: __MCG_Wait_PLLST used once
__RAMImage 00000014

Symbol: __RAMImage
   Definitions
      At line 1107 in file MKL25Z128xxx4.s
   Uses
      At line 1105 in file MKL25Z128xxx4.s
Comment: __RAMImage used once
__RAMInit 0000001C

Symbol: __RAMInit
   Definitions
      At line 1111 in file MKL25Z128xxx4.s
   Uses
      At line 1109 in file MKL25Z128xxx4.s
Comment: __RAMInit used once
__RAMInitDone 00000030

Symbol: __RAMInitDone
   Definitions
      At line 1123 in file MKL25Z128xxx4.s
   Uses
      At line 1115 in file MKL25Z128xxx4.s
Comment: __RAMInitDone used once
__RAMInitLoop 00000024

Symbol: __RAMInitLoop
   Definitions
      At line 1116 in file MKL25Z128xxx4.s
   Uses
      At line 1122 in file MKL25Z128xxx4.s
Comment: __RAMInitLoop used once
19 symbols



ARM Macro Assembler    Page 1 Alphabetic symbol ordering
Relocatable symbols

SP_INIT 00000100

Symbol: SP_INIT
   Definitions
      At line 1289 in file MKL25Z128xxx4.s
   Uses
      At line 1075 in file MKL25Z128xxx4.s
Comment: SP_INIT used once
SSTACK 00000000

Symbol: SSTACK
   Definitions
      At line 1285 in file MKL25Z128xxx4.s
   Uses
      None
Comment: SSTACK unused
2 symbols



ARM Macro Assembler    Page 1 Alphabetic symbol ordering
Relocatable symbols

CarReturn 00000172

Symbol: CarReturn
   Definitions
      At line 398 in file StringOps.s
   Uses
      At line 389 in file StringOps.s
Comment: CarReturn used once
Command 00000030

Symbol: Command
   Definitions
      At line 161 in file StringOps.s
   Uses
      At line 155 in file StringOps.s
Comment: Command used once
Compare 00000052

Symbol: Compare
   Definitions
      At line 186 in file StringOps.s
   Uses
      At line 165 in file StringOps.s
Comment: Compare used once
CopyString 0000018A

Symbol: CopyString
   Definitions
      At line 433 in file StringOps.s
   Uses
      At line 146 in file StringOps.s
Comment: CopyString used once
Copying 0000018E

Symbol: Copying
   Definitions
      At line 435 in file StringOps.s
   Uses
      At line 440 in file StringOps.s
Comment: Copying used once
CorrectCase 00000036

Symbol: CorrectCase
   Definitions
      At line 164 in file StringOps.s
   Uses
      At line 162 in file StringOps.s
Comment: CorrectCase used once
Count 0000017C

Symbol: Count
   Definitions
      At line 412 in file StringOps.s
   Uses
      At line 416 in file StringOps.s
Comment: Count used once
DIVU 000001DC

Symbol: DIVU



ARM Macro Assembler    Page 2 Alphabetic symbol ordering
Relocatable symbols

   Definitions
      At line 513 in file StringOps.s
   Uses
      At line 641 in file StringOps.s
Comment: DIVU used once
DivByZero 000001F4

Symbol: DivByZero
   Definitions
      At line 529 in file StringOps.s
   Uses
      At line 514 in file StringOps.s
Comment: DivByZero used once
Dividing 000001E4

Symbol: Dividing
   Definitions
      At line 519 in file StringOps.s
   Uses
      At line 523 in file StringOps.s
Comment: Dividing used once
DoneCopy 0000019A

Symbol: DoneCopy
   Definitions
      At line 441 in file StringOps.s
   Uses
      At line 439 in file StringOps.s
Comment: DoneCopy used once
DoneDiv 000001EE

Symbol: DoneDiv
   Definitions
      At line 525 in file StringOps.s
   Uses
      At line 520 in file StringOps.s
Comment: DoneDiv used once
DoneRev 000001BC

Symbol: DoneRev
   Definitions
      At line 472 in file StringOps.s
   Uses
      At line 466 in file StringOps.s
Comment: DoneRev used once
EqualLen 00000082

Symbol: EqualLen
   Definitions
      At line 208 in file StringOps.s
   Uses
      At line 204 in file StringOps.s
Comment: EqualLen used once
FixCase 00000034

Symbol: FixCase
   Definitions
      At line 163 in file StringOps.s
   Uses



ARM Macro Assembler    Page 3 Alphabetic symbol ordering
Relocatable symbols

      None
Comment: FixCase unused
Found 000001D6

Symbol: Found
   Definitions
      At line 501 in file StringOps.s
   Uses
      At line 493 in file StringOps.s
Comment: Found used once
GetChar 00000116

Symbol: GetChar
   Definitions
      At line 318 in file StringOps.s
   Uses
      At line 150 in file StringOps.s
      At line 386 in file StringOps.s
      At line 394 in file StringOps.s

GetOPS 0000008A

Symbol: GetOPS
   Definitions
      At line 219 in file StringOps.s
   Uses
      At line 167 in file StringOps.s
Comment: GetOPS used once
GetString 0000014E

Symbol: GetString
   Definitions
      At line 381 in file StringOps.s
   Uses
      At line 194 in file StringOps.s
      At line 222 in file StringOps.s
      At line 273 in file StringOps.s

IsIn 000000FA

Symbol: IsIn
   Definitions
      At line 299 in file StringOps.s
   Uses
      At line 284 in file StringOps.s
Comment: IsIn used once
Main 00000016

Symbol: Main
   Definitions
      At line 148 in file StringOps.s
   Uses
      At line 158 in file StringOps.s
      At line 177 in file StringOps.s
      At line 207 in file StringOps.s
      At line 210 in file StringOps.s
      At line 225 in file StringOps.s
      At line 239 in file StringOps.s
      At line 256 in file StringOps.s



ARM Macro Assembler    Page 4 Alphabetic symbol ordering
Relocatable symbols

      At line 303 in file StringOps.s
      At line 308 in file StringOps.s

Max_Len 0000016A

Symbol: Max_Len
   Definitions
      At line 394 in file StringOps.s
   Uses
      At line 385 in file StringOps.s
      At line 396 in file StringOps.s

MyCode 00000000

Symbol: MyCode
   Definitions
      At line 127 in file StringOps.s
   Uses
      None
Comment: MyCode unused
NextCharP 0000013E

Symbol: NextCharP
   Definitions
      At line 360 in file StringOps.s
   Uses
      At line 365 in file StringOps.s
Comment: NextCharP used once
NextCharS 00000154

Symbol: NextCharS
   Definitions
      At line 384 in file StringOps.s
   Uses
      At line 392 in file StringOps.s
Comment: NextCharS used once
NoIn 00000108

Symbol: NoIn
   Definitions
      At line 304 in file StringOps.s
   Uses
      At line 279 in file StringOps.s
      At line 292 in file StringOps.s

NotFound 000001D0

Symbol: NotFound
   Definitions
      At line 498 in file StringOps.s
   Uses
      At line 495 in file StringOps.s
Comment: NotFound used once
PollRx 0000011C

Symbol: PollRx
   Definitions
      At line 322 in file StringOps.s
   Uses



ARM Macro Assembler    Page 5 Alphabetic symbol ordering
Relocatable symbols

      At line 324 in file StringOps.s
Comment: PollRx used once
PollTx 0000012E

Symbol: PollTx
   Definitions
      At line 341 in file StringOps.s
   Uses
      At line 343 in file StringOps.s
Comment: PollTx used once
Print 0000009E

Symbol: Print
   Definitions
      At line 233 in file StringOps.s
   Uses
      At line 169 in file StringOps.s
Comment: Print used once
PutChar 00000128

Symbol: PutChar
   Definitions
      At line 337 in file StringOps.s
   Uses
      At line 151 in file StringOps.s
      At line 364 in file StringOps.s
      At line 387 in file StringOps.s
      At line 642 in file StringOps.s

PutNumHex 00000254

Symbol: PutNumHex
   Definitions
      At line 594 in file StringOps.s
   Uses
      None
Comment: PutNumHex unused
PutNumU 00000282

Symbol: PutNumU
   Definitions
      At line 617 in file StringOps.s
   Uses
      None
Comment: PutNumU unused
PutNumUB 000002A6

Symbol: PutNumUB
   Definitions
      At line 635 in file StringOps.s
   Uses
      None
Comment: PutNumUB unused
PutString 0000013A

Symbol: PutString
   Definitions
      At line 358 in file StringOps.s
   Uses



ARM Macro Assembler    Page 6 Alphabetic symbol ordering
Relocatable symbols

      At line 149 in file StringOps.s
      At line 157 in file StringOps.s
      At line 176 in file StringOps.s
      At line 188 in file StringOps.s
      At line 190 in file StringOps.s
      At line 201 in file StringOps.s
      At line 206 in file StringOps.s
      At line 209 in file StringOps.s
      At line 220 in file StringOps.s
      At line 224 in file StringOps.s
      At line 234 in file StringOps.s
      At line 236 in file StringOps.s
      At line 238 in file StringOps.s
      At line 248 in file StringOps.s
      At line 253 in file StringOps.s
      At line 255 in file StringOps.s
      At line 270 in file StringOps.s
      At line 300 in file StringOps.s
      At line 302 in file StringOps.s
      At line 305 in file StringOps.s
      At line 307 in file StringOps.s

Reset_Handler 00000000

Symbol: Reset_Handler
   Definitions
      At line 130 in file StringOps.s
   Uses
      At line 1076 in file MKL25Z128xxx4.s
      At line 129 in file StringOps.s

RevString 0000019E

Symbol: RevString
   Definitions
      At line 458 in file StringOps.s
   Uses
      At line 251 in file StringOps.s
Comment: RevString used once
Reverse 000000B2

Symbol: Reverse
   Definitions
      At line 247 in file StringOps.s
   Uses
      At line 171 in file StringOps.s
Comment: Reverse used once
ReverseS 000001AE

Symbol: ReverseS
   Definitions
      At line 465 in file StringOps.s
   Uses
      At line 471 in file StringOps.s
Comment: ReverseS used once
Search 000000CE

Symbol: Search
   Definitions



ARM Macro Assembler    Page 7 Alphabetic symbol ordering
Relocatable symbols

      At line 269 in file StringOps.s
   Uses
      At line 173 in file StringOps.s
Comment: Search used once
SearchCon 000001C2

Symbol: SearchCon
   Definitions
      At line 491 in file StringOps.s
   Uses
      At line 497 in file StringOps.s
Comment: SearchCon used once
SearchS 000001BE

Symbol: SearchS
   Definitions
      At line 489 in file StringOps.s
   Uses
      At line 290 in file StringOps.s
Comment: SearchS used once
StringLen 00000178

Symbol: StringLen
   Definitions
      At line 410 in file StringOps.s
   Uses
      At line 196 in file StringOps.s
      At line 199 in file StringOps.s
      At line 461 in file StringOps.s

Terminate 0000014C

Symbol: Terminate
   Definitions
      At line 366 in file StringOps.s
   Uses
      At line 363 in file StringOps.s
Comment: Terminate used once
UART1__Init 0000020C

Symbol: UART1__Init
   Definitions
      At line 543 in file StringOps.s
   Uses
      At line 143 in file StringOps.s
Comment: UART1__Init used once
__EndMyCode 000002BC

Symbol: __EndMyCode
   Definitions
      At line 650 in file StringOps.s
   Uses
      At line 1107 in file MKL25Z128xxx4.s
Comment: __EndMyCode used once
endString 00000186

Symbol: endString
   Definitions
      At line 417 in file StringOps.s



ARM Macro Assembler    Page 8 Alphabetic symbol ordering
Relocatable symbols

   Uses
      At line 414 in file StringOps.s
Comment: endString used once
looking 000000DE

Symbol: looking
   Definitions
      At line 276 in file StringOps.s
   Uses
      At line 296 in file StringOps.s
Comment: looking used once
main 00000000

Symbol: main
   Definitions
      At line 131 in file StringOps.s
   Uses
      None
Comment: main unused
startDiv 000001E0

Symbol: startDiv
   Definitions
      At line 516 in file StringOps.s
   Uses
      None
Comment: startDiv unused
50 symbols



ARM Macro Assembler    Page 1 Alphabetic symbol ordering
Relocatable symbols

CompPrmp 0000004F

Symbol: CompPrmp
   Definitions
      At line 659 in file StringOps.s
   Uses
      At line 189 in file StringOps.s
Comment: CompPrmp used once
DiffLenPrmp 00000073

Symbol: DiffLenPrmp
   Definitions
      At line 660 in file StringOps.s
   Uses
      At line 205 in file StringOps.s
Comment: DiffLenPrmp used once
FoundPrmp 000000A7

Symbol: FoundPrmp
   Definitions
      At line 663 in file StringOps.s
   Uses
      At line 301 in file StringOps.s
Comment: FoundPrmp used once
InitString 00000000

Symbol: InitString
   Definitions
      At line 655 in file StringOps.s
   Uses
      At line 144 in file StringOps.s
Comment: InitString used once
InvalidPrmp 00000094

Symbol: InvalidPrmp
   Definitions
      At line 662 in file StringOps.s
   Uses
      At line 175 in file StringOps.s
Comment: InvalidPrmp used once
MyConst 00000000

Symbol: MyConst
   Definitions
      At line 653 in file StringOps.s
   Uses
      None
Comment: MyConst unused
NewLinePrmp 0000000F

Symbol: NewLinePrmp
   Definitions
      At line 656 in file StringOps.s
   Uses
      At line 156 in file StringOps.s
      At line 187 in file StringOps.s
      At line 200 in file StringOps.s
      At line 219 in file StringOps.s
      At line 223 in file StringOps.s



ARM Macro Assembler    Page 2 Alphabetic symbol ordering
Relocatable symbols

      At line 233 in file StringOps.s
      At line 237 in file StringOps.s
      At line 247 in file StringOps.s
      At line 254 in file StringOps.s
      At line 269 in file StringOps.s
      At line 299 in file StringOps.s
      At line 304 in file StringOps.s

NotFoundPrmp 000000AF

Symbol: NotFoundPrmp
   Definitions
      At line 664 in file StringOps.s
   Uses
      At line 306 in file StringOps.s
Comment: NotFoundPrmp used once
SameLenPrmp 00000086

Symbol: SameLenPrmp
   Definitions
      At line 661 in file StringOps.s
   Uses
      At line 208 in file StringOps.s
Comment: SameLenPrmp used once
SearchPrmp 00000036

Symbol: SearchPrmp
   Definitions
      At line 658 in file StringOps.s
   Uses
      None
Comment: SearchPrmp unused
TypePrmp 00000012

Symbol: TypePrmp
   Definitions
      At line 657 in file StringOps.s
   Uses
      At line 148 in file StringOps.s
Comment: TypePrmp used once
__EndMyConst 000000BC

Symbol: __EndMyConst
   Definitions
      At line 667 in file StringOps.s
   Uses
      At line 1102 in file MKL25Z128xxx4.s
Comment: __EndMyConst used once
12 symbols



ARM Macro Assembler    Page 1 Alphabetic symbol ordering
Relocatable symbols

MyData 00000000

Symbol: MyData
   Definitions
      At line 670 in file StringOps.s
   Uses
      At line 1112 in file MKL25Z128xxx4.s
Comment: MyData used once
OpString 00000000

Symbol: OpString
   Definitions
      At line 672 in file StringOps.s
   Uses
      At line 145 in file StringOps.s
      At line 198 in file StringOps.s
      At line 221 in file StringOps.s
      At line 235 in file StringOps.s
      At line 249 in file StringOps.s
      At line 274 in file StringOps.s

TempString 0000004F

Symbol: TempString
   Definitions
      At line 673 in file StringOps.s
   Uses
      At line 193 in file StringOps.s
      At line 250 in file StringOps.s
      At line 252 in file StringOps.s
      At line 271 in file StringOps.s

__EndMyData 0000009E

Symbol: __EndMyData
   Definitions
      At line 675 in file StringOps.s
   Uses
      At line 1113 in file MKL25Z128xxx4.s
Comment: __EndMyData used once
4 symbols



ARM Macro Assembler    Page 1 Alphabetic symbol ordering
Absolute symbols

BUF_PAST 0000000C

Symbol: BUF_PAST
   Definitions
      At line 30 in file StringOps.s
   Uses
      None
Comment: BUF_PAST unused
BUF_SIZE 00000010

Symbol: BUF_SIZE
   Definitions
      At line 31 in file StringOps.s
   Uses
      None
Comment: BUF_SIZE unused
BUF_STRT 00000008

Symbol: BUF_STRT
   Definitions
      At line 29 in file StringOps.s
   Uses
      None
Comment: BUF_STRT unused
COP_COPCLKS_MASK 00000002

Symbol: COP_COPCLKS_MASK
   Definitions
      At line 867 in file MKL25Z128xxx4.s
   Uses
      None
Comment: COP_COPCLKS_MASK unused
COP_COPT_MASK 0000000C

Symbol: COP_COPT_MASK
   Definitions
      At line 866 in file MKL25Z128xxx4.s
   Uses
      None
Comment: COP_COPT_MASK unused
COP_COPW_MASK 00000001

Symbol: COP_COPW_MASK
   Definitions
      At line 868 in file MKL25Z128xxx4.s
   Uses
      None
Comment: COP_COPW_MASK unused
COP_DISABLE 00000000

Symbol: COP_DISABLE
   Definitions
      At line 869 in file MKL25Z128xxx4.s
   Uses
      At line 1097 in file MKL25Z128xxx4.s
Comment: COP_DISABLE used once
FCF_BACKDOOR_KEY0 000000FF

Symbol: FCF_BACKDOOR_KEY0



ARM Macro Assembler    Page 2 Alphabetic symbol ordering
Absolute symbols

   Definitions
      At line 93 in file MKL25Z128xxx4.s
   Uses
      At line 213 in file MKL25Z128xxx4.s
Comment: FCF_BACKDOOR_KEY0 used once
FCF_BACKDOOR_KEY1 000000FF

Symbol: FCF_BACKDOOR_KEY1
   Definitions
      At line 97 in file MKL25Z128xxx4.s
   Uses
      At line 213 in file MKL25Z128xxx4.s
Comment: FCF_BACKDOOR_KEY1 used once
FCF_BACKDOOR_KEY2 000000FF

Symbol: FCF_BACKDOOR_KEY2
   Definitions
      At line 101 in file MKL25Z128xxx4.s
   Uses
      At line 214 in file MKL25Z128xxx4.s
Comment: FCF_BACKDOOR_KEY2 used once
FCF_BACKDOOR_KEY3 000000FF

Symbol: FCF_BACKDOOR_KEY3
   Definitions
      At line 105 in file MKL25Z128xxx4.s
   Uses
      At line 214 in file MKL25Z128xxx4.s
Comment: FCF_BACKDOOR_KEY3 used once
FCF_BACKDOOR_KEY4 000000FF

Symbol: FCF_BACKDOOR_KEY4
   Definitions
      At line 109 in file MKL25Z128xxx4.s
   Uses
      At line 215 in file MKL25Z128xxx4.s
Comment: FCF_BACKDOOR_KEY4 used once
FCF_BACKDOOR_KEY5 000000FF

Symbol: FCF_BACKDOOR_KEY5
   Definitions
      At line 113 in file MKL25Z128xxx4.s
   Uses
      At line 215 in file MKL25Z128xxx4.s
Comment: FCF_BACKDOOR_KEY5 used once
FCF_BACKDOOR_KEY6 000000FF

Symbol: FCF_BACKDOOR_KEY6
   Definitions
      At line 117 in file MKL25Z128xxx4.s
   Uses
      At line 216 in file MKL25Z128xxx4.s
Comment: FCF_BACKDOOR_KEY6 used once
FCF_BACKDOOR_KEY7 000000FF

Symbol: FCF_BACKDOOR_KEY7
   Definitions
      At line 121 in file MKL25Z128xxx4.s
   Uses



ARM Macro Assembler    Page 3 Alphabetic symbol ordering
Absolute symbols

      At line 216 in file MKL25Z128xxx4.s
Comment: FCF_BACKDOOR_KEY7 used once
FCF_FOPT 000000FF

Symbol: FCF_FOPT
   Definitions
      At line 132 in file MKL25Z128xxx4.s
   Uses
      At line 218 in file MKL25Z128xxx4.s
Comment: FCF_FOPT used once
FCF_FPROT0 000000FF

Symbol: FCF_FPROT0
   Definitions
      At line 147 in file MKL25Z128xxx4.s
   Uses
      At line 217 in file MKL25Z128xxx4.s
Comment: FCF_FPROT0 used once
FCF_FPROT1 000000FF

Symbol: FCF_FPROT1
   Definitions
      At line 158 in file MKL25Z128xxx4.s
   Uses
      At line 217 in file MKL25Z128xxx4.s
Comment: FCF_FPROT1 used once
FCF_FPROT2 000000FF

Symbol: FCF_FPROT2
   Definitions
      At line 169 in file MKL25Z128xxx4.s
   Uses
      At line 217 in file MKL25Z128xxx4.s
Comment: FCF_FPROT2 used once
FCF_FPROT3 000000FF

Symbol: FCF_FPROT3
   Definitions
      At line 180 in file MKL25Z128xxx4.s
   Uses
      At line 217 in file MKL25Z128xxx4.s
Comment: FCF_FPROT3 used once
FCF_FSEC 0000007E

Symbol: FCF_FSEC
   Definitions
      At line 209 in file MKL25Z128xxx4.s
   Uses
      At line 218 in file MKL25Z128xxx4.s
Comment: FCF_FSEC used once
FGPIOA_BASE F80FF000

Symbol: FGPIOA_BASE
   Definitions
      At line 41 in file MKL25Z128xxx4.s
   Uses
      At line 42 in file MKL25Z128xxx4.s
      At line 43 in file MKL25Z128xxx4.s
      At line 44 in file MKL25Z128xxx4.s



ARM Macro Assembler    Page 4 Alphabetic symbol ordering
Absolute symbols

      At line 45 in file MKL25Z128xxx4.s
      At line 46 in file MKL25Z128xxx4.s
      At line 47 in file MKL25Z128xxx4.s

FGPIOA_PCOR F80FF008

Symbol: FGPIOA_PCOR
   Definitions
      At line 44 in file MKL25Z128xxx4.s
   Uses
      None
Comment: FGPIOA_PCOR unused
FGPIOA_PDDR F80FF014

Symbol: FGPIOA_PDDR
   Definitions
      At line 47 in file MKL25Z128xxx4.s
   Uses
      None
Comment: FGPIOA_PDDR unused
FGPIOA_PDIR F80FF010

Symbol: FGPIOA_PDIR
   Definitions
      At line 46 in file MKL25Z128xxx4.s
   Uses
      None
Comment: FGPIOA_PDIR unused
FGPIOA_PDOR F80FF000

Symbol: FGPIOA_PDOR
   Definitions
      At line 42 in file MKL25Z128xxx4.s
   Uses
      None
Comment: FGPIOA_PDOR unused
FGPIOA_PSOR F80FF004

Symbol: FGPIOA_PSOR
   Definitions
      At line 43 in file MKL25Z128xxx4.s
   Uses
      None
Comment: FGPIOA_PSOR unused
FGPIOA_PTOR F80FF00C

Symbol: FGPIOA_PTOR
   Definitions
      At line 45 in file MKL25Z128xxx4.s
   Uses
      None
Comment: FGPIOA_PTOR unused
FGPIOB_BASE F80FF040

Symbol: FGPIOB_BASE
   Definitions
      At line 49 in file MKL25Z128xxx4.s
   Uses
      At line 50 in file MKL25Z128xxx4.s



ARM Macro Assembler    Page 5 Alphabetic symbol ordering
Absolute symbols

      At line 51 in file MKL25Z128xxx4.s
      At line 52 in file MKL25Z128xxx4.s
      At line 53 in file MKL25Z128xxx4.s
      At line 54 in file MKL25Z128xxx4.s
      At line 55 in file MKL25Z128xxx4.s

FGPIOB_PCOR F80FF048

Symbol: FGPIOB_PCOR
   Definitions
      At line 52 in file MKL25Z128xxx4.s
   Uses
      None
Comment: FGPIOB_PCOR unused
FGPIOB_PDDR F80FF054

Symbol: FGPIOB_PDDR
   Definitions
      At line 55 in file MKL25Z128xxx4.s
   Uses
      None
Comment: FGPIOB_PDDR unused
FGPIOB_PDIR F80FF050

Symbol: FGPIOB_PDIR
   Definitions
      At line 54 in file MKL25Z128xxx4.s
   Uses
      None
Comment: FGPIOB_PDIR unused
FGPIOB_PDOR F80FF040

Symbol: FGPIOB_PDOR
   Definitions
      At line 50 in file MKL25Z128xxx4.s
   Uses
      None
Comment: FGPIOB_PDOR unused
FGPIOB_PSOR F80FF044

Symbol: FGPIOB_PSOR
   Definitions
      At line 51 in file MKL25Z128xxx4.s
   Uses
      None
Comment: FGPIOB_PSOR unused
FGPIOB_PTOR F80FF04C

Symbol: FGPIOB_PTOR
   Definitions
      At line 53 in file MKL25Z128xxx4.s
   Uses
      None
Comment: FGPIOB_PTOR unused
FGPIOC_BASE F80FF080

Symbol: FGPIOC_BASE
   Definitions
      At line 57 in file MKL25Z128xxx4.s



ARM Macro Assembler    Page 6 Alphabetic symbol ordering
Absolute symbols

   Uses
      At line 58 in file MKL25Z128xxx4.s
      At line 59 in file MKL25Z128xxx4.s
      At line 60 in file MKL25Z128xxx4.s
      At line 61 in file MKL25Z128xxx4.s
      At line 62 in file MKL25Z128xxx4.s
      At line 63 in file MKL25Z128xxx4.s

FGPIOC_PCOR F80FF088

Symbol: FGPIOC_PCOR
   Definitions
      At line 60 in file MKL25Z128xxx4.s
   Uses
      None
Comment: FGPIOC_PCOR unused
FGPIOC_PDDR F80FF094

Symbol: FGPIOC_PDDR
   Definitions
      At line 63 in file MKL25Z128xxx4.s
   Uses
      None
Comment: FGPIOC_PDDR unused
FGPIOC_PDIR F80FF090

Symbol: FGPIOC_PDIR
   Definitions
      At line 62 in file MKL25Z128xxx4.s
   Uses
      None
Comment: FGPIOC_PDIR unused
FGPIOC_PDOR F80FF080

Symbol: FGPIOC_PDOR
   Definitions
      At line 58 in file MKL25Z128xxx4.s
   Uses
      None
Comment: FGPIOC_PDOR unused
FGPIOC_PSOR F80FF084

Symbol: FGPIOC_PSOR
   Definitions
      At line 59 in file MKL25Z128xxx4.s
   Uses
      None
Comment: FGPIOC_PSOR unused
FGPIOC_PTOR F80FF08C

Symbol: FGPIOC_PTOR
   Definitions
      At line 61 in file MKL25Z128xxx4.s
   Uses
      None
Comment: FGPIOC_PTOR unused
FGPIOD_BASE F80FF0C0

Symbol: FGPIOD_BASE



ARM Macro Assembler    Page 7 Alphabetic symbol ordering
Absolute symbols

   Definitions
      At line 65 in file MKL25Z128xxx4.s
   Uses
      At line 66 in file MKL25Z128xxx4.s
      At line 67 in file MKL25Z128xxx4.s
      At line 68 in file MKL25Z128xxx4.s
      At line 69 in file MKL25Z128xxx4.s
      At line 70 in file MKL25Z128xxx4.s
      At line 71 in file MKL25Z128xxx4.s

FGPIOD_PCOR F80FF0C8

Symbol: FGPIOD_PCOR
   Definitions
      At line 68 in file MKL25Z128xxx4.s
   Uses
      None
Comment: FGPIOD_PCOR unused
FGPIOD_PDDR F80FF0D4

Symbol: FGPIOD_PDDR
   Definitions
      At line 71 in file MKL25Z128xxx4.s
   Uses
      None
Comment: FGPIOD_PDDR unused
FGPIOD_PDIR F80FF0D0

Symbol: FGPIOD_PDIR
   Definitions
      At line 70 in file MKL25Z128xxx4.s
   Uses
      None
Comment: FGPIOD_PDIR unused
FGPIOD_PDOR F80FF0C0

Symbol: FGPIOD_PDOR
   Definitions
      At line 66 in file MKL25Z128xxx4.s
   Uses
      None
Comment: FGPIOD_PDOR unused
FGPIOD_PSOR F80FF0C4

Symbol: FGPIOD_PSOR
   Definitions
      At line 67 in file MKL25Z128xxx4.s
   Uses
      None
Comment: FGPIOD_PSOR unused
FGPIOD_PTOR F80FF0CC

Symbol: FGPIOD_PTOR
   Definitions
      At line 69 in file MKL25Z128xxx4.s
   Uses
      None
Comment: FGPIOD_PTOR unused
FGPIOE_BASE F80FF100



ARM Macro Assembler    Page 8 Alphabetic symbol ordering
Absolute symbols


Symbol: FGPIOE_BASE
   Definitions
      At line 73 in file MKL25Z128xxx4.s
   Uses
      At line 74 in file MKL25Z128xxx4.s
      At line 75 in file MKL25Z128xxx4.s
      At line 76 in file MKL25Z128xxx4.s
      At line 77 in file MKL25Z128xxx4.s
      At line 78 in file MKL25Z128xxx4.s
      At line 79 in file MKL25Z128xxx4.s

FGPIOE_PCOR F80FF108

Symbol: FGPIOE_PCOR
   Definitions
      At line 76 in file MKL25Z128xxx4.s
   Uses
      None
Comment: FGPIOE_PCOR unused
FGPIOE_PDDR F80FF114

Symbol: FGPIOE_PDDR
   Definitions
      At line 79 in file MKL25Z128xxx4.s
   Uses
      None
Comment: FGPIOE_PDDR unused
FGPIOE_PDIR F80FF110

Symbol: FGPIOE_PDIR
   Definitions
      At line 78 in file MKL25Z128xxx4.s
   Uses
      None
Comment: FGPIOE_PDIR unused
FGPIOE_PDOR F80FF100

Symbol: FGPIOE_PDOR
   Definitions
      At line 74 in file MKL25Z128xxx4.s
   Uses
      None
Comment: FGPIOE_PDOR unused
FGPIOE_PSOR F80FF104

Symbol: FGPIOE_PSOR
   Definitions
      At line 75 in file MKL25Z128xxx4.s
   Uses
      None
Comment: FGPIOE_PSOR unused
FGPIOE_PTOR F80FF10C

Symbol: FGPIOE_PTOR
   Definitions
      At line 77 in file MKL25Z128xxx4.s
   Uses
      None



ARM Macro Assembler    Page 9 Alphabetic symbol ordering
Absolute symbols

Comment: FGPIOE_PTOR unused
FGPIO_BASE F80FF000

Symbol: FGPIO_BASE
   Definitions
      At line 36 in file MKL25Z128xxx4.s
   Uses
      None
Comment: FGPIO_BASE unused
GPIOA_BASE 400FF000

Symbol: GPIOA_BASE
   Definitions
      At line 239 in file MKL25Z128xxx4.s
   Uses
      At line 240 in file MKL25Z128xxx4.s
      At line 241 in file MKL25Z128xxx4.s
      At line 242 in file MKL25Z128xxx4.s
      At line 243 in file MKL25Z128xxx4.s
      At line 244 in file MKL25Z128xxx4.s
      At line 245 in file MKL25Z128xxx4.s

GPIOA_OFFSET 00000000

Symbol: GPIOA_OFFSET
   Definitions
      At line 233 in file MKL25Z128xxx4.s
   Uses
      None
Comment: GPIOA_OFFSET unused
GPIOA_PCOR 400FF008

Symbol: GPIOA_PCOR
   Definitions
      At line 242 in file MKL25Z128xxx4.s
   Uses
      None
Comment: GPIOA_PCOR unused
GPIOA_PDDR 400FF014

Symbol: GPIOA_PDDR
   Definitions
      At line 245 in file MKL25Z128xxx4.s
   Uses
      None
Comment: GPIOA_PDDR unused
GPIOA_PDIR 400FF010

Symbol: GPIOA_PDIR
   Definitions
      At line 244 in file MKL25Z128xxx4.s
   Uses
      None
Comment: GPIOA_PDIR unused
GPIOA_PDOR 400FF000

Symbol: GPIOA_PDOR
   Definitions
      At line 240 in file MKL25Z128xxx4.s



ARM Macro Assembler    Page 10 Alphabetic symbol ordering
Absolute symbols

   Uses
      None
Comment: GPIOA_PDOR unused
GPIOA_PSOR 400FF004

Symbol: GPIOA_PSOR
   Definitions
      At line 241 in file MKL25Z128xxx4.s
   Uses
      None
Comment: GPIOA_PSOR unused
GPIOA_PTOR 400FF00C

Symbol: GPIOA_PTOR
   Definitions
      At line 243 in file MKL25Z128xxx4.s
   Uses
      None
Comment: GPIOA_PTOR unused
GPIOB_BASE 400FF040

Symbol: GPIOB_BASE
   Definitions
      At line 247 in file MKL25Z128xxx4.s
   Uses
      At line 248 in file MKL25Z128xxx4.s
      At line 249 in file MKL25Z128xxx4.s
      At line 250 in file MKL25Z128xxx4.s
      At line 251 in file MKL25Z128xxx4.s
      At line 252 in file MKL25Z128xxx4.s
      At line 253 in file MKL25Z128xxx4.s

GPIOB_OFFSET 00000040

Symbol: GPIOB_OFFSET
   Definitions
      At line 234 in file MKL25Z128xxx4.s
   Uses
      None
Comment: GPIOB_OFFSET unused
GPIOB_PCOR 400FF048

Symbol: GPIOB_PCOR
   Definitions
      At line 250 in file MKL25Z128xxx4.s
   Uses
      None
Comment: GPIOB_PCOR unused
GPIOB_PDDR 400FF054

Symbol: GPIOB_PDDR
   Definitions
      At line 253 in file MKL25Z128xxx4.s
   Uses
      None
Comment: GPIOB_PDDR unused
GPIOB_PDIR 400FF050

Symbol: GPIOB_PDIR



ARM Macro Assembler    Page 11 Alphabetic symbol ordering
Absolute symbols

   Definitions
      At line 252 in file MKL25Z128xxx4.s
   Uses
      None
Comment: GPIOB_PDIR unused
GPIOB_PDOR 400FF040

Symbol: GPIOB_PDOR
   Definitions
      At line 248 in file MKL25Z128xxx4.s
   Uses
      None
Comment: GPIOB_PDOR unused
GPIOB_PSOR 400FF044

Symbol: GPIOB_PSOR
   Definitions
      At line 249 in file MKL25Z128xxx4.s
   Uses
      None
Comment: GPIOB_PSOR unused
GPIOB_PTOR 400FF04C

Symbol: GPIOB_PTOR
   Definitions
      At line 251 in file MKL25Z128xxx4.s
   Uses
      None
Comment: GPIOB_PTOR unused
GPIOC_BASE 400FF080

Symbol: GPIOC_BASE
   Definitions
      At line 255 in file MKL25Z128xxx4.s
   Uses
      At line 256 in file MKL25Z128xxx4.s
      At line 257 in file MKL25Z128xxx4.s
      At line 258 in file MKL25Z128xxx4.s
      At line 259 in file MKL25Z128xxx4.s
      At line 260 in file MKL25Z128xxx4.s
      At line 261 in file MKL25Z128xxx4.s

GPIOC_OFFSET 00000080

Symbol: GPIOC_OFFSET
   Definitions
      At line 235 in file MKL25Z128xxx4.s
   Uses
      None
Comment: GPIOC_OFFSET unused
GPIOC_PCOR 400FF088

Symbol: GPIOC_PCOR
   Definitions
      At line 258 in file MKL25Z128xxx4.s
   Uses
      None
Comment: GPIOC_PCOR unused
GPIOC_PDDR 400FF094



ARM Macro Assembler    Page 12 Alphabetic symbol ordering
Absolute symbols


Symbol: GPIOC_PDDR
   Definitions
      At line 261 in file MKL25Z128xxx4.s
   Uses
      None
Comment: GPIOC_PDDR unused
GPIOC_PDIR 400FF090

Symbol: GPIOC_PDIR
   Definitions
      At line 260 in file MKL25Z128xxx4.s
   Uses
      None
Comment: GPIOC_PDIR unused
GPIOC_PDOR 400FF080

Symbol: GPIOC_PDOR
   Definitions
      At line 256 in file MKL25Z128xxx4.s
   Uses
      None
Comment: GPIOC_PDOR unused
GPIOC_PSOR 400FF084

Symbol: GPIOC_PSOR
   Definitions
      At line 257 in file MKL25Z128xxx4.s
   Uses
      None
Comment: GPIOC_PSOR unused
GPIOC_PTOR 400FF08C

Symbol: GPIOC_PTOR
   Definitions
      At line 259 in file MKL25Z128xxx4.s
   Uses
      None
Comment: GPIOC_PTOR unused
GPIOD_BASE 400FF0C0

Symbol: GPIOD_BASE
   Definitions
      At line 263 in file MKL25Z128xxx4.s
   Uses
      At line 264 in file MKL25Z128xxx4.s
      At line 265 in file MKL25Z128xxx4.s
      At line 266 in file MKL25Z128xxx4.s
      At line 267 in file MKL25Z128xxx4.s
      At line 268 in file MKL25Z128xxx4.s
      At line 269 in file MKL25Z128xxx4.s

GPIOD_OFFSET 000000C0

Symbol: GPIOD_OFFSET
   Definitions
      At line 236 in file MKL25Z128xxx4.s
   Uses
      None



ARM Macro Assembler    Page 13 Alphabetic symbol ordering
Absolute symbols

Comment: GPIOD_OFFSET unused
GPIOD_PCOR 400FF0C8

Symbol: GPIOD_PCOR
   Definitions
      At line 266 in file MKL25Z128xxx4.s
   Uses
      None
Comment: GPIOD_PCOR unused
GPIOD_PDDR 400FF0D4

Symbol: GPIOD_PDDR
   Definitions
      At line 269 in file MKL25Z128xxx4.s
   Uses
      None
Comment: GPIOD_PDDR unused
GPIOD_PDIR 400FF0D0

Symbol: GPIOD_PDIR
   Definitions
      At line 268 in file MKL25Z128xxx4.s
   Uses
      None
Comment: GPIOD_PDIR unused
GPIOD_PDOR 400FF0C0

Symbol: GPIOD_PDOR
   Definitions
      At line 264 in file MKL25Z128xxx4.s
   Uses
      None
Comment: GPIOD_PDOR unused
GPIOD_PSOR 400FF0C4

Symbol: GPIOD_PSOR
   Definitions
      At line 265 in file MKL25Z128xxx4.s
   Uses
      None
Comment: GPIOD_PSOR unused
GPIOD_PTOR 400FF0CC

Symbol: GPIOD_PTOR
   Definitions
      At line 267 in file MKL25Z128xxx4.s
   Uses
      None
Comment: GPIOD_PTOR unused
GPIOE_BASE 400FF100

Symbol: GPIOE_BASE
   Definitions
      At line 271 in file MKL25Z128xxx4.s
   Uses
      At line 272 in file MKL25Z128xxx4.s
      At line 273 in file MKL25Z128xxx4.s
      At line 274 in file MKL25Z128xxx4.s
      At line 275 in file MKL25Z128xxx4.s



ARM Macro Assembler    Page 14 Alphabetic symbol ordering
Absolute symbols

      At line 276 in file MKL25Z128xxx4.s
      At line 277 in file MKL25Z128xxx4.s

GPIOE_OFFSET 00000100

Symbol: GPIOE_OFFSET
   Definitions
      At line 237 in file MKL25Z128xxx4.s
   Uses
      None
Comment: GPIOE_OFFSET unused
GPIOE_PCOR 400FF108

Symbol: GPIOE_PCOR
   Definitions
      At line 274 in file MKL25Z128xxx4.s
   Uses
      None
Comment: GPIOE_PCOR unused
GPIOE_PDDR 400FF114

Symbol: GPIOE_PDDR
   Definitions
      At line 277 in file MKL25Z128xxx4.s
   Uses
      None
Comment: GPIOE_PDDR unused
GPIOE_PDIR 400FF110

Symbol: GPIOE_PDIR
   Definitions
      At line 276 in file MKL25Z128xxx4.s
   Uses
      None
Comment: GPIOE_PDIR unused
GPIOE_PDOR 400FF100

Symbol: GPIOE_PDOR
   Definitions
      At line 272 in file MKL25Z128xxx4.s
   Uses
      None
Comment: GPIOE_PDOR unused
GPIOE_PSOR 400FF104

Symbol: GPIOE_PSOR
   Definitions
      At line 273 in file MKL25Z128xxx4.s
   Uses
      None
Comment: GPIOE_PSOR unused
GPIOE_PTOR 400FF10C

Symbol: GPIOE_PTOR
   Definitions
      At line 275 in file MKL25Z128xxx4.s
   Uses
      None
Comment: GPIOE_PTOR unused



ARM Macro Assembler    Page 15 Alphabetic symbol ordering
Absolute symbols

GPIO_BASE 400FF000

Symbol: GPIO_BASE
   Definitions
      At line 226 in file MKL25Z128xxx4.s
   Uses
      None
Comment: GPIO_BASE unused
GPIO_PCOR_OFFSET 00000008

Symbol: GPIO_PCOR_OFFSET
   Definitions
      At line 229 in file MKL25Z128xxx4.s
   Uses
      At line 44 in file MKL25Z128xxx4.s
      At line 52 in file MKL25Z128xxx4.s
      At line 60 in file MKL25Z128xxx4.s
      At line 68 in file MKL25Z128xxx4.s
      At line 76 in file MKL25Z128xxx4.s
      At line 242 in file MKL25Z128xxx4.s
      At line 250 in file MKL25Z128xxx4.s
      At line 258 in file MKL25Z128xxx4.s
      At line 266 in file MKL25Z128xxx4.s
      At line 274 in file MKL25Z128xxx4.s

GPIO_PDDR_OFFSET 00000014

Symbol: GPIO_PDDR_OFFSET
   Definitions
      At line 232 in file MKL25Z128xxx4.s
   Uses
      At line 47 in file MKL25Z128xxx4.s
      At line 55 in file MKL25Z128xxx4.s
      At line 63 in file MKL25Z128xxx4.s
      At line 71 in file MKL25Z128xxx4.s
      At line 79 in file MKL25Z128xxx4.s
      At line 245 in file MKL25Z128xxx4.s
      At line 253 in file MKL25Z128xxx4.s
      At line 261 in file MKL25Z128xxx4.s
      At line 269 in file MKL25Z128xxx4.s
      At line 277 in file MKL25Z128xxx4.s

GPIO_PDIR_OFFSET 00000010

Symbol: GPIO_PDIR_OFFSET
   Definitions
      At line 231 in file MKL25Z128xxx4.s
   Uses
      At line 46 in file MKL25Z128xxx4.s
      At line 54 in file MKL25Z128xxx4.s
      At line 62 in file MKL25Z128xxx4.s
      At line 70 in file MKL25Z128xxx4.s
      At line 78 in file MKL25Z128xxx4.s
      At line 244 in file MKL25Z128xxx4.s
      At line 252 in file MKL25Z128xxx4.s
      At line 260 in file MKL25Z128xxx4.s
      At line 268 in file MKL25Z128xxx4.s
      At line 276 in file MKL25Z128xxx4.s




ARM Macro Assembler    Page 16 Alphabetic symbol ordering
Absolute symbols

GPIO_PDOR_OFFSET 00000000

Symbol: GPIO_PDOR_OFFSET
   Definitions
      At line 227 in file MKL25Z128xxx4.s
   Uses
      At line 42 in file MKL25Z128xxx4.s
      At line 50 in file MKL25Z128xxx4.s
      At line 58 in file MKL25Z128xxx4.s
      At line 66 in file MKL25Z128xxx4.s
      At line 74 in file MKL25Z128xxx4.s
      At line 240 in file MKL25Z128xxx4.s
      At line 248 in file MKL25Z128xxx4.s
      At line 256 in file MKL25Z128xxx4.s
      At line 264 in file MKL25Z128xxx4.s
      At line 272 in file MKL25Z128xxx4.s

GPIO_PSOR_OFFSET 00000004

Symbol: GPIO_PSOR_OFFSET
   Definitions
      At line 228 in file MKL25Z128xxx4.s
   Uses
      At line 43 in file MKL25Z128xxx4.s
      At line 51 in file MKL25Z128xxx4.s
      At line 59 in file MKL25Z128xxx4.s
      At line 67 in file MKL25Z128xxx4.s
      At line 75 in file MKL25Z128xxx4.s
      At line 241 in file MKL25Z128xxx4.s
      At line 249 in file MKL25Z128xxx4.s
      At line 257 in file MKL25Z128xxx4.s
      At line 265 in file MKL25Z128xxx4.s
      At line 273 in file MKL25Z128xxx4.s

GPIO_PTOR_OFFSET 0000000C

Symbol: GPIO_PTOR_OFFSET
   Definitions
      At line 230 in file MKL25Z128xxx4.s
   Uses
      At line 45 in file MKL25Z128xxx4.s
      At line 53 in file MKL25Z128xxx4.s
      At line 61 in file MKL25Z128xxx4.s
      At line 69 in file MKL25Z128xxx4.s
      At line 77 in file MKL25Z128xxx4.s
      At line 243 in file MKL25Z128xxx4.s
      At line 251 in file MKL25Z128xxx4.s
      At line 259 in file MKL25Z128xxx4.s
      At line 267 in file MKL25Z128xxx4.s
      At line 275 in file MKL25Z128xxx4.s

HALFWORD_SIZE 00000002

Symbol: HALFWORD_SIZE
   Definitions
      At line 22 in file MKL25Z128xxx4.s
   Uses
      None
Comment: HALFWORD_SIZE unused



ARM Macro Assembler    Page 17 Alphabetic symbol ordering
Absolute symbols

IN_PTR 00000000

Symbol: IN_PTR
   Definitions
      At line 27 in file StringOps.s
   Uses
      None
Comment: IN_PTR unused
MAX_STRING 0000004F

Symbol: MAX_STRING
   Definitions
      At line 24 in file StringOps.s
   Uses
      At line 384 in file StringOps.s
      At line 672 in file StringOps.s
      At line 673 in file StringOps.s

MCG_BASE 40064000

Symbol: MCG_BASE
   Definitions
      At line 283 in file MKL25Z128xxx4.s
   Uses
      At line 290 in file MKL25Z128xxx4.s
      At line 291 in file MKL25Z128xxx4.s
      At line 292 in file MKL25Z128xxx4.s
      At line 293 in file MKL25Z128xxx4.s
      At line 294 in file MKL25Z128xxx4.s
      At line 295 in file MKL25Z128xxx4.s
      At line 1161 in file MKL25Z128xxx4.s

MCG_C1 40064000

Symbol: MCG_C1
   Definitions
      At line 290 in file MKL25Z128xxx4.s
   Uses
      None
Comment: MCG_C1 unused
MCG_C1_CLKS_EXT_MASK 00000080

Symbol: MCG_C1_CLKS_EXT_MASK
   Definitions
      At line 324 in file MKL25Z128xxx4.s
   Uses
      At line 327 in file MKL25Z128xxx4.s
Comment: MCG_C1_CLKS_EXT_MASK used once
MCG_C1_CLKS_MASK 000000C0

Symbol: MCG_C1_CLKS_MASK
   Definitions
      At line 319 in file MKL25Z128xxx4.s
   Uses
      At line 1264 in file MKL25Z128xxx4.s
Comment: MCG_C1_CLKS_MASK used once
MCG_C1_CLKS_PLL_MASK 00000000

Symbol: MCG_C1_CLKS_PLL_MASK



ARM Macro Assembler    Page 18 Alphabetic symbol ordering
Absolute symbols

   Definitions
      At line 325 in file MKL25Z128xxx4.s
   Uses
      None
Comment: MCG_C1_CLKS_PLL_MASK unused
MCG_C1_EXT_DIV256 00000098

Symbol: MCG_C1_EXT_DIV256
   Definitions
      At line 327 in file MKL25Z128xxx4.s
   Uses
      At line 1171 in file MKL25Z128xxx4.s
Comment: MCG_C1_EXT_DIV256 used once
MCG_C1_FRDIV_256_MASK 00000018

Symbol: MCG_C1_FRDIV_256_MASK
   Definitions
      At line 326 in file MKL25Z128xxx4.s
   Uses
      At line 327 in file MKL25Z128xxx4.s
Comment: MCG_C1_FRDIV_256_MASK used once
MCG_C1_FRDIV_MASK 00000038

Symbol: MCG_C1_FRDIV_MASK
   Definitions
      At line 320 in file MKL25Z128xxx4.s
   Uses
      None
Comment: MCG_C1_FRDIV_MASK unused
MCG_C1_IRCLKEN_MASK 00000002

Symbol: MCG_C1_IRCLKEN_MASK
   Definitions
      At line 322 in file MKL25Z128xxx4.s
   Uses
      None
Comment: MCG_C1_IRCLKEN_MASK unused
MCG_C1_IREFSTEN_MASK 00000001

Symbol: MCG_C1_IREFSTEN_MASK
   Definitions
      At line 323 in file MKL25Z128xxx4.s
   Uses
      None
Comment: MCG_C1_IREFSTEN_MASK unused
MCG_C1_IREFS_MASK 00000004

Symbol: MCG_C1_IREFS_MASK
   Definitions
      At line 321 in file MKL25Z128xxx4.s
   Uses
      None
Comment: MCG_C1_IREFS_MASK unused
MCG_C1_OFFSET 00000000

Symbol: MCG_C1_OFFSET
   Definitions
      At line 284 in file MKL25Z128xxx4.s
   Uses



ARM Macro Assembler    Page 19 Alphabetic symbol ordering
Absolute symbols

      At line 290 in file MKL25Z128xxx4.s
      At line 1172 in file MKL25Z128xxx4.s
      At line 1266 in file MKL25Z128xxx4.s
      At line 1268 in file MKL25Z128xxx4.s

MCG_C2 40064001

Symbol: MCG_C2
   Definitions
      At line 291 in file MKL25Z128xxx4.s
   Uses
      None
Comment: MCG_C2 unused
MCG_C2_EREFS0_MASK 00000004

Symbol: MCG_C2_EREFS0_MASK
   Definitions
      At line 353 in file MKL25Z128xxx4.s
   Uses
      At line 357 in file MKL25Z128xxx4.s
Comment: MCG_C2_EREFS0_MASK used once
MCG_C2_HF_LP_OSC 00000014

Symbol: MCG_C2_HF_LP_OSC
   Definitions
      At line 357 in file MKL25Z128xxx4.s
   Uses
      At line 1162 in file MKL25Z128xxx4.s
Comment: MCG_C2_HF_LP_OSC used once
MCG_C2_HGO0_MASK 00000008

Symbol: MCG_C2_HGO0_MASK
   Definitions
      At line 352 in file MKL25Z128xxx4.s
   Uses
      None
Comment: MCG_C2_HGO0_MASK unused
MCG_C2_IRCS_MASK 00000001

Symbol: MCG_C2_IRCS_MASK
   Definitions
      At line 355 in file MKL25Z128xxx4.s
   Uses
      None
Comment: MCG_C2_IRCS_MASK unused
MCG_C2_LOCRE0_MASK 00000080

Symbol: MCG_C2_LOCRE0_MASK
   Definitions
      At line 350 in file MKL25Z128xxx4.s
   Uses
      None
Comment: MCG_C2_LOCRE0_MASK unused
MCG_C2_LP_MASK 00000002

Symbol: MCG_C2_LP_MASK
   Definitions
      At line 354 in file MKL25Z128xxx4.s
   Uses



ARM Macro Assembler    Page 20 Alphabetic symbol ordering
Absolute symbols

      None
Comment: MCG_C2_LP_MASK unused
MCG_C2_OFFSET 00000001

Symbol: MCG_C2_OFFSET
   Definitions
      At line 285 in file MKL25Z128xxx4.s
   Uses
      At line 291 in file MKL25Z128xxx4.s
      At line 1163 in file MKL25Z128xxx4.s

MCG_C2_RANGE0_HIGH_MASK 00000010

Symbol: MCG_C2_RANGE0_HIGH_MASK
   Definitions
      At line 356 in file MKL25Z128xxx4.s
   Uses
      At line 357 in file MKL25Z128xxx4.s
Comment: MCG_C2_RANGE0_HIGH_MASK used once
MCG_C2_RANGE0_MASK 00000030

Symbol: MCG_C2_RANGE0_MASK
   Definitions
      At line 351 in file MKL25Z128xxx4.s
   Uses
      None
Comment: MCG_C2_RANGE0_MASK unused
MCG_C4 40064003

Symbol: MCG_C4
   Definitions
      At line 292 in file MKL25Z128xxx4.s
   Uses
      None
Comment: MCG_C4 unused
MCG_C4_OFFSET 00000003

Symbol: MCG_C4_OFFSET
   Definitions
      At line 286 in file MKL25Z128xxx4.s
   Uses
      At line 292 in file MKL25Z128xxx4.s
Comment: MCG_C4_OFFSET used once
MCG_C5 40064004

Symbol: MCG_C5
   Definitions
      At line 293 in file MKL25Z128xxx4.s
   Uses
      None
Comment: MCG_C5 unused
MCG_C5_OFFSET 00000004

Symbol: MCG_C5_OFFSET
   Definitions
      At line 287 in file MKL25Z128xxx4.s
   Uses
      At line 293 in file MKL25Z128xxx4.s
      At line 1220 in file MKL25Z128xxx4.s



ARM Macro Assembler    Page 21 Alphabetic symbol ordering
Absolute symbols

      At line 1223 in file MKL25Z128xxx4.s

MCG_C5_PLLCLKEN0_MASK 00000040

Symbol: MCG_C5_PLLCLKEN0_MASK
   Definitions
      At line 366 in file MKL25Z128xxx4.s
   Uses
      None
Comment: MCG_C5_PLLCLKEN0_MASK unused
MCG_C5_PLLSTEN0_MASK 00000020

Symbol: MCG_C5_PLLSTEN0_MASK
   Definitions
      At line 367 in file MKL25Z128xxx4.s
   Uses
      None
Comment: MCG_C5_PLLSTEN0_MASK unused
MCG_C5_PRDIV0_DIV2 00000001

Symbol: MCG_C5_PRDIV0_DIV2
   Definitions
      At line 369 in file MKL25Z128xxx4.s
   Uses
      At line 1219 in file MKL25Z128xxx4.s
Comment: MCG_C5_PRDIV0_DIV2 used once
MCG_C5_PRDIV0_MASK 0000001F

Symbol: MCG_C5_PRDIV0_MASK
   Definitions
      At line 368 in file MKL25Z128xxx4.s
   Uses
      At line 1217 in file MKL25Z128xxx4.s
Comment: MCG_C5_PRDIV0_MASK used once
MCG_C6 40064005

Symbol: MCG_C6
   Definitions
      At line 294 in file MKL25Z128xxx4.s
   Uses
      None
Comment: MCG_C6 unused
MCG_C6_CME0_MASK 00000020

Symbol: MCG_C6_CME0_MASK
   Definitions
      At line 381 in file MKL25Z128xxx4.s
   Uses
      At line 1209 in file MKL25Z128xxx4.s
Comment: MCG_C6_CME0_MASK used once
MCG_C6_LOLIE0_MASK 00000080

Symbol: MCG_C6_LOLIE0_MASK
   Definitions
      At line 379 in file MKL25Z128xxx4.s
   Uses
      None
Comment: MCG_C6_LOLIE0_MASK unused
MCG_C6_OFFSET 00000005



ARM Macro Assembler    Page 22 Alphabetic symbol ordering
Absolute symbols


Symbol: MCG_C6_OFFSET
   Definitions
      At line 288 in file MKL25Z128xxx4.s
   Uses
      At line 294 in file MKL25Z128xxx4.s
      At line 1210 in file MKL25Z128xxx4.s
      At line 1212 in file MKL25Z128xxx4.s
      At line 1228 in file MKL25Z128xxx4.s
      At line 1231 in file MKL25Z128xxx4.s

MCG_C6_PLLS_MASK 00000040

Symbol: MCG_C6_PLLS_MASK
   Definitions
      At line 380 in file MKL25Z128xxx4.s
   Uses
      At line 384 in file MKL25Z128xxx4.s
Comment: MCG_C6_PLLS_MASK used once
MCG_C6_PLLS_PLL_MASK 00000040

Symbol: MCG_C6_PLLS_PLL_MASK
   Definitions
      At line 384 in file MKL25Z128xxx4.s
   Uses
      At line 385 in file MKL25Z128xxx4.s
Comment: MCG_C6_PLLS_PLL_MASK used once
MCG_C6_PLL_MUL24 00000040

Symbol: MCG_C6_PLL_MUL24
   Definitions
      At line 385 in file MKL25Z128xxx4.s
   Uses
      At line 1227 in file MKL25Z128xxx4.s
Comment: MCG_C6_PLL_MUL24 used once
MCG_C6_VDIV0_MASK 0000001F

Symbol: MCG_C6_VDIV0_MASK
   Definitions
      At line 382 in file MKL25Z128xxx4.s
   Uses
      At line 1225 in file MKL25Z128xxx4.s
Comment: MCG_C6_VDIV0_MASK used once
MCG_C6_VDIV0_MUL24 00000000

Symbol: MCG_C6_VDIV0_MUL24
   Definitions
      At line 383 in file MKL25Z128xxx4.s
   Uses
      At line 385 in file MKL25Z128xxx4.s
Comment: MCG_C6_VDIV0_MUL24 used once
MCG_S 40064006

Symbol: MCG_S
   Definitions
      At line 295 in file MKL25Z128xxx4.s
   Uses
      None
Comment: MCG_S unused



ARM Macro Assembler    Page 23 Alphabetic symbol ordering
Absolute symbols

MCG_S_CLKST_EXT_MASK 00000008

Symbol: MCG_S_CLKST_EXT_MASK
   Definitions
      At line 412 in file MKL25Z128xxx4.s
   Uses
      At line 1203 in file MKL25Z128xxx4.s
Comment: MCG_S_CLKST_EXT_MASK used once
MCG_S_CLKST_MASK 0000000C

Symbol: MCG_S_CLKST_MASK
   Definitions
      At line 409 in file MKL25Z128xxx4.s
   Uses
      At line 1198 in file MKL25Z128xxx4.s
      At line 1272 in file MKL25Z128xxx4.s

MCG_S_CLKST_PLL_MASK 0000000C

Symbol: MCG_S_CLKST_PLL_MASK
   Definitions
      At line 413 in file MKL25Z128xxx4.s
   Uses
      At line 1277 in file MKL25Z128xxx4.s
Comment: MCG_S_CLKST_PLL_MASK used once
MCG_S_IRCST_MASK 00000001

Symbol: MCG_S_IRCST_MASK
   Definitions
      At line 411 in file MKL25Z128xxx4.s
   Uses
      None
Comment: MCG_S_IRCST_MASK unused
MCG_S_IREFST_MASK 00000010

Symbol: MCG_S_IREFST_MASK
   Definitions
      At line 408 in file MKL25Z128xxx4.s
   Uses
      At line 1186 in file MKL25Z128xxx4.s
Comment: MCG_S_IREFST_MASK used once
MCG_S_LOCK0_MASK 00000040

Symbol: MCG_S_LOCK0_MASK
   Definitions
      At line 406 in file MKL25Z128xxx4.s
   Uses
      At line 1245 in file MKL25Z128xxx4.s
Comment: MCG_S_LOCK0_MASK used once
MCG_S_LOLS_MASK 00000080

Symbol: MCG_S_LOLS_MASK
   Definitions
      At line 405 in file MKL25Z128xxx4.s
   Uses
      None
Comment: MCG_S_LOLS_MASK unused
MCG_S_OFFSET 00000006




ARM Macro Assembler    Page 24 Alphabetic symbol ordering
Absolute symbols

Symbol: MCG_S_OFFSET
   Definitions
      At line 289 in file MKL25Z128xxx4.s
   Uses
      At line 295 in file MKL25Z128xxx4.s
      At line 1178 in file MKL25Z128xxx4.s
      At line 1189 in file MKL25Z128xxx4.s
      At line 1201 in file MKL25Z128xxx4.s
      At line 1237 in file MKL25Z128xxx4.s
      At line 1248 in file MKL25Z128xxx4.s
      At line 1275 in file MKL25Z128xxx4.s

MCG_S_OSCINIT0_MASK 00000002

Symbol: MCG_S_OSCINIT0_MASK
   Definitions
      At line 410 in file MKL25Z128xxx4.s
   Uses
      At line 1175 in file MKL25Z128xxx4.s
Comment: MCG_S_OSCINIT0_MASK used once
MCG_S_PLLST_MASK 00000020

Symbol: MCG_S_PLLST_MASK
   Definitions
      At line 407 in file MKL25Z128xxx4.s
   Uses
      At line 1234 in file MKL25Z128xxx4.s
Comment: MCG_S_PLLST_MASK used once
NUM_ENQD 00000011

Symbol: NUM_ENQD
   Definitions
      At line 32 in file StringOps.s
   Uses
      None
Comment: NUM_ENQD unused
OUT_PTR 00000004

Symbol: OUT_PTR
   Definitions
      At line 28 in file StringOps.s
   Uses
      None
Comment: OUT_PTR unused
PIN_ISF_MASK 01000000

Symbol: PIN_ISF_MASK
   Definitions
      At line 450 in file MKL25Z128xxx4.s
   Uses
      At line 47 in file StringOps.s
      At line 48 in file StringOps.s

PIN_MUX_MASK 00000700

Symbol: PIN_MUX_MASK
   Definitions
      At line 449 in file MKL25Z128xxx4.s
   Uses



ARM Macro Assembler    Page 25 Alphabetic symbol ordering
Absolute symbols

      None
Comment: PIN_MUX_MASK unused
PIN_MUX_SELECT_0_MASK 00000000

Symbol: PIN_MUX_SELECT_0_MASK
   Definitions
      At line 451 in file MKL25Z128xxx4.s
   Uses
      None
Comment: PIN_MUX_SELECT_0_MASK unused
PIN_MUX_SELECT_1_MASK 00000100

Symbol: PIN_MUX_SELECT_1_MASK
   Definitions
      At line 452 in file MKL25Z128xxx4.s
   Uses
      None
Comment: PIN_MUX_SELECT_1_MASK unused
PIN_MUX_SELECT_2_MASK 00000200

Symbol: PIN_MUX_SELECT_2_MASK
   Definitions
      At line 453 in file MKL25Z128xxx4.s
   Uses
      None
Comment: PIN_MUX_SELECT_2_MASK unused
PIN_MUX_SELECT_3 00000300

Symbol: PIN_MUX_SELECT_3
   Definitions
      At line 42 in file StringOps.s
   Uses
      At line 45 in file StringOps.s
      At line 46 in file StringOps.s

PIN_MUX_SELECT_3_MASK 00000300

Symbol: PIN_MUX_SELECT_3_MASK
   Definitions
      At line 454 in file MKL25Z128xxx4.s
   Uses
      None
Comment: PIN_MUX_SELECT_3_MASK unused
PIN_MUX_SELECT_4_MASK 00000400

Symbol: PIN_MUX_SELECT_4_MASK
   Definitions
      At line 455 in file MKL25Z128xxx4.s
   Uses
      None
Comment: PIN_MUX_SELECT_4_MASK unused
PIN_MUX_SELECT_5_MASK 00000500

Symbol: PIN_MUX_SELECT_5_MASK
   Definitions
      At line 456 in file MKL25Z128xxx4.s
   Uses
      None
Comment: PIN_MUX_SELECT_5_MASK unused



ARM Macro Assembler    Page 26 Alphabetic symbol ordering
Absolute symbols

PIN_MUX_SELECT_6_MASK 00000600

Symbol: PIN_MUX_SELECT_6_MASK
   Definitions
      At line 457 in file MKL25Z128xxx4.s
   Uses
      None
Comment: PIN_MUX_SELECT_6_MASK unused
PIN_MUX_SELECT_7_MASK 00000700

Symbol: PIN_MUX_SELECT_7_MASK
   Definitions
      At line 458 in file MKL25Z128xxx4.s
   Uses
      None
Comment: PIN_MUX_SELECT_7_MASK unused
PORTA_BASE 40049000

Symbol: PORTA_BASE
   Definitions
      At line 461 in file MKL25Z128xxx4.s
   Uses
      At line 497 in file MKL25Z128xxx4.s
      At line 498 in file MKL25Z128xxx4.s
      At line 499 in file MKL25Z128xxx4.s
      At line 500 in file MKL25Z128xxx4.s
      At line 501 in file MKL25Z128xxx4.s
      At line 502 in file MKL25Z128xxx4.s
      At line 503 in file MKL25Z128xxx4.s
      At line 504 in file MKL25Z128xxx4.s
      At line 505 in file MKL25Z128xxx4.s
      At line 506 in file MKL25Z128xxx4.s
      At line 507 in file MKL25Z128xxx4.s
      At line 508 in file MKL25Z128xxx4.s
      At line 509 in file MKL25Z128xxx4.s
      At line 510 in file MKL25Z128xxx4.s
      At line 511 in file MKL25Z128xxx4.s
      At line 512 in file MKL25Z128xxx4.s
      At line 513 in file MKL25Z128xxx4.s
      At line 514 in file MKL25Z128xxx4.s
      At line 515 in file MKL25Z128xxx4.s
      At line 516 in file MKL25Z128xxx4.s
      At line 517 in file MKL25Z128xxx4.s
      At line 518 in file MKL25Z128xxx4.s
      At line 519 in file MKL25Z128xxx4.s
      At line 520 in file MKL25Z128xxx4.s
      At line 521 in file MKL25Z128xxx4.s
      At line 522 in file MKL25Z128xxx4.s
      At line 523 in file MKL25Z128xxx4.s
      At line 524 in file MKL25Z128xxx4.s
      At line 525 in file MKL25Z128xxx4.s
      At line 526 in file MKL25Z128xxx4.s
      At line 527 in file MKL25Z128xxx4.s
      At line 528 in file MKL25Z128xxx4.s
      At line 529 in file MKL25Z128xxx4.s
      At line 530 in file MKL25Z128xxx4.s
      At line 531 in file MKL25Z128xxx4.s

PORTA_GPCHR 40049084



ARM Macro Assembler    Page 27 Alphabetic symbol ordering
Absolute symbols


Symbol: PORTA_GPCHR
   Definitions
      At line 530 in file MKL25Z128xxx4.s
   Uses
      None
Comment: PORTA_GPCHR unused
PORTA_GPCHR_OFFSET 00000084

Symbol: PORTA_GPCHR_OFFSET
   Definitions
      At line 495 in file MKL25Z128xxx4.s
   Uses
      At line 530 in file MKL25Z128xxx4.s
Comment: PORTA_GPCHR_OFFSET used once
PORTA_GPCLR 40049080

Symbol: PORTA_GPCLR
   Definitions
      At line 529 in file MKL25Z128xxx4.s
   Uses
      None
Comment: PORTA_GPCLR unused
PORTA_GPCLR_OFFSET 00000080

Symbol: PORTA_GPCLR_OFFSET
   Definitions
      At line 494 in file MKL25Z128xxx4.s
   Uses
      At line 529 in file MKL25Z128xxx4.s
Comment: PORTA_GPCLR_OFFSET used once
PORTA_ISFR 400490A0

Symbol: PORTA_ISFR
   Definitions
      At line 531 in file MKL25Z128xxx4.s
   Uses
      None
Comment: PORTA_ISFR unused
PORTA_ISFR_OFFSET 000000A0

Symbol: PORTA_ISFR_OFFSET
   Definitions
      At line 496 in file MKL25Z128xxx4.s
   Uses
      At line 531 in file MKL25Z128xxx4.s
Comment: PORTA_ISFR_OFFSET used once
PORTA_PCR0 40049000

Symbol: PORTA_PCR0
   Definitions
      At line 497 in file MKL25Z128xxx4.s
   Uses
      None
Comment: PORTA_PCR0 unused
PORTA_PCR0_OFFSET 00000000

Symbol: PORTA_PCR0_OFFSET
   Definitions



ARM Macro Assembler    Page 28 Alphabetic symbol ordering
Absolute symbols

      At line 462 in file MKL25Z128xxx4.s
   Uses
      At line 497 in file MKL25Z128xxx4.s
Comment: PORTA_PCR0_OFFSET used once
PORTA_PCR1 40049004

Symbol: PORTA_PCR1
   Definitions
      At line 498 in file MKL25Z128xxx4.s
   Uses
      None
Comment: PORTA_PCR1 unused
PORTA_PCR10 40049028

Symbol: PORTA_PCR10
   Definitions
      At line 507 in file MKL25Z128xxx4.s
   Uses
      None
Comment: PORTA_PCR10 unused
PORTA_PCR10_OFFSET 00000028

Symbol: PORTA_PCR10_OFFSET
   Definitions
      At line 472 in file MKL25Z128xxx4.s
   Uses
      At line 507 in file MKL25Z128xxx4.s
Comment: PORTA_PCR10_OFFSET used once
PORTA_PCR11 4004902C

Symbol: PORTA_PCR11
   Definitions
      At line 508 in file MKL25Z128xxx4.s
   Uses
      None
Comment: PORTA_PCR11 unused
PORTA_PCR11_OFFSET 0000002C

Symbol: PORTA_PCR11_OFFSET
   Definitions
      At line 473 in file MKL25Z128xxx4.s
   Uses
      At line 508 in file MKL25Z128xxx4.s
Comment: PORTA_PCR11_OFFSET used once
PORTA_PCR12 40049030

Symbol: PORTA_PCR12
   Definitions
      At line 509 in file MKL25Z128xxx4.s
   Uses
      None
Comment: PORTA_PCR12 unused
PORTA_PCR12_OFFSET 00000030

Symbol: PORTA_PCR12_OFFSET
   Definitions
      At line 474 in file MKL25Z128xxx4.s
   Uses
      At line 509 in file MKL25Z128xxx4.s



ARM Macro Assembler    Page 29 Alphabetic symbol ordering
Absolute symbols

Comment: PORTA_PCR12_OFFSET used once
PORTA_PCR13 40049034

Symbol: PORTA_PCR13
   Definitions
      At line 510 in file MKL25Z128xxx4.s
   Uses
      None
Comment: PORTA_PCR13 unused
PORTA_PCR13_OFFSET 00000034

Symbol: PORTA_PCR13_OFFSET
   Definitions
      At line 475 in file MKL25Z128xxx4.s
   Uses
      At line 510 in file MKL25Z128xxx4.s
Comment: PORTA_PCR13_OFFSET used once
PORTA_PCR14 40049038

Symbol: PORTA_PCR14
   Definitions
      At line 511 in file MKL25Z128xxx4.s
   Uses
      None
Comment: PORTA_PCR14 unused
PORTA_PCR14_OFFSET 00000038

Symbol: PORTA_PCR14_OFFSET
   Definitions
      At line 476 in file MKL25Z128xxx4.s
   Uses
      At line 511 in file MKL25Z128xxx4.s
Comment: PORTA_PCR14_OFFSET used once
PORTA_PCR15 4004903C

Symbol: PORTA_PCR15
   Definitions
      At line 512 in file MKL25Z128xxx4.s
   Uses
      None
Comment: PORTA_PCR15 unused
PORTA_PCR15_OFFSET 0000003C

Symbol: PORTA_PCR15_OFFSET
   Definitions
      At line 477 in file MKL25Z128xxx4.s
   Uses
      At line 512 in file MKL25Z128xxx4.s
Comment: PORTA_PCR15_OFFSET used once
PORTA_PCR16 40049040

Symbol: PORTA_PCR16
   Definitions
      At line 513 in file MKL25Z128xxx4.s
   Uses
      None
Comment: PORTA_PCR16 unused
PORTA_PCR16_OFFSET 00000040




ARM Macro Assembler    Page 30 Alphabetic symbol ordering
Absolute symbols

Symbol: PORTA_PCR16_OFFSET
   Definitions
      At line 478 in file MKL25Z128xxx4.s
   Uses
      At line 513 in file MKL25Z128xxx4.s
Comment: PORTA_PCR16_OFFSET used once
PORTA_PCR17 40049044

Symbol: PORTA_PCR17
   Definitions
      At line 514 in file MKL25Z128xxx4.s
   Uses
      None
Comment: PORTA_PCR17 unused
PORTA_PCR17_OFFSET 00000044

Symbol: PORTA_PCR17_OFFSET
   Definitions
      At line 479 in file MKL25Z128xxx4.s
   Uses
      At line 514 in file MKL25Z128xxx4.s
Comment: PORTA_PCR17_OFFSET used once
PORTA_PCR18 40049048

Symbol: PORTA_PCR18
   Definitions
      At line 515 in file MKL25Z128xxx4.s
   Uses
      None
Comment: PORTA_PCR18 unused
PORTA_PCR18_OFFSET 00000048

Symbol: PORTA_PCR18_OFFSET
   Definitions
      At line 480 in file MKL25Z128xxx4.s
   Uses
      At line 515 in file MKL25Z128xxx4.s
Comment: PORTA_PCR18_OFFSET used once
PORTA_PCR19 4004904C

Symbol: PORTA_PCR19
   Definitions
      At line 516 in file MKL25Z128xxx4.s
   Uses
      None
Comment: PORTA_PCR19 unused
PORTA_PCR19_OFFSET 0000004C

Symbol: PORTA_PCR19_OFFSET
   Definitions
      At line 481 in file MKL25Z128xxx4.s
   Uses
      At line 516 in file MKL25Z128xxx4.s
Comment: PORTA_PCR19_OFFSET used once
PORTA_PCR1_OFFSET 00000004

Symbol: PORTA_PCR1_OFFSET
   Definitions
      At line 463 in file MKL25Z128xxx4.s



ARM Macro Assembler    Page 31 Alphabetic symbol ordering
Absolute symbols

   Uses
      At line 498 in file MKL25Z128xxx4.s
Comment: PORTA_PCR1_OFFSET used once
PORTA_PCR2 40049008

Symbol: PORTA_PCR2
   Definitions
      At line 499 in file MKL25Z128xxx4.s
   Uses
      None
Comment: PORTA_PCR2 unused
PORTA_PCR20 40049050

Symbol: PORTA_PCR20
   Definitions
      At line 517 in file MKL25Z128xxx4.s
   Uses
      None
Comment: PORTA_PCR20 unused
PORTA_PCR20_OFFSET 00000050

Symbol: PORTA_PCR20_OFFSET
   Definitions
      At line 482 in file MKL25Z128xxx4.s
   Uses
      At line 517 in file MKL25Z128xxx4.s
Comment: PORTA_PCR20_OFFSET used once
PORTA_PCR21 40049054

Symbol: PORTA_PCR21
   Definitions
      At line 518 in file MKL25Z128xxx4.s
   Uses
      None
Comment: PORTA_PCR21 unused
PORTA_PCR21_OFFSET 00000054

Symbol: PORTA_PCR21_OFFSET
   Definitions
      At line 483 in file MKL25Z128xxx4.s
   Uses
      At line 518 in file MKL25Z128xxx4.s
Comment: PORTA_PCR21_OFFSET used once
PORTA_PCR22 40049058

Symbol: PORTA_PCR22
   Definitions
      At line 519 in file MKL25Z128xxx4.s
   Uses
      None
Comment: PORTA_PCR22 unused
PORTA_PCR22_OFFSET 00000058

Symbol: PORTA_PCR22_OFFSET
   Definitions
      At line 484 in file MKL25Z128xxx4.s
   Uses
      At line 519 in file MKL25Z128xxx4.s
Comment: PORTA_PCR22_OFFSET used once



ARM Macro Assembler    Page 32 Alphabetic symbol ordering
Absolute symbols

PORTA_PCR23 4004905C

Symbol: PORTA_PCR23
   Definitions
      At line 520 in file MKL25Z128xxx4.s
   Uses
      None
Comment: PORTA_PCR23 unused
PORTA_PCR23_OFFSET 0000005C

Symbol: PORTA_PCR23_OFFSET
   Definitions
      At line 485 in file MKL25Z128xxx4.s
   Uses
      At line 520 in file MKL25Z128xxx4.s
Comment: PORTA_PCR23_OFFSET used once
PORTA_PCR24 40049060

Symbol: PORTA_PCR24
   Definitions
      At line 521 in file MKL25Z128xxx4.s
   Uses
      None
Comment: PORTA_PCR24 unused
PORTA_PCR24_OFFSET 00000060

Symbol: PORTA_PCR24_OFFSET
   Definitions
      At line 486 in file MKL25Z128xxx4.s
   Uses
      At line 521 in file MKL25Z128xxx4.s
Comment: PORTA_PCR24_OFFSET used once
PORTA_PCR25 40049064

Symbol: PORTA_PCR25
   Definitions
      At line 522 in file MKL25Z128xxx4.s
   Uses
      None
Comment: PORTA_PCR25 unused
PORTA_PCR25_OFFSET 00000064

Symbol: PORTA_PCR25_OFFSET
   Definitions
      At line 487 in file MKL25Z128xxx4.s
   Uses
      At line 522 in file MKL25Z128xxx4.s
Comment: PORTA_PCR25_OFFSET used once
PORTA_PCR26 40049068

Symbol: PORTA_PCR26
   Definitions
      At line 523 in file MKL25Z128xxx4.s
   Uses
      None
Comment: PORTA_PCR26 unused
PORTA_PCR26_OFFSET 00000068

Symbol: PORTA_PCR26_OFFSET



ARM Macro Assembler    Page 33 Alphabetic symbol ordering
Absolute symbols

   Definitions
      At line 488 in file MKL25Z128xxx4.s
   Uses
      At line 523 in file MKL25Z128xxx4.s
Comment: PORTA_PCR26_OFFSET used once
PORTA_PCR27 4004906C

Symbol: PORTA_PCR27
   Definitions
      At line 524 in file MKL25Z128xxx4.s
   Uses
      None
Comment: PORTA_PCR27 unused
PORTA_PCR27_OFFSET 0000006C

Symbol: PORTA_PCR27_OFFSET
   Definitions
      At line 489 in file MKL25Z128xxx4.s
   Uses
      At line 524 in file MKL25Z128xxx4.s
Comment: PORTA_PCR27_OFFSET used once
PORTA_PCR28 40049070

Symbol: PORTA_PCR28
   Definitions
      At line 525 in file MKL25Z128xxx4.s
   Uses
      None
Comment: PORTA_PCR28 unused
PORTA_PCR28_OFFSET 00000070

Symbol: PORTA_PCR28_OFFSET
   Definitions
      At line 490 in file MKL25Z128xxx4.s
   Uses
      At line 525 in file MKL25Z128xxx4.s
Comment: PORTA_PCR28_OFFSET used once
PORTA_PCR29 40049074

Symbol: PORTA_PCR29
   Definitions
      At line 526 in file MKL25Z128xxx4.s
   Uses
      None
Comment: PORTA_PCR29 unused
PORTA_PCR29_OFFSET 00000074

Symbol: PORTA_PCR29_OFFSET
   Definitions
      At line 491 in file MKL25Z128xxx4.s
   Uses
      At line 526 in file MKL25Z128xxx4.s
Comment: PORTA_PCR29_OFFSET used once
PORTA_PCR2_OFFSET 00000008

Symbol: PORTA_PCR2_OFFSET
   Definitions
      At line 464 in file MKL25Z128xxx4.s
   Uses



ARM Macro Assembler    Page 34 Alphabetic symbol ordering
Absolute symbols

      At line 499 in file MKL25Z128xxx4.s
Comment: PORTA_PCR2_OFFSET used once
PORTA_PCR3 4004900C

Symbol: PORTA_PCR3
   Definitions
      At line 500 in file MKL25Z128xxx4.s
   Uses
      None
Comment: PORTA_PCR3 unused
PORTA_PCR30 40049078

Symbol: PORTA_PCR30
   Definitions
      At line 527 in file MKL25Z128xxx4.s
   Uses
      None
Comment: PORTA_PCR30 unused
PORTA_PCR30_OFFSET 00000078

Symbol: PORTA_PCR30_OFFSET
   Definitions
      At line 492 in file MKL25Z128xxx4.s
   Uses
      At line 527 in file MKL25Z128xxx4.s
Comment: PORTA_PCR30_OFFSET used once
PORTA_PCR31 4004907C

Symbol: PORTA_PCR31
   Definitions
      At line 528 in file MKL25Z128xxx4.s
   Uses
      None
Comment: PORTA_PCR31 unused
PORTA_PCR31_OFFSET 0000007C

Symbol: PORTA_PCR31_OFFSET
   Definitions
      At line 493 in file MKL25Z128xxx4.s
   Uses
      At line 528 in file MKL25Z128xxx4.s
Comment: PORTA_PCR31_OFFSET used once
PORTA_PCR3_OFFSET 0000000C

Symbol: PORTA_PCR3_OFFSET
   Definitions
      At line 465 in file MKL25Z128xxx4.s
   Uses
      At line 500 in file MKL25Z128xxx4.s
Comment: PORTA_PCR3_OFFSET used once
PORTA_PCR4 40049010

Symbol: PORTA_PCR4
   Definitions
      At line 501 in file MKL25Z128xxx4.s
   Uses
      None
Comment: PORTA_PCR4 unused
PORTA_PCR4_OFFSET 00000010



ARM Macro Assembler    Page 35 Alphabetic symbol ordering
Absolute symbols


Symbol: PORTA_PCR4_OFFSET
   Definitions
      At line 466 in file MKL25Z128xxx4.s
   Uses
      At line 501 in file MKL25Z128xxx4.s
Comment: PORTA_PCR4_OFFSET used once
PORTA_PCR5 40049014

Symbol: PORTA_PCR5
   Definitions
      At line 502 in file MKL25Z128xxx4.s
   Uses
      None
Comment: PORTA_PCR5 unused
PORTA_PCR5_OFFSET 00000014

Symbol: PORTA_PCR5_OFFSET
   Definitions
      At line 467 in file MKL25Z128xxx4.s
   Uses
      At line 502 in file MKL25Z128xxx4.s
Comment: PORTA_PCR5_OFFSET used once
PORTA_PCR6 40049018

Symbol: PORTA_PCR6
   Definitions
      At line 503 in file MKL25Z128xxx4.s
   Uses
      None
Comment: PORTA_PCR6 unused
PORTA_PCR6_OFFSET 00000018

Symbol: PORTA_PCR6_OFFSET
   Definitions
      At line 468 in file MKL25Z128xxx4.s
   Uses
      At line 503 in file MKL25Z128xxx4.s
Comment: PORTA_PCR6_OFFSET used once
PORTA_PCR7 4004901C

Symbol: PORTA_PCR7
   Definitions
      At line 504 in file MKL25Z128xxx4.s
   Uses
      None
Comment: PORTA_PCR7 unused
PORTA_PCR7_OFFSET 0000001C

Symbol: PORTA_PCR7_OFFSET
   Definitions
      At line 469 in file MKL25Z128xxx4.s
   Uses
      At line 504 in file MKL25Z128xxx4.s
Comment: PORTA_PCR7_OFFSET used once
PORTA_PCR8 40049020

Symbol: PORTA_PCR8
   Definitions



ARM Macro Assembler    Page 36 Alphabetic symbol ordering
Absolute symbols

      At line 505 in file MKL25Z128xxx4.s
   Uses
      None
Comment: PORTA_PCR8 unused
PORTA_PCR8_OFFSET 00000020

Symbol: PORTA_PCR8_OFFSET
   Definitions
      At line 470 in file MKL25Z128xxx4.s
   Uses
      At line 505 in file MKL25Z128xxx4.s
Comment: PORTA_PCR8_OFFSET used once
PORTA_PCR9 40049024

Symbol: PORTA_PCR9
   Definitions
      At line 506 in file MKL25Z128xxx4.s
   Uses
      None
Comment: PORTA_PCR9 unused
PORTA_PCR9_OFFSET 00000024

Symbol: PORTA_PCR9_OFFSET
   Definitions
      At line 471 in file MKL25Z128xxx4.s
   Uses
      At line 506 in file MKL25Z128xxx4.s
Comment: PORTA_PCR9_OFFSET used once
PORTB_BASE 4004A000

Symbol: PORTB_BASE
   Definitions
      At line 534 in file MKL25Z128xxx4.s
   Uses
      At line 570 in file MKL25Z128xxx4.s
      At line 571 in file MKL25Z128xxx4.s
      At line 572 in file MKL25Z128xxx4.s
      At line 573 in file MKL25Z128xxx4.s
      At line 574 in file MKL25Z128xxx4.s
      At line 575 in file MKL25Z128xxx4.s
      At line 576 in file MKL25Z128xxx4.s
      At line 577 in file MKL25Z128xxx4.s
      At line 578 in file MKL25Z128xxx4.s
      At line 579 in file MKL25Z128xxx4.s
      At line 580 in file MKL25Z128xxx4.s
      At line 581 in file MKL25Z128xxx4.s
      At line 582 in file MKL25Z128xxx4.s
      At line 583 in file MKL25Z128xxx4.s
      At line 584 in file MKL25Z128xxx4.s
      At line 585 in file MKL25Z128xxx4.s
      At line 586 in file MKL25Z128xxx4.s
      At line 587 in file MKL25Z128xxx4.s
      At line 588 in file MKL25Z128xxx4.s
      At line 589 in file MKL25Z128xxx4.s
      At line 590 in file MKL25Z128xxx4.s
      At line 591 in file MKL25Z128xxx4.s
      At line 592 in file MKL25Z128xxx4.s
      At line 593 in file MKL25Z128xxx4.s
      At line 594 in file MKL25Z128xxx4.s



ARM Macro Assembler    Page 37 Alphabetic symbol ordering
Absolute symbols

      At line 595 in file MKL25Z128xxx4.s
      At line 596 in file MKL25Z128xxx4.s
      At line 597 in file MKL25Z128xxx4.s
      At line 598 in file MKL25Z128xxx4.s
      At line 599 in file MKL25Z128xxx4.s
      At line 600 in file MKL25Z128xxx4.s
      At line 601 in file MKL25Z128xxx4.s
      At line 602 in file MKL25Z128xxx4.s
      At line 603 in file MKL25Z128xxx4.s
      At line 604 in file MKL25Z128xxx4.s

PORTB_GPCHR 4004A084

Symbol: PORTB_GPCHR
   Definitions
      At line 603 in file MKL25Z128xxx4.s
   Uses
      None
Comment: PORTB_GPCHR unused
PORTB_GPCHR_OFFSET 00000084

Symbol: PORTB_GPCHR_OFFSET
   Definitions
      At line 568 in file MKL25Z128xxx4.s
   Uses
      At line 603 in file MKL25Z128xxx4.s
Comment: PORTB_GPCHR_OFFSET used once
PORTB_GPCLR 4004A080

Symbol: PORTB_GPCLR
   Definitions
      At line 602 in file MKL25Z128xxx4.s
   Uses
      None
Comment: PORTB_GPCLR unused
PORTB_GPCLR_OFFSET 00000080

Symbol: PORTB_GPCLR_OFFSET
   Definitions
      At line 567 in file MKL25Z128xxx4.s
   Uses
      At line 602 in file MKL25Z128xxx4.s
Comment: PORTB_GPCLR_OFFSET used once
PORTB_ISFR 4004A0A0

Symbol: PORTB_ISFR
   Definitions
      At line 604 in file MKL25Z128xxx4.s
   Uses
      None
Comment: PORTB_ISFR unused
PORTB_ISFR_OFFSET 000000A0

Symbol: PORTB_ISFR_OFFSET
   Definitions
      At line 569 in file MKL25Z128xxx4.s
   Uses
      At line 604 in file MKL25Z128xxx4.s
Comment: PORTB_ISFR_OFFSET used once



ARM Macro Assembler    Page 38 Alphabetic symbol ordering
Absolute symbols

PORTB_PCR0 4004A000

Symbol: PORTB_PCR0
   Definitions
      At line 570 in file MKL25Z128xxx4.s
   Uses
      None
Comment: PORTB_PCR0 unused
PORTB_PCR0_OFFSET 00000000

Symbol: PORTB_PCR0_OFFSET
   Definitions
      At line 535 in file MKL25Z128xxx4.s
   Uses
      At line 570 in file MKL25Z128xxx4.s
Comment: PORTB_PCR0_OFFSET used once
PORTB_PCR1 4004A004

Symbol: PORTB_PCR1
   Definitions
      At line 571 in file MKL25Z128xxx4.s
   Uses
      None
Comment: PORTB_PCR1 unused
PORTB_PCR10 4004A028

Symbol: PORTB_PCR10
   Definitions
      At line 580 in file MKL25Z128xxx4.s
   Uses
      None
Comment: PORTB_PCR10 unused
PORTB_PCR10_OFFSET 00000028

Symbol: PORTB_PCR10_OFFSET
   Definitions
      At line 545 in file MKL25Z128xxx4.s
   Uses
      At line 580 in file MKL25Z128xxx4.s
Comment: PORTB_PCR10_OFFSET used once
PORTB_PCR11 4004A02C

Symbol: PORTB_PCR11
   Definitions
      At line 581 in file MKL25Z128xxx4.s
   Uses
      None
Comment: PORTB_PCR11 unused
PORTB_PCR11_OFFSET 0000002C

Symbol: PORTB_PCR11_OFFSET
   Definitions
      At line 546 in file MKL25Z128xxx4.s
   Uses
      At line 581 in file MKL25Z128xxx4.s
Comment: PORTB_PCR11_OFFSET used once
PORTB_PCR12 4004A030

Symbol: PORTB_PCR12



ARM Macro Assembler    Page 39 Alphabetic symbol ordering
Absolute symbols

   Definitions
      At line 582 in file MKL25Z128xxx4.s
   Uses
      None
Comment: PORTB_PCR12 unused
PORTB_PCR12_OFFSET 00000030

Symbol: PORTB_PCR12_OFFSET
   Definitions
      At line 547 in file MKL25Z128xxx4.s
   Uses
      At line 582 in file MKL25Z128xxx4.s
Comment: PORTB_PCR12_OFFSET used once
PORTB_PCR13 4004A034

Symbol: PORTB_PCR13
   Definitions
      At line 583 in file MKL25Z128xxx4.s
   Uses
      None
Comment: PORTB_PCR13 unused
PORTB_PCR13_OFFSET 00000034

Symbol: PORTB_PCR13_OFFSET
   Definitions
      At line 548 in file MKL25Z128xxx4.s
   Uses
      At line 583 in file MKL25Z128xxx4.s
Comment: PORTB_PCR13_OFFSET used once
PORTB_PCR14 4004A038

Symbol: PORTB_PCR14
   Definitions
      At line 584 in file MKL25Z128xxx4.s
   Uses
      None
Comment: PORTB_PCR14 unused
PORTB_PCR14_OFFSET 00000038

Symbol: PORTB_PCR14_OFFSET
   Definitions
      At line 549 in file MKL25Z128xxx4.s
   Uses
      At line 584 in file MKL25Z128xxx4.s
Comment: PORTB_PCR14_OFFSET used once
PORTB_PCR15 4004A03C

Symbol: PORTB_PCR15
   Definitions
      At line 585 in file MKL25Z128xxx4.s
   Uses
      None
Comment: PORTB_PCR15 unused
PORTB_PCR15_OFFSET 0000003C

Symbol: PORTB_PCR15_OFFSET
   Definitions
      At line 550 in file MKL25Z128xxx4.s
   Uses



ARM Macro Assembler    Page 40 Alphabetic symbol ordering
Absolute symbols

      At line 585 in file MKL25Z128xxx4.s
Comment: PORTB_PCR15_OFFSET used once
PORTB_PCR16 4004A040

Symbol: PORTB_PCR16
   Definitions
      At line 586 in file MKL25Z128xxx4.s
   Uses
      None
Comment: PORTB_PCR16 unused
PORTB_PCR16_OFFSET 00000040

Symbol: PORTB_PCR16_OFFSET
   Definitions
      At line 551 in file MKL25Z128xxx4.s
   Uses
      At line 586 in file MKL25Z128xxx4.s
Comment: PORTB_PCR16_OFFSET used once
PORTB_PCR17 4004A044

Symbol: PORTB_PCR17
   Definitions
      At line 587 in file MKL25Z128xxx4.s
   Uses
      None
Comment: PORTB_PCR17 unused
PORTB_PCR17_OFFSET 00000044

Symbol: PORTB_PCR17_OFFSET
   Definitions
      At line 552 in file MKL25Z128xxx4.s
   Uses
      At line 587 in file MKL25Z128xxx4.s
Comment: PORTB_PCR17_OFFSET used once
PORTB_PCR18 4004A048

Symbol: PORTB_PCR18
   Definitions
      At line 588 in file MKL25Z128xxx4.s
   Uses
      None
Comment: PORTB_PCR18 unused
PORTB_PCR18_OFFSET 00000048

Symbol: PORTB_PCR18_OFFSET
   Definitions
      At line 553 in file MKL25Z128xxx4.s
   Uses
      At line 588 in file MKL25Z128xxx4.s
Comment: PORTB_PCR18_OFFSET used once
PORTB_PCR19 4004A04C

Symbol: PORTB_PCR19
   Definitions
      At line 589 in file MKL25Z128xxx4.s
   Uses
      None
Comment: PORTB_PCR19 unused
PORTB_PCR19_OFFSET 0000004C



ARM Macro Assembler    Page 41 Alphabetic symbol ordering
Absolute symbols


Symbol: PORTB_PCR19_OFFSET
   Definitions
      At line 554 in file MKL25Z128xxx4.s
   Uses
      At line 589 in file MKL25Z128xxx4.s
Comment: PORTB_PCR19_OFFSET used once
PORTB_PCR1_OFFSET 00000004

Symbol: PORTB_PCR1_OFFSET
   Definitions
      At line 536 in file MKL25Z128xxx4.s
   Uses
      At line 571 in file MKL25Z128xxx4.s
Comment: PORTB_PCR1_OFFSET used once
PORTB_PCR2 4004A008

Symbol: PORTB_PCR2
   Definitions
      At line 572 in file MKL25Z128xxx4.s
   Uses
      None
Comment: PORTB_PCR2 unused
PORTB_PCR20 4004A050

Symbol: PORTB_PCR20
   Definitions
      At line 590 in file MKL25Z128xxx4.s
   Uses
      None
Comment: PORTB_PCR20 unused
PORTB_PCR20_OFFSET 00000050

Symbol: PORTB_PCR20_OFFSET
   Definitions
      At line 555 in file MKL25Z128xxx4.s
   Uses
      At line 590 in file MKL25Z128xxx4.s
Comment: PORTB_PCR20_OFFSET used once
PORTB_PCR21 4004A054

Symbol: PORTB_PCR21
   Definitions
      At line 591 in file MKL25Z128xxx4.s
   Uses
      None
Comment: PORTB_PCR21 unused
PORTB_PCR21_OFFSET 00000054

Symbol: PORTB_PCR21_OFFSET
   Definitions
      At line 556 in file MKL25Z128xxx4.s
   Uses
      At line 591 in file MKL25Z128xxx4.s
Comment: PORTB_PCR21_OFFSET used once
PORTB_PCR22 4004A058

Symbol: PORTB_PCR22
   Definitions



ARM Macro Assembler    Page 42 Alphabetic symbol ordering
Absolute symbols

      At line 592 in file MKL25Z128xxx4.s
   Uses
      None
Comment: PORTB_PCR22 unused
PORTB_PCR22_OFFSET 00000058

Symbol: PORTB_PCR22_OFFSET
   Definitions
      At line 557 in file MKL25Z128xxx4.s
   Uses
      At line 592 in file MKL25Z128xxx4.s
Comment: PORTB_PCR22_OFFSET used once
PORTB_PCR23 4004A05C

Symbol: PORTB_PCR23
   Definitions
      At line 593 in file MKL25Z128xxx4.s
   Uses
      None
Comment: PORTB_PCR23 unused
PORTB_PCR23_OFFSET 0000005C

Symbol: PORTB_PCR23_OFFSET
   Definitions
      At line 558 in file MKL25Z128xxx4.s
   Uses
      At line 593 in file MKL25Z128xxx4.s
Comment: PORTB_PCR23_OFFSET used once
PORTB_PCR24 4004A060

Symbol: PORTB_PCR24
   Definitions
      At line 594 in file MKL25Z128xxx4.s
   Uses
      None
Comment: PORTB_PCR24 unused
PORTB_PCR24_OFFSET 00000060

Symbol: PORTB_PCR24_OFFSET
   Definitions
      At line 559 in file MKL25Z128xxx4.s
   Uses
      At line 594 in file MKL25Z128xxx4.s
Comment: PORTB_PCR24_OFFSET used once
PORTB_PCR25 4004A064

Symbol: PORTB_PCR25
   Definitions
      At line 595 in file MKL25Z128xxx4.s
   Uses
      None
Comment: PORTB_PCR25 unused
PORTB_PCR25_OFFSET 00000064

Symbol: PORTB_PCR25_OFFSET
   Definitions
      At line 560 in file MKL25Z128xxx4.s
   Uses
      At line 595 in file MKL25Z128xxx4.s



ARM Macro Assembler    Page 43 Alphabetic symbol ordering
Absolute symbols

Comment: PORTB_PCR25_OFFSET used once
PORTB_PCR26 4004A068

Symbol: PORTB_PCR26
   Definitions
      At line 596 in file MKL25Z128xxx4.s
   Uses
      None
Comment: PORTB_PCR26 unused
PORTB_PCR26_OFFSET 00000068

Symbol: PORTB_PCR26_OFFSET
   Definitions
      At line 561 in file MKL25Z128xxx4.s
   Uses
      At line 596 in file MKL25Z128xxx4.s
Comment: PORTB_PCR26_OFFSET used once
PORTB_PCR27 4004A06C

Symbol: PORTB_PCR27
   Definitions
      At line 597 in file MKL25Z128xxx4.s
   Uses
      None
Comment: PORTB_PCR27 unused
PORTB_PCR27_OFFSET 0000006C

Symbol: PORTB_PCR27_OFFSET
   Definitions
      At line 562 in file MKL25Z128xxx4.s
   Uses
      At line 597 in file MKL25Z128xxx4.s
Comment: PORTB_PCR27_OFFSET used once
PORTB_PCR28 4004A070

Symbol: PORTB_PCR28
   Definitions
      At line 598 in file MKL25Z128xxx4.s
   Uses
      None
Comment: PORTB_PCR28 unused
PORTB_PCR28_OFFSET 00000070

Symbol: PORTB_PCR28_OFFSET
   Definitions
      At line 563 in file MKL25Z128xxx4.s
   Uses
      At line 598 in file MKL25Z128xxx4.s
Comment: PORTB_PCR28_OFFSET used once
PORTB_PCR29 4004A074

Symbol: PORTB_PCR29
   Definitions
      At line 599 in file MKL25Z128xxx4.s
   Uses
      None
Comment: PORTB_PCR29 unused
PORTB_PCR29_OFFSET 00000074




ARM Macro Assembler    Page 44 Alphabetic symbol ordering
Absolute symbols

Symbol: PORTB_PCR29_OFFSET
   Definitions
      At line 564 in file MKL25Z128xxx4.s
   Uses
      At line 599 in file MKL25Z128xxx4.s
Comment: PORTB_PCR29_OFFSET used once
PORTB_PCR2_OFFSET 00000008

Symbol: PORTB_PCR2_OFFSET
   Definitions
      At line 537 in file MKL25Z128xxx4.s
   Uses
      At line 572 in file MKL25Z128xxx4.s
Comment: PORTB_PCR2_OFFSET used once
PORTB_PCR3 4004A00C

Symbol: PORTB_PCR3
   Definitions
      At line 573 in file MKL25Z128xxx4.s
   Uses
      None
Comment: PORTB_PCR3 unused
PORTB_PCR30 4004A078

Symbol: PORTB_PCR30
   Definitions
      At line 600 in file MKL25Z128xxx4.s
   Uses
      None
Comment: PORTB_PCR30 unused
PORTB_PCR30_OFFSET 00000078

Symbol: PORTB_PCR30_OFFSET
   Definitions
      At line 565 in file MKL25Z128xxx4.s
   Uses
      At line 600 in file MKL25Z128xxx4.s
Comment: PORTB_PCR30_OFFSET used once
PORTB_PCR31 4004A07C

Symbol: PORTB_PCR31
   Definitions
      At line 601 in file MKL25Z128xxx4.s
   Uses
      None
Comment: PORTB_PCR31 unused
PORTB_PCR31_OFFSET 0000007C

Symbol: PORTB_PCR31_OFFSET
   Definitions
      At line 566 in file MKL25Z128xxx4.s
   Uses
      At line 601 in file MKL25Z128xxx4.s
Comment: PORTB_PCR31_OFFSET used once
PORTB_PCR3_OFFSET 0000000C

Symbol: PORTB_PCR3_OFFSET
   Definitions
      At line 538 in file MKL25Z128xxx4.s



ARM Macro Assembler    Page 45 Alphabetic symbol ordering
Absolute symbols

   Uses
      At line 573 in file MKL25Z128xxx4.s
Comment: PORTB_PCR3_OFFSET used once
PORTB_PCR4 4004A010

Symbol: PORTB_PCR4
   Definitions
      At line 574 in file MKL25Z128xxx4.s
   Uses
      None
Comment: PORTB_PCR4 unused
PORTB_PCR4_OFFSET 00000010

Symbol: PORTB_PCR4_OFFSET
   Definitions
      At line 539 in file MKL25Z128xxx4.s
   Uses
      At line 574 in file MKL25Z128xxx4.s
Comment: PORTB_PCR4_OFFSET used once
PORTB_PCR5 4004A014

Symbol: PORTB_PCR5
   Definitions
      At line 575 in file MKL25Z128xxx4.s
   Uses
      None
Comment: PORTB_PCR5 unused
PORTB_PCR5_OFFSET 00000014

Symbol: PORTB_PCR5_OFFSET
   Definitions
      At line 540 in file MKL25Z128xxx4.s
   Uses
      At line 575 in file MKL25Z128xxx4.s
Comment: PORTB_PCR5_OFFSET used once
PORTB_PCR6 4004A018

Symbol: PORTB_PCR6
   Definitions
      At line 576 in file MKL25Z128xxx4.s
   Uses
      None
Comment: PORTB_PCR6 unused
PORTB_PCR6_OFFSET 00000018

Symbol: PORTB_PCR6_OFFSET
   Definitions
      At line 541 in file MKL25Z128xxx4.s
   Uses
      At line 576 in file MKL25Z128xxx4.s
Comment: PORTB_PCR6_OFFSET used once
PORTB_PCR7 4004A01C

Symbol: PORTB_PCR7
   Definitions
      At line 577 in file MKL25Z128xxx4.s
   Uses
      None
Comment: PORTB_PCR7 unused



ARM Macro Assembler    Page 46 Alphabetic symbol ordering
Absolute symbols

PORTB_PCR7_OFFSET 0000001C

Symbol: PORTB_PCR7_OFFSET
   Definitions
      At line 542 in file MKL25Z128xxx4.s
   Uses
      At line 577 in file MKL25Z128xxx4.s
Comment: PORTB_PCR7_OFFSET used once
PORTB_PCR8 4004A020

Symbol: PORTB_PCR8
   Definitions
      At line 578 in file MKL25Z128xxx4.s
   Uses
      None
Comment: PORTB_PCR8 unused
PORTB_PCR8_OFFSET 00000020

Symbol: PORTB_PCR8_OFFSET
   Definitions
      At line 543 in file MKL25Z128xxx4.s
   Uses
      At line 578 in file MKL25Z128xxx4.s
Comment: PORTB_PCR8_OFFSET used once
PORTB_PCR9 4004A024

Symbol: PORTB_PCR9
   Definitions
      At line 579 in file MKL25Z128xxx4.s
   Uses
      None
Comment: PORTB_PCR9 unused
PORTB_PCR9_OFFSET 00000024

Symbol: PORTB_PCR9_OFFSET
   Definitions
      At line 544 in file MKL25Z128xxx4.s
   Uses
      At line 579 in file MKL25Z128xxx4.s
Comment: PORTB_PCR9_OFFSET used once
PORTCCGC_MASK 00000800

Symbol: PORTCCGC_MASK
   Definitions
      At line 56 in file StringOps.s
   Uses
      At line 557 in file StringOps.s
Comment: PORTCCGC_MASK used once
PORTC_BASE 4004B000

Symbol: PORTC_BASE
   Definitions
      At line 607 in file MKL25Z128xxx4.s
   Uses
      At line 643 in file MKL25Z128xxx4.s
      At line 644 in file MKL25Z128xxx4.s
      At line 645 in file MKL25Z128xxx4.s
      At line 646 in file MKL25Z128xxx4.s
      At line 647 in file MKL25Z128xxx4.s



ARM Macro Assembler    Page 47 Alphabetic symbol ordering
Absolute symbols

      At line 648 in file MKL25Z128xxx4.s
      At line 649 in file MKL25Z128xxx4.s
      At line 650 in file MKL25Z128xxx4.s
      At line 651 in file MKL25Z128xxx4.s
      At line 652 in file MKL25Z128xxx4.s
      At line 653 in file MKL25Z128xxx4.s
      At line 654 in file MKL25Z128xxx4.s
      At line 655 in file MKL25Z128xxx4.s
      At line 656 in file MKL25Z128xxx4.s
      At line 657 in file MKL25Z128xxx4.s
      At line 658 in file MKL25Z128xxx4.s
      At line 659 in file MKL25Z128xxx4.s
      At line 660 in file MKL25Z128xxx4.s
      At line 661 in file MKL25Z128xxx4.s
      At line 662 in file MKL25Z128xxx4.s
      At line 663 in file MKL25Z128xxx4.s
      At line 664 in file MKL25Z128xxx4.s
      At line 665 in file MKL25Z128xxx4.s
      At line 666 in file MKL25Z128xxx4.s
      At line 667 in file MKL25Z128xxx4.s
      At line 668 in file MKL25Z128xxx4.s
      At line 669 in file MKL25Z128xxx4.s
      At line 670 in file MKL25Z128xxx4.s
      At line 671 in file MKL25Z128xxx4.s
      At line 672 in file MKL25Z128xxx4.s
      At line 673 in file MKL25Z128xxx4.s
      At line 674 in file MKL25Z128xxx4.s
      At line 675 in file MKL25Z128xxx4.s
      At line 676 in file MKL25Z128xxx4.s
      At line 677 in file MKL25Z128xxx4.s

PORTC_GPCHR 4004B084

Symbol: PORTC_GPCHR
   Definitions
      At line 676 in file MKL25Z128xxx4.s
   Uses
      None
Comment: PORTC_GPCHR unused
PORTC_GPCHR_OFFSET 00000084

Symbol: PORTC_GPCHR_OFFSET
   Definitions
      At line 641 in file MKL25Z128xxx4.s
   Uses
      At line 676 in file MKL25Z128xxx4.s
Comment: PORTC_GPCHR_OFFSET used once
PORTC_GPCLR 4004B080

Symbol: PORTC_GPCLR
   Definitions
      At line 675 in file MKL25Z128xxx4.s
   Uses
      None
Comment: PORTC_GPCLR unused
PORTC_GPCLR_OFFSET 00000080

Symbol: PORTC_GPCLR_OFFSET
   Definitions



ARM Macro Assembler    Page 48 Alphabetic symbol ordering
Absolute symbols

      At line 640 in file MKL25Z128xxx4.s
   Uses
      At line 675 in file MKL25Z128xxx4.s
Comment: PORTC_GPCLR_OFFSET used once
PORTC_ISFR 4004B0A0

Symbol: PORTC_ISFR
   Definitions
      At line 677 in file MKL25Z128xxx4.s
   Uses
      None
Comment: PORTC_ISFR unused
PORTC_ISFR_OFFSET 000000A0

Symbol: PORTC_ISFR_OFFSET
   Definitions
      At line 642 in file MKL25Z128xxx4.s
   Uses
      At line 677 in file MKL25Z128xxx4.s
Comment: PORTC_ISFR_OFFSET used once
PORTC_PCR0 4004B000

Symbol: PORTC_PCR0
   Definitions
      At line 643 in file MKL25Z128xxx4.s
   Uses
      None
Comment: PORTC_PCR0 unused
PORTC_PCR0_OFFSET 00000000

Symbol: PORTC_PCR0_OFFSET
   Definitions
      At line 608 in file MKL25Z128xxx4.s
   Uses
      At line 643 in file MKL25Z128xxx4.s
Comment: PORTC_PCR0_OFFSET used once
PORTC_PCR1 4004B004

Symbol: PORTC_PCR1
   Definitions
      At line 644 in file MKL25Z128xxx4.s
   Uses
      None
Comment: PORTC_PCR1 unused
PORTC_PCR10 4004B028

Symbol: PORTC_PCR10
   Definitions
      At line 653 in file MKL25Z128xxx4.s
   Uses
      None
Comment: PORTC_PCR10 unused
PORTC_PCR10_OFFSET 00000028

Symbol: PORTC_PCR10_OFFSET
   Definitions
      At line 618 in file MKL25Z128xxx4.s
   Uses
      At line 653 in file MKL25Z128xxx4.s



ARM Macro Assembler    Page 49 Alphabetic symbol ordering
Absolute symbols

Comment: PORTC_PCR10_OFFSET used once
PORTC_PCR11 4004B02C

Symbol: PORTC_PCR11
   Definitions
      At line 654 in file MKL25Z128xxx4.s
   Uses
      None
Comment: PORTC_PCR11 unused
PORTC_PCR11_OFFSET 0000002C

Symbol: PORTC_PCR11_OFFSET
   Definitions
      At line 619 in file MKL25Z128xxx4.s
   Uses
      At line 654 in file MKL25Z128xxx4.s
Comment: PORTC_PCR11_OFFSET used once
PORTC_PCR12 4004B030

Symbol: PORTC_PCR12
   Definitions
      At line 655 in file MKL25Z128xxx4.s
   Uses
      None
Comment: PORTC_PCR12 unused
PORTC_PCR12_OFFSET 00000030

Symbol: PORTC_PCR12_OFFSET
   Definitions
      At line 620 in file MKL25Z128xxx4.s
   Uses
      At line 655 in file MKL25Z128xxx4.s
Comment: PORTC_PCR12_OFFSET used once
PORTC_PCR13 4004B034

Symbol: PORTC_PCR13
   Definitions
      At line 656 in file MKL25Z128xxx4.s
   Uses
      None
Comment: PORTC_PCR13 unused
PORTC_PCR13_OFFSET 00000034

Symbol: PORTC_PCR13_OFFSET
   Definitions
      At line 621 in file MKL25Z128xxx4.s
   Uses
      At line 656 in file MKL25Z128xxx4.s
Comment: PORTC_PCR13_OFFSET used once
PORTC_PCR14 4004B038

Symbol: PORTC_PCR14
   Definitions
      At line 657 in file MKL25Z128xxx4.s
   Uses
      None
Comment: PORTC_PCR14 unused
PORTC_PCR14_OFFSET 00000038




ARM Macro Assembler    Page 50 Alphabetic symbol ordering
Absolute symbols

Symbol: PORTC_PCR14_OFFSET
   Definitions
      At line 622 in file MKL25Z128xxx4.s
   Uses
      At line 657 in file MKL25Z128xxx4.s
Comment: PORTC_PCR14_OFFSET used once
PORTC_PCR15 4004B03C

Symbol: PORTC_PCR15
   Definitions
      At line 658 in file MKL25Z128xxx4.s
   Uses
      None
Comment: PORTC_PCR15 unused
PORTC_PCR15_OFFSET 0000003C

Symbol: PORTC_PCR15_OFFSET
   Definitions
      At line 623 in file MKL25Z128xxx4.s
   Uses
      At line 658 in file MKL25Z128xxx4.s
Comment: PORTC_PCR15_OFFSET used once
PORTC_PCR16 4004B040

Symbol: PORTC_PCR16
   Definitions
      At line 659 in file MKL25Z128xxx4.s
   Uses
      None
Comment: PORTC_PCR16 unused
PORTC_PCR16_OFFSET 00000040

Symbol: PORTC_PCR16_OFFSET
   Definitions
      At line 624 in file MKL25Z128xxx4.s
   Uses
      At line 659 in file MKL25Z128xxx4.s
Comment: PORTC_PCR16_OFFSET used once
PORTC_PCR17 4004B044

Symbol: PORTC_PCR17
   Definitions
      At line 660 in file MKL25Z128xxx4.s
   Uses
      None
Comment: PORTC_PCR17 unused
PORTC_PCR17_OFFSET 00000044

Symbol: PORTC_PCR17_OFFSET
   Definitions
      At line 625 in file MKL25Z128xxx4.s
   Uses
      At line 660 in file MKL25Z128xxx4.s
Comment: PORTC_PCR17_OFFSET used once
PORTC_PCR18 4004B048

Symbol: PORTC_PCR18
   Definitions
      At line 661 in file MKL25Z128xxx4.s



ARM Macro Assembler    Page 51 Alphabetic symbol ordering
Absolute symbols

   Uses
      None
Comment: PORTC_PCR18 unused
PORTC_PCR18_OFFSET 00000048

Symbol: PORTC_PCR18_OFFSET
   Definitions
      At line 626 in file MKL25Z128xxx4.s
   Uses
      At line 661 in file MKL25Z128xxx4.s
Comment: PORTC_PCR18_OFFSET used once
PORTC_PCR19 4004B04C

Symbol: PORTC_PCR19
   Definitions
      At line 662 in file MKL25Z128xxx4.s
   Uses
      None
Comment: PORTC_PCR19 unused
PORTC_PCR19_OFFSET 0000004C

Symbol: PORTC_PCR19_OFFSET
   Definitions
      At line 627 in file MKL25Z128xxx4.s
   Uses
      At line 662 in file MKL25Z128xxx4.s
Comment: PORTC_PCR19_OFFSET used once
PORTC_PCR1_OFFSET 00000004

Symbol: PORTC_PCR1_OFFSET
   Definitions
      At line 609 in file MKL25Z128xxx4.s
   Uses
      At line 644 in file MKL25Z128xxx4.s
Comment: PORTC_PCR1_OFFSET used once
PORTC_PCR2 4004B008

Symbol: PORTC_PCR2
   Definitions
      At line 645 in file MKL25Z128xxx4.s
   Uses
      None
Comment: PORTC_PCR2 unused
PORTC_PCR20 4004B050

Symbol: PORTC_PCR20
   Definitions
      At line 663 in file MKL25Z128xxx4.s
   Uses
      None
Comment: PORTC_PCR20 unused
PORTC_PCR20_OFFSET 00000050

Symbol: PORTC_PCR20_OFFSET
   Definitions
      At line 628 in file MKL25Z128xxx4.s
   Uses
      At line 663 in file MKL25Z128xxx4.s
Comment: PORTC_PCR20_OFFSET used once



ARM Macro Assembler    Page 52 Alphabetic symbol ordering
Absolute symbols

PORTC_PCR21 4004B054

Symbol: PORTC_PCR21
   Definitions
      At line 664 in file MKL25Z128xxx4.s
   Uses
      None
Comment: PORTC_PCR21 unused
PORTC_PCR21_OFFSET 00000054

Symbol: PORTC_PCR21_OFFSET
   Definitions
      At line 629 in file MKL25Z128xxx4.s
   Uses
      At line 664 in file MKL25Z128xxx4.s
Comment: PORTC_PCR21_OFFSET used once
PORTC_PCR22 4004B058

Symbol: PORTC_PCR22
   Definitions
      At line 665 in file MKL25Z128xxx4.s
   Uses
      None
Comment: PORTC_PCR22 unused
PORTC_PCR22_OFFSET 00000058

Symbol: PORTC_PCR22_OFFSET
   Definitions
      At line 630 in file MKL25Z128xxx4.s
   Uses
      At line 665 in file MKL25Z128xxx4.s
Comment: PORTC_PCR22_OFFSET used once
PORTC_PCR23 4004B05C

Symbol: PORTC_PCR23
   Definitions
      At line 666 in file MKL25Z128xxx4.s
   Uses
      None
Comment: PORTC_PCR23 unused
PORTC_PCR23_OFFSET 0000005C

Symbol: PORTC_PCR23_OFFSET
   Definitions
      At line 631 in file MKL25Z128xxx4.s
   Uses
      At line 666 in file MKL25Z128xxx4.s
Comment: PORTC_PCR23_OFFSET used once
PORTC_PCR24 4004B060

Symbol: PORTC_PCR24
   Definitions
      At line 667 in file MKL25Z128xxx4.s
   Uses
      None
Comment: PORTC_PCR24 unused
PORTC_PCR24_OFFSET 00000060

Symbol: PORTC_PCR24_OFFSET



ARM Macro Assembler    Page 53 Alphabetic symbol ordering
Absolute symbols

   Definitions
      At line 632 in file MKL25Z128xxx4.s
   Uses
      At line 667 in file MKL25Z128xxx4.s
Comment: PORTC_PCR24_OFFSET used once
PORTC_PCR25 4004B064

Symbol: PORTC_PCR25
   Definitions
      At line 668 in file MKL25Z128xxx4.s
   Uses
      None
Comment: PORTC_PCR25 unused
PORTC_PCR25_OFFSET 00000064

Symbol: PORTC_PCR25_OFFSET
   Definitions
      At line 633 in file MKL25Z128xxx4.s
   Uses
      At line 668 in file MKL25Z128xxx4.s
Comment: PORTC_PCR25_OFFSET used once
PORTC_PCR26 4004B068

Symbol: PORTC_PCR26
   Definitions
      At line 669 in file MKL25Z128xxx4.s
   Uses
      None
Comment: PORTC_PCR26 unused
PORTC_PCR26_OFFSET 00000068

Symbol: PORTC_PCR26_OFFSET
   Definitions
      At line 634 in file MKL25Z128xxx4.s
   Uses
      At line 669 in file MKL25Z128xxx4.s
Comment: PORTC_PCR26_OFFSET used once
PORTC_PCR27 4004B06C

Symbol: PORTC_PCR27
   Definitions
      At line 670 in file MKL25Z128xxx4.s
   Uses
      None
Comment: PORTC_PCR27 unused
PORTC_PCR27_OFFSET 0000006C

Symbol: PORTC_PCR27_OFFSET
   Definitions
      At line 635 in file MKL25Z128xxx4.s
   Uses
      At line 670 in file MKL25Z128xxx4.s
Comment: PORTC_PCR27_OFFSET used once
PORTC_PCR28 4004B070

Symbol: PORTC_PCR28
   Definitions
      At line 671 in file MKL25Z128xxx4.s
   Uses



ARM Macro Assembler    Page 54 Alphabetic symbol ordering
Absolute symbols

      None
Comment: PORTC_PCR28 unused
PORTC_PCR28_OFFSET 00000070

Symbol: PORTC_PCR28_OFFSET
   Definitions
      At line 636 in file MKL25Z128xxx4.s
   Uses
      At line 671 in file MKL25Z128xxx4.s
Comment: PORTC_PCR28_OFFSET used once
PORTC_PCR29 4004B074

Symbol: PORTC_PCR29
   Definitions
      At line 672 in file MKL25Z128xxx4.s
   Uses
      None
Comment: PORTC_PCR29 unused
PORTC_PCR29_OFFSET 00000074

Symbol: PORTC_PCR29_OFFSET
   Definitions
      At line 637 in file MKL25Z128xxx4.s
   Uses
      At line 672 in file MKL25Z128xxx4.s
Comment: PORTC_PCR29_OFFSET used once
PORTC_PCR2_OFFSET 00000008

Symbol: PORTC_PCR2_OFFSET
   Definitions
      At line 610 in file MKL25Z128xxx4.s
   Uses
      At line 645 in file MKL25Z128xxx4.s
Comment: PORTC_PCR2_OFFSET used once
PORTC_PCR3 4004B00C

Symbol: PORTC_PCR3
   Definitions
      At line 646 in file MKL25Z128xxx4.s
   Uses
      At line 562 in file StringOps.s
Comment: PORTC_PCR3 used once
PORTC_PCR30 4004B078

Symbol: PORTC_PCR30
   Definitions
      At line 673 in file MKL25Z128xxx4.s
   Uses
      None
Comment: PORTC_PCR30 unused
PORTC_PCR30_OFFSET 00000078

Symbol: PORTC_PCR30_OFFSET
   Definitions
      At line 638 in file MKL25Z128xxx4.s
   Uses
      At line 673 in file MKL25Z128xxx4.s
Comment: PORTC_PCR30_OFFSET used once
PORTC_PCR31 4004B07C



ARM Macro Assembler    Page 55 Alphabetic symbol ordering
Absolute symbols


Symbol: PORTC_PCR31
   Definitions
      At line 674 in file MKL25Z128xxx4.s
   Uses
      None
Comment: PORTC_PCR31 unused
PORTC_PCR31_OFFSET 0000007C

Symbol: PORTC_PCR31_OFFSET
   Definitions
      At line 639 in file MKL25Z128xxx4.s
   Uses
      At line 674 in file MKL25Z128xxx4.s
Comment: PORTC_PCR31_OFFSET used once
PORTC_PCR3_OFFSET 0000000C

Symbol: PORTC_PCR3_OFFSET
   Definitions
      At line 611 in file MKL25Z128xxx4.s
   Uses
      At line 646 in file MKL25Z128xxx4.s
Comment: PORTC_PCR3_OFFSET used once
PORTC_PCR4 4004B010

Symbol: PORTC_PCR4
   Definitions
      At line 647 in file MKL25Z128xxx4.s
   Uses
      At line 566 in file StringOps.s
Comment: PORTC_PCR4 used once
PORTC_PCR4_OFFSET 00000010

Symbol: PORTC_PCR4_OFFSET
   Definitions
      At line 612 in file MKL25Z128xxx4.s
   Uses
      At line 647 in file MKL25Z128xxx4.s
Comment: PORTC_PCR4_OFFSET used once
PORTC_PCR5 4004B014

Symbol: PORTC_PCR5
   Definitions
      At line 648 in file MKL25Z128xxx4.s
   Uses
      None
Comment: PORTC_PCR5 unused
PORTC_PCR5_OFFSET 00000014

Symbol: PORTC_PCR5_OFFSET
   Definitions
      At line 613 in file MKL25Z128xxx4.s
   Uses
      At line 648 in file MKL25Z128xxx4.s
Comment: PORTC_PCR5_OFFSET used once
PORTC_PCR6 4004B018

Symbol: PORTC_PCR6
   Definitions



ARM Macro Assembler    Page 56 Alphabetic symbol ordering
Absolute symbols

      At line 649 in file MKL25Z128xxx4.s
   Uses
      None
Comment: PORTC_PCR6 unused
PORTC_PCR6_OFFSET 00000018

Symbol: PORTC_PCR6_OFFSET
   Definitions
      At line 614 in file MKL25Z128xxx4.s
   Uses
      At line 649 in file MKL25Z128xxx4.s
Comment: PORTC_PCR6_OFFSET used once
PORTC_PCR7 4004B01C

Symbol: PORTC_PCR7
   Definitions
      At line 650 in file MKL25Z128xxx4.s
   Uses
      None
Comment: PORTC_PCR7 unused
PORTC_PCR7_OFFSET 0000001C

Symbol: PORTC_PCR7_OFFSET
   Definitions
      At line 615 in file MKL25Z128xxx4.s
   Uses
      At line 650 in file MKL25Z128xxx4.s
Comment: PORTC_PCR7_OFFSET used once
PORTC_PCR8 4004B020

Symbol: PORTC_PCR8
   Definitions
      At line 651 in file MKL25Z128xxx4.s
   Uses
      None
Comment: PORTC_PCR8 unused
PORTC_PCR8_OFFSET 00000020

Symbol: PORTC_PCR8_OFFSET
   Definitions
      At line 616 in file MKL25Z128xxx4.s
   Uses
      At line 651 in file MKL25Z128xxx4.s
Comment: PORTC_PCR8_OFFSET used once
PORTC_PCR9 4004B024

Symbol: PORTC_PCR9
   Definitions
      At line 652 in file MKL25Z128xxx4.s
   Uses
      None
Comment: PORTC_PCR9 unused
PORTC_PCR9_OFFSET 00000024

Symbol: PORTC_PCR9_OFFSET
   Definitions
      At line 617 in file MKL25Z128xxx4.s
   Uses
      At line 652 in file MKL25Z128xxx4.s



ARM Macro Assembler    Page 57 Alphabetic symbol ordering
Absolute symbols

Comment: PORTC_PCR9_OFFSET used once
PORTD_BASE 4004C000

Symbol: PORTD_BASE
   Definitions
      At line 680 in file MKL25Z128xxx4.s
   Uses
      At line 716 in file MKL25Z128xxx4.s
      At line 717 in file MKL25Z128xxx4.s
      At line 718 in file MKL25Z128xxx4.s
      At line 719 in file MKL25Z128xxx4.s
      At line 720 in file MKL25Z128xxx4.s
      At line 721 in file MKL25Z128xxx4.s
      At line 722 in file MKL25Z128xxx4.s
      At line 723 in file MKL25Z128xxx4.s
      At line 724 in file MKL25Z128xxx4.s
      At line 725 in file MKL25Z128xxx4.s
      At line 726 in file MKL25Z128xxx4.s
      At line 727 in file MKL25Z128xxx4.s
      At line 728 in file MKL25Z128xxx4.s
      At line 729 in file MKL25Z128xxx4.s
      At line 730 in file MKL25Z128xxx4.s
      At line 731 in file MKL25Z128xxx4.s
      At line 732 in file MKL25Z128xxx4.s
      At line 733 in file MKL25Z128xxx4.s
      At line 734 in file MKL25Z128xxx4.s
      At line 735 in file MKL25Z128xxx4.s
      At line 736 in file MKL25Z128xxx4.s
      At line 737 in file MKL25Z128xxx4.s
      At line 738 in file MKL25Z128xxx4.s
      At line 739 in file MKL25Z128xxx4.s
      At line 740 in file MKL25Z128xxx4.s
      At line 741 in file MKL25Z128xxx4.s
      At line 742 in file MKL25Z128xxx4.s
      At line 743 in file MKL25Z128xxx4.s
      At line 744 in file MKL25Z128xxx4.s
      At line 745 in file MKL25Z128xxx4.s
      At line 746 in file MKL25Z128xxx4.s
      At line 747 in file MKL25Z128xxx4.s
      At line 748 in file MKL25Z128xxx4.s
      At line 749 in file MKL25Z128xxx4.s
      At line 750 in file MKL25Z128xxx4.s

PORTD_GPCHR 4004C084

Symbol: PORTD_GPCHR
   Definitions
      At line 749 in file MKL25Z128xxx4.s
   Uses
      None
Comment: PORTD_GPCHR unused
PORTD_GPCHR_OFFSET 00000084

Symbol: PORTD_GPCHR_OFFSET
   Definitions
      At line 714 in file MKL25Z128xxx4.s
   Uses
      At line 749 in file MKL25Z128xxx4.s
Comment: PORTD_GPCHR_OFFSET used once



ARM Macro Assembler    Page 58 Alphabetic symbol ordering
Absolute symbols

PORTD_GPCLR 4004C080

Symbol: PORTD_GPCLR
   Definitions
      At line 748 in file MKL25Z128xxx4.s
   Uses
      None
Comment: PORTD_GPCLR unused
PORTD_GPCLR_OFFSET 00000080

Symbol: PORTD_GPCLR_OFFSET
   Definitions
      At line 713 in file MKL25Z128xxx4.s
   Uses
      At line 748 in file MKL25Z128xxx4.s
Comment: PORTD_GPCLR_OFFSET used once
PORTD_ISFR 4004C0A0

Symbol: PORTD_ISFR
   Definitions
      At line 750 in file MKL25Z128xxx4.s
   Uses
      None
Comment: PORTD_ISFR unused
PORTD_ISFR_OFFSET 000000A0

Symbol: PORTD_ISFR_OFFSET
   Definitions
      At line 715 in file MKL25Z128xxx4.s
   Uses
      At line 750 in file MKL25Z128xxx4.s
Comment: PORTD_ISFR_OFFSET used once
PORTD_PCR0 4004C000

Symbol: PORTD_PCR0
   Definitions
      At line 716 in file MKL25Z128xxx4.s
   Uses
      None
Comment: PORTD_PCR0 unused
PORTD_PCR0_OFFSET 00000000

Symbol: PORTD_PCR0_OFFSET
   Definitions
      At line 681 in file MKL25Z128xxx4.s
   Uses
      At line 716 in file MKL25Z128xxx4.s
Comment: PORTD_PCR0_OFFSET used once
PORTD_PCR1 4004C004

Symbol: PORTD_PCR1
   Definitions
      At line 717 in file MKL25Z128xxx4.s
   Uses
      None
Comment: PORTD_PCR1 unused
PORTD_PCR10 4004C028

Symbol: PORTD_PCR10



ARM Macro Assembler    Page 59 Alphabetic symbol ordering
Absolute symbols

   Definitions
      At line 726 in file MKL25Z128xxx4.s
   Uses
      None
Comment: PORTD_PCR10 unused
PORTD_PCR10_OFFSET 00000028

Symbol: PORTD_PCR10_OFFSET
   Definitions
      At line 691 in file MKL25Z128xxx4.s
   Uses
      At line 726 in file MKL25Z128xxx4.s
Comment: PORTD_PCR10_OFFSET used once
PORTD_PCR11 4004C02C

Symbol: PORTD_PCR11
   Definitions
      At line 727 in file MKL25Z128xxx4.s
   Uses
      None
Comment: PORTD_PCR11 unused
PORTD_PCR11_OFFSET 0000002C

Symbol: PORTD_PCR11_OFFSET
   Definitions
      At line 692 in file MKL25Z128xxx4.s
   Uses
      At line 727 in file MKL25Z128xxx4.s
Comment: PORTD_PCR11_OFFSET used once
PORTD_PCR12 4004C030

Symbol: PORTD_PCR12
   Definitions
      At line 728 in file MKL25Z128xxx4.s
   Uses
      None
Comment: PORTD_PCR12 unused
PORTD_PCR12_OFFSET 00000030

Symbol: PORTD_PCR12_OFFSET
   Definitions
      At line 693 in file MKL25Z128xxx4.s
   Uses
      At line 728 in file MKL25Z128xxx4.s
Comment: PORTD_PCR12_OFFSET used once
PORTD_PCR13 4004C034

Symbol: PORTD_PCR13
   Definitions
      At line 729 in file MKL25Z128xxx4.s
   Uses
      None
Comment: PORTD_PCR13 unused
PORTD_PCR13_OFFSET 00000034

Symbol: PORTD_PCR13_OFFSET
   Definitions
      At line 694 in file MKL25Z128xxx4.s
   Uses



ARM Macro Assembler    Page 60 Alphabetic symbol ordering
Absolute symbols

      At line 729 in file MKL25Z128xxx4.s
Comment: PORTD_PCR13_OFFSET used once
PORTD_PCR14 4004C038

Symbol: PORTD_PCR14
   Definitions
      At line 730 in file MKL25Z128xxx4.s
   Uses
      None
Comment: PORTD_PCR14 unused
PORTD_PCR14_OFFSET 00000038

Symbol: PORTD_PCR14_OFFSET
   Definitions
      At line 695 in file MKL25Z128xxx4.s
   Uses
      At line 730 in file MKL25Z128xxx4.s
Comment: PORTD_PCR14_OFFSET used once
PORTD_PCR15 4004C03C

Symbol: PORTD_PCR15
   Definitions
      At line 731 in file MKL25Z128xxx4.s
   Uses
      None
Comment: PORTD_PCR15 unused
PORTD_PCR15_OFFSET 0000003C

Symbol: PORTD_PCR15_OFFSET
   Definitions
      At line 696 in file MKL25Z128xxx4.s
   Uses
      At line 731 in file MKL25Z128xxx4.s
Comment: PORTD_PCR15_OFFSET used once
PORTD_PCR16 4004C040

Symbol: PORTD_PCR16
   Definitions
      At line 732 in file MKL25Z128xxx4.s
   Uses
      None
Comment: PORTD_PCR16 unused
PORTD_PCR16_OFFSET 00000040

Symbol: PORTD_PCR16_OFFSET
   Definitions
      At line 697 in file MKL25Z128xxx4.s
   Uses
      At line 732 in file MKL25Z128xxx4.s
Comment: PORTD_PCR16_OFFSET used once
PORTD_PCR17 4004C044

Symbol: PORTD_PCR17
   Definitions
      At line 733 in file MKL25Z128xxx4.s
   Uses
      None
Comment: PORTD_PCR17 unused
PORTD_PCR17_OFFSET 00000044



ARM Macro Assembler    Page 61 Alphabetic symbol ordering
Absolute symbols


Symbol: PORTD_PCR17_OFFSET
   Definitions
      At line 698 in file MKL25Z128xxx4.s
   Uses
      At line 733 in file MKL25Z128xxx4.s
Comment: PORTD_PCR17_OFFSET used once
PORTD_PCR18 4004C048

Symbol: PORTD_PCR18
   Definitions
      At line 734 in file MKL25Z128xxx4.s
   Uses
      None
Comment: PORTD_PCR18 unused
PORTD_PCR18_OFFSET 00000048

Symbol: PORTD_PCR18_OFFSET
   Definitions
      At line 699 in file MKL25Z128xxx4.s
   Uses
      At line 734 in file MKL25Z128xxx4.s
Comment: PORTD_PCR18_OFFSET used once
PORTD_PCR19 4004C04C

Symbol: PORTD_PCR19
   Definitions
      At line 735 in file MKL25Z128xxx4.s
   Uses
      None
Comment: PORTD_PCR19 unused
PORTD_PCR19_OFFSET 0000004C

Symbol: PORTD_PCR19_OFFSET
   Definitions
      At line 700 in file MKL25Z128xxx4.s
   Uses
      At line 735 in file MKL25Z128xxx4.s
Comment: PORTD_PCR19_OFFSET used once
PORTD_PCR1_OFFSET 00000004

Symbol: PORTD_PCR1_OFFSET
   Definitions
      At line 682 in file MKL25Z128xxx4.s
   Uses
      At line 717 in file MKL25Z128xxx4.s
Comment: PORTD_PCR1_OFFSET used once
PORTD_PCR2 4004C008

Symbol: PORTD_PCR2
   Definitions
      At line 718 in file MKL25Z128xxx4.s
   Uses
      None
Comment: PORTD_PCR2 unused
PORTD_PCR20 4004C050

Symbol: PORTD_PCR20
   Definitions



ARM Macro Assembler    Page 62 Alphabetic symbol ordering
Absolute symbols

      At line 736 in file MKL25Z128xxx4.s
   Uses
      None
Comment: PORTD_PCR20 unused
PORTD_PCR20_OFFSET 00000050

Symbol: PORTD_PCR20_OFFSET
   Definitions
      At line 701 in file MKL25Z128xxx4.s
   Uses
      At line 736 in file MKL25Z128xxx4.s
Comment: PORTD_PCR20_OFFSET used once
PORTD_PCR21 4004C054

Symbol: PORTD_PCR21
   Definitions
      At line 737 in file MKL25Z128xxx4.s
   Uses
      None
Comment: PORTD_PCR21 unused
PORTD_PCR21_OFFSET 00000054

Symbol: PORTD_PCR21_OFFSET
   Definitions
      At line 702 in file MKL25Z128xxx4.s
   Uses
      At line 737 in file MKL25Z128xxx4.s
Comment: PORTD_PCR21_OFFSET used once
PORTD_PCR22 4004C058

Symbol: PORTD_PCR22
   Definitions
      At line 738 in file MKL25Z128xxx4.s
   Uses
      None
Comment: PORTD_PCR22 unused
PORTD_PCR22_OFFSET 00000058

Symbol: PORTD_PCR22_OFFSET
   Definitions
      At line 703 in file MKL25Z128xxx4.s
   Uses
      At line 738 in file MKL25Z128xxx4.s
Comment: PORTD_PCR22_OFFSET used once
PORTD_PCR23 4004C05C

Symbol: PORTD_PCR23
   Definitions
      At line 739 in file MKL25Z128xxx4.s
   Uses
      None
Comment: PORTD_PCR23 unused
PORTD_PCR23_OFFSET 0000005C

Symbol: PORTD_PCR23_OFFSET
   Definitions
      At line 704 in file MKL25Z128xxx4.s
   Uses
      At line 739 in file MKL25Z128xxx4.s



ARM Macro Assembler    Page 63 Alphabetic symbol ordering
Absolute symbols

Comment: PORTD_PCR23_OFFSET used once
PORTD_PCR24 4004C060

Symbol: PORTD_PCR24
   Definitions
      At line 740 in file MKL25Z128xxx4.s
   Uses
      None
Comment: PORTD_PCR24 unused
PORTD_PCR24_OFFSET 00000060

Symbol: PORTD_PCR24_OFFSET
   Definitions
      At line 705 in file MKL25Z128xxx4.s
   Uses
      At line 740 in file MKL25Z128xxx4.s
Comment: PORTD_PCR24_OFFSET used once
PORTD_PCR25 4004C064

Symbol: PORTD_PCR25
   Definitions
      At line 741 in file MKL25Z128xxx4.s
   Uses
      None
Comment: PORTD_PCR25 unused
PORTD_PCR25_OFFSET 00000064

Symbol: PORTD_PCR25_OFFSET
   Definitions
      At line 706 in file MKL25Z128xxx4.s
   Uses
      At line 741 in file MKL25Z128xxx4.s
Comment: PORTD_PCR25_OFFSET used once
PORTD_PCR26 4004C068

Symbol: PORTD_PCR26
   Definitions
      At line 742 in file MKL25Z128xxx4.s
   Uses
      None
Comment: PORTD_PCR26 unused
PORTD_PCR26_OFFSET 00000068

Symbol: PORTD_PCR26_OFFSET
   Definitions
      At line 707 in file MKL25Z128xxx4.s
   Uses
      At line 742 in file MKL25Z128xxx4.s
Comment: PORTD_PCR26_OFFSET used once
PORTD_PCR27 4004C06C

Symbol: PORTD_PCR27
   Definitions
      At line 743 in file MKL25Z128xxx4.s
   Uses
      None
Comment: PORTD_PCR27 unused
PORTD_PCR27_OFFSET 0000006C




ARM Macro Assembler    Page 64 Alphabetic symbol ordering
Absolute symbols

Symbol: PORTD_PCR27_OFFSET
   Definitions
      At line 708 in file MKL25Z128xxx4.s
   Uses
      At line 743 in file MKL25Z128xxx4.s
Comment: PORTD_PCR27_OFFSET used once
PORTD_PCR28 4004C070

Symbol: PORTD_PCR28
   Definitions
      At line 744 in file MKL25Z128xxx4.s
   Uses
      None
Comment: PORTD_PCR28 unused
PORTD_PCR28_OFFSET 00000070

Symbol: PORTD_PCR28_OFFSET
   Definitions
      At line 709 in file MKL25Z128xxx4.s
   Uses
      At line 744 in file MKL25Z128xxx4.s
Comment: PORTD_PCR28_OFFSET used once
PORTD_PCR29 4004C074

Symbol: PORTD_PCR29
   Definitions
      At line 745 in file MKL25Z128xxx4.s
   Uses
      None
Comment: PORTD_PCR29 unused
PORTD_PCR29_OFFSET 00000074

Symbol: PORTD_PCR29_OFFSET
   Definitions
      At line 710 in file MKL25Z128xxx4.s
   Uses
      At line 745 in file MKL25Z128xxx4.s
Comment: PORTD_PCR29_OFFSET used once
PORTD_PCR2_OFFSET 00000008

Symbol: PORTD_PCR2_OFFSET
   Definitions
      At line 683 in file MKL25Z128xxx4.s
   Uses
      At line 718 in file MKL25Z128xxx4.s
Comment: PORTD_PCR2_OFFSET used once
PORTD_PCR3 4004C00C

Symbol: PORTD_PCR3
   Definitions
      At line 719 in file MKL25Z128xxx4.s
   Uses
      None
Comment: PORTD_PCR3 unused
PORTD_PCR30 4004C078

Symbol: PORTD_PCR30
   Definitions
      At line 746 in file MKL25Z128xxx4.s



ARM Macro Assembler    Page 65 Alphabetic symbol ordering
Absolute symbols

   Uses
      None
Comment: PORTD_PCR30 unused
PORTD_PCR30_OFFSET 00000078

Symbol: PORTD_PCR30_OFFSET
   Definitions
      At line 711 in file MKL25Z128xxx4.s
   Uses
      At line 746 in file MKL25Z128xxx4.s
Comment: PORTD_PCR30_OFFSET used once
PORTD_PCR31 4004C07C

Symbol: PORTD_PCR31
   Definitions
      At line 747 in file MKL25Z128xxx4.s
   Uses
      None
Comment: PORTD_PCR31 unused
PORTD_PCR31_OFFSET 0000007C

Symbol: PORTD_PCR31_OFFSET
   Definitions
      At line 712 in file MKL25Z128xxx4.s
   Uses
      At line 747 in file MKL25Z128xxx4.s
Comment: PORTD_PCR31_OFFSET used once
PORTD_PCR3_OFFSET 0000000C

Symbol: PORTD_PCR3_OFFSET
   Definitions
      At line 684 in file MKL25Z128xxx4.s
   Uses
      At line 719 in file MKL25Z128xxx4.s
Comment: PORTD_PCR3_OFFSET used once
PORTD_PCR4 4004C010

Symbol: PORTD_PCR4
   Definitions
      At line 720 in file MKL25Z128xxx4.s
   Uses
      None
Comment: PORTD_PCR4 unused
PORTD_PCR4_OFFSET 00000010

Symbol: PORTD_PCR4_OFFSET
   Definitions
      At line 685 in file MKL25Z128xxx4.s
   Uses
      At line 720 in file MKL25Z128xxx4.s
Comment: PORTD_PCR4_OFFSET used once
PORTD_PCR5 4004C014

Symbol: PORTD_PCR5
   Definitions
      At line 721 in file MKL25Z128xxx4.s
   Uses
      None
Comment: PORTD_PCR5 unused



ARM Macro Assembler    Page 66 Alphabetic symbol ordering
Absolute symbols

PORTD_PCR5_OFFSET 00000014

Symbol: PORTD_PCR5_OFFSET
   Definitions
      At line 686 in file MKL25Z128xxx4.s
   Uses
      At line 721 in file MKL25Z128xxx4.s
Comment: PORTD_PCR5_OFFSET used once
PORTD_PCR6 4004C018

Symbol: PORTD_PCR6
   Definitions
      At line 722 in file MKL25Z128xxx4.s
   Uses
      None
Comment: PORTD_PCR6 unused
PORTD_PCR6_OFFSET 00000018

Symbol: PORTD_PCR6_OFFSET
   Definitions
      At line 687 in file MKL25Z128xxx4.s
   Uses
      At line 722 in file MKL25Z128xxx4.s
Comment: PORTD_PCR6_OFFSET used once
PORTD_PCR7 4004C01C

Symbol: PORTD_PCR7
   Definitions
      At line 723 in file MKL25Z128xxx4.s
   Uses
      None
Comment: PORTD_PCR7 unused
PORTD_PCR7_OFFSET 0000001C

Symbol: PORTD_PCR7_OFFSET
   Definitions
      At line 688 in file MKL25Z128xxx4.s
   Uses
      At line 723 in file MKL25Z128xxx4.s
Comment: PORTD_PCR7_OFFSET used once
PORTD_PCR8 4004C020

Symbol: PORTD_PCR8
   Definitions
      At line 724 in file MKL25Z128xxx4.s
   Uses
      None
Comment: PORTD_PCR8 unused
PORTD_PCR8_OFFSET 00000020

Symbol: PORTD_PCR8_OFFSET
   Definitions
      At line 689 in file MKL25Z128xxx4.s
   Uses
      At line 724 in file MKL25Z128xxx4.s
Comment: PORTD_PCR8_OFFSET used once
PORTD_PCR9 4004C024

Symbol: PORTD_PCR9



ARM Macro Assembler    Page 67 Alphabetic symbol ordering
Absolute symbols

   Definitions
      At line 725 in file MKL25Z128xxx4.s
   Uses
      None
Comment: PORTD_PCR9 unused
PORTD_PCR9_OFFSET 00000024

Symbol: PORTD_PCR9_OFFSET
   Definitions
      At line 690 in file MKL25Z128xxx4.s
   Uses
      At line 725 in file MKL25Z128xxx4.s
Comment: PORTD_PCR9_OFFSET used once
PORTE_BASE 4004D000

Symbol: PORTE_BASE
   Definitions
      At line 753 in file MKL25Z128xxx4.s
   Uses
      At line 789 in file MKL25Z128xxx4.s
      At line 790 in file MKL25Z128xxx4.s
      At line 791 in file MKL25Z128xxx4.s
      At line 792 in file MKL25Z128xxx4.s
      At line 793 in file MKL25Z128xxx4.s
      At line 794 in file MKL25Z128xxx4.s
      At line 795 in file MKL25Z128xxx4.s
      At line 796 in file MKL25Z128xxx4.s
      At line 797 in file MKL25Z128xxx4.s
      At line 798 in file MKL25Z128xxx4.s
      At line 799 in file MKL25Z128xxx4.s
      At line 800 in file MKL25Z128xxx4.s
      At line 801 in file MKL25Z128xxx4.s
      At line 802 in file MKL25Z128xxx4.s
      At line 803 in file MKL25Z128xxx4.s
      At line 804 in file MKL25Z128xxx4.s
      At line 805 in file MKL25Z128xxx4.s
      At line 806 in file MKL25Z128xxx4.s
      At line 807 in file MKL25Z128xxx4.s
      At line 808 in file MKL25Z128xxx4.s
      At line 809 in file MKL25Z128xxx4.s
      At line 810 in file MKL25Z128xxx4.s
      At line 811 in file MKL25Z128xxx4.s
      At line 812 in file MKL25Z128xxx4.s
      At line 813 in file MKL25Z128xxx4.s
      At line 814 in file MKL25Z128xxx4.s
      At line 815 in file MKL25Z128xxx4.s
      At line 816 in file MKL25Z128xxx4.s
      At line 817 in file MKL25Z128xxx4.s
      At line 818 in file MKL25Z128xxx4.s
      At line 819 in file MKL25Z128xxx4.s
      At line 820 in file MKL25Z128xxx4.s
      At line 821 in file MKL25Z128xxx4.s
      At line 822 in file MKL25Z128xxx4.s
      At line 823 in file MKL25Z128xxx4.s

PORTE_GPCHR 4004D084

Symbol: PORTE_GPCHR
   Definitions



ARM Macro Assembler    Page 68 Alphabetic symbol ordering
Absolute symbols

      At line 822 in file MKL25Z128xxx4.s
   Uses
      None
Comment: PORTE_GPCHR unused
PORTE_GPCHR_OFFSET 00000084

Symbol: PORTE_GPCHR_OFFSET
   Definitions
      At line 787 in file MKL25Z128xxx4.s
   Uses
      At line 822 in file MKL25Z128xxx4.s
Comment: PORTE_GPCHR_OFFSET used once
PORTE_GPCLR 4004D080

Symbol: PORTE_GPCLR
   Definitions
      At line 821 in file MKL25Z128xxx4.s
   Uses
      None
Comment: PORTE_GPCLR unused
PORTE_GPCLR_OFFSET 00000080

Symbol: PORTE_GPCLR_OFFSET
   Definitions
      At line 786 in file MKL25Z128xxx4.s
   Uses
      At line 821 in file MKL25Z128xxx4.s
Comment: PORTE_GPCLR_OFFSET used once
PORTE_ISFR 4004D0A0

Symbol: PORTE_ISFR
   Definitions
      At line 823 in file MKL25Z128xxx4.s
   Uses
      None
Comment: PORTE_ISFR unused
PORTE_ISFR_OFFSET 000000A0

Symbol: PORTE_ISFR_OFFSET
   Definitions
      At line 788 in file MKL25Z128xxx4.s
   Uses
      At line 823 in file MKL25Z128xxx4.s
Comment: PORTE_ISFR_OFFSET used once
PORTE_PCR0 4004D000

Symbol: PORTE_PCR0
   Definitions
      At line 789 in file MKL25Z128xxx4.s
   Uses
      None
Comment: PORTE_PCR0 unused
PORTE_PCR0_OFFSET 00000000

Symbol: PORTE_PCR0_OFFSET
   Definitions
      At line 754 in file MKL25Z128xxx4.s
   Uses
      At line 789 in file MKL25Z128xxx4.s



ARM Macro Assembler    Page 69 Alphabetic symbol ordering
Absolute symbols

Comment: PORTE_PCR0_OFFSET used once
PORTE_PCR1 4004D004

Symbol: PORTE_PCR1
   Definitions
      At line 790 in file MKL25Z128xxx4.s
   Uses
      None
Comment: PORTE_PCR1 unused
PORTE_PCR10 4004D028

Symbol: PORTE_PCR10
   Definitions
      At line 799 in file MKL25Z128xxx4.s
   Uses
      None
Comment: PORTE_PCR10 unused
PORTE_PCR10_OFFSET 00000028

Symbol: PORTE_PCR10_OFFSET
   Definitions
      At line 764 in file MKL25Z128xxx4.s
   Uses
      At line 799 in file MKL25Z128xxx4.s
Comment: PORTE_PCR10_OFFSET used once
PORTE_PCR11 4004D02C

Symbol: PORTE_PCR11
   Definitions
      At line 800 in file MKL25Z128xxx4.s
   Uses
      None
Comment: PORTE_PCR11 unused
PORTE_PCR11_OFFSET 0000002C

Symbol: PORTE_PCR11_OFFSET
   Definitions
      At line 765 in file MKL25Z128xxx4.s
   Uses
      At line 800 in file MKL25Z128xxx4.s
Comment: PORTE_PCR11_OFFSET used once
PORTE_PCR12 4004D030

Symbol: PORTE_PCR12
   Definitions
      At line 801 in file MKL25Z128xxx4.s
   Uses
      None
Comment: PORTE_PCR12 unused
PORTE_PCR12_OFFSET 00000030

Symbol: PORTE_PCR12_OFFSET
   Definitions
      At line 766 in file MKL25Z128xxx4.s
   Uses
      At line 801 in file MKL25Z128xxx4.s
Comment: PORTE_PCR12_OFFSET used once
PORTE_PCR13 4004D034




ARM Macro Assembler    Page 70 Alphabetic symbol ordering
Absolute symbols

Symbol: PORTE_PCR13
   Definitions
      At line 802 in file MKL25Z128xxx4.s
   Uses
      None
Comment: PORTE_PCR13 unused
PORTE_PCR13_OFFSET 00000034

Symbol: PORTE_PCR13_OFFSET
   Definitions
      At line 767 in file MKL25Z128xxx4.s
   Uses
      At line 802 in file MKL25Z128xxx4.s
Comment: PORTE_PCR13_OFFSET used once
PORTE_PCR14 4004D038

Symbol: PORTE_PCR14
   Definitions
      At line 803 in file MKL25Z128xxx4.s
   Uses
      None
Comment: PORTE_PCR14 unused
PORTE_PCR14_OFFSET 00000038

Symbol: PORTE_PCR14_OFFSET
   Definitions
      At line 768 in file MKL25Z128xxx4.s
   Uses
      At line 803 in file MKL25Z128xxx4.s
Comment: PORTE_PCR14_OFFSET used once
PORTE_PCR15 4004D03C

Symbol: PORTE_PCR15
   Definitions
      At line 804 in file MKL25Z128xxx4.s
   Uses
      None
Comment: PORTE_PCR15 unused
PORTE_PCR15_OFFSET 0000003C

Symbol: PORTE_PCR15_OFFSET
   Definitions
      At line 769 in file MKL25Z128xxx4.s
   Uses
      At line 804 in file MKL25Z128xxx4.s
Comment: PORTE_PCR15_OFFSET used once
PORTE_PCR16 4004D040

Symbol: PORTE_PCR16
   Definitions
      At line 805 in file MKL25Z128xxx4.s
   Uses
      None
Comment: PORTE_PCR16 unused
PORTE_PCR16_OFFSET 00000040

Symbol: PORTE_PCR16_OFFSET
   Definitions
      At line 770 in file MKL25Z128xxx4.s



ARM Macro Assembler    Page 71 Alphabetic symbol ordering
Absolute symbols

   Uses
      At line 805 in file MKL25Z128xxx4.s
Comment: PORTE_PCR16_OFFSET used once
PORTE_PCR17 4004D044

Symbol: PORTE_PCR17
   Definitions
      At line 806 in file MKL25Z128xxx4.s
   Uses
      None
Comment: PORTE_PCR17 unused
PORTE_PCR17_OFFSET 00000044

Symbol: PORTE_PCR17_OFFSET
   Definitions
      At line 771 in file MKL25Z128xxx4.s
   Uses
      At line 806 in file MKL25Z128xxx4.s
Comment: PORTE_PCR17_OFFSET used once
PORTE_PCR18 4004D048

Symbol: PORTE_PCR18
   Definitions
      At line 807 in file MKL25Z128xxx4.s
   Uses
      None
Comment: PORTE_PCR18 unused
PORTE_PCR18_OFFSET 00000048

Symbol: PORTE_PCR18_OFFSET
   Definitions
      At line 772 in file MKL25Z128xxx4.s
   Uses
      At line 807 in file MKL25Z128xxx4.s
Comment: PORTE_PCR18_OFFSET used once
PORTE_PCR19 4004D04C

Symbol: PORTE_PCR19
   Definitions
      At line 808 in file MKL25Z128xxx4.s
   Uses
      None
Comment: PORTE_PCR19 unused
PORTE_PCR19_OFFSET 0000004C

Symbol: PORTE_PCR19_OFFSET
   Definitions
      At line 773 in file MKL25Z128xxx4.s
   Uses
      At line 808 in file MKL25Z128xxx4.s
Comment: PORTE_PCR19_OFFSET used once
PORTE_PCR1_OFFSET 00000004

Symbol: PORTE_PCR1_OFFSET
   Definitions
      At line 755 in file MKL25Z128xxx4.s
   Uses
      At line 790 in file MKL25Z128xxx4.s
Comment: PORTE_PCR1_OFFSET used once



ARM Macro Assembler    Page 72 Alphabetic symbol ordering
Absolute symbols

PORTE_PCR2 4004D008

Symbol: PORTE_PCR2
   Definitions
      At line 791 in file MKL25Z128xxx4.s
   Uses
      None
Comment: PORTE_PCR2 unused
PORTE_PCR20 4004D050

Symbol: PORTE_PCR20
   Definitions
      At line 809 in file MKL25Z128xxx4.s
   Uses
      None
Comment: PORTE_PCR20 unused
PORTE_PCR20_OFFSET 00000050

Symbol: PORTE_PCR20_OFFSET
   Definitions
      At line 774 in file MKL25Z128xxx4.s
   Uses
      At line 809 in file MKL25Z128xxx4.s
Comment: PORTE_PCR20_OFFSET used once
PORTE_PCR21 4004D054

Symbol: PORTE_PCR21
   Definitions
      At line 810 in file MKL25Z128xxx4.s
   Uses
      None
Comment: PORTE_PCR21 unused
PORTE_PCR21_OFFSET 00000054

Symbol: PORTE_PCR21_OFFSET
   Definitions
      At line 775 in file MKL25Z128xxx4.s
   Uses
      At line 810 in file MKL25Z128xxx4.s
Comment: PORTE_PCR21_OFFSET used once
PORTE_PCR22 4004D058

Symbol: PORTE_PCR22
   Definitions
      At line 811 in file MKL25Z128xxx4.s
   Uses
      None
Comment: PORTE_PCR22 unused
PORTE_PCR22_OFFSET 00000058

Symbol: PORTE_PCR22_OFFSET
   Definitions
      At line 776 in file MKL25Z128xxx4.s
   Uses
      At line 811 in file MKL25Z128xxx4.s
Comment: PORTE_PCR22_OFFSET used once
PORTE_PCR23 4004D05C

Symbol: PORTE_PCR23



ARM Macro Assembler    Page 73 Alphabetic symbol ordering
Absolute symbols

   Definitions
      At line 812 in file MKL25Z128xxx4.s
   Uses
      None
Comment: PORTE_PCR23 unused
PORTE_PCR23_OFFSET 0000005C

Symbol: PORTE_PCR23_OFFSET
   Definitions
      At line 777 in file MKL25Z128xxx4.s
   Uses
      At line 812 in file MKL25Z128xxx4.s
Comment: PORTE_PCR23_OFFSET used once
PORTE_PCR24 4004D060

Symbol: PORTE_PCR24
   Definitions
      At line 813 in file MKL25Z128xxx4.s
   Uses
      None
Comment: PORTE_PCR24 unused
PORTE_PCR24_OFFSET 00000060

Symbol: PORTE_PCR24_OFFSET
   Definitions
      At line 778 in file MKL25Z128xxx4.s
   Uses
      At line 813 in file MKL25Z128xxx4.s
Comment: PORTE_PCR24_OFFSET used once
PORTE_PCR25 4004D064

Symbol: PORTE_PCR25
   Definitions
      At line 814 in file MKL25Z128xxx4.s
   Uses
      None
Comment: PORTE_PCR25 unused
PORTE_PCR25_OFFSET 00000064

Symbol: PORTE_PCR25_OFFSET
   Definitions
      At line 779 in file MKL25Z128xxx4.s
   Uses
      At line 814 in file MKL25Z128xxx4.s
Comment: PORTE_PCR25_OFFSET used once
PORTE_PCR26 4004D068

Symbol: PORTE_PCR26
   Definitions
      At line 815 in file MKL25Z128xxx4.s
   Uses
      None
Comment: PORTE_PCR26 unused
PORTE_PCR26_OFFSET 00000068

Symbol: PORTE_PCR26_OFFSET
   Definitions
      At line 780 in file MKL25Z128xxx4.s
   Uses



ARM Macro Assembler    Page 74 Alphabetic symbol ordering
Absolute symbols

      At line 815 in file MKL25Z128xxx4.s
Comment: PORTE_PCR26_OFFSET used once
PORTE_PCR27 4004D06C

Symbol: PORTE_PCR27
   Definitions
      At line 816 in file MKL25Z128xxx4.s
   Uses
      None
Comment: PORTE_PCR27 unused
PORTE_PCR27_OFFSET 0000006C

Symbol: PORTE_PCR27_OFFSET
   Definitions
      At line 781 in file MKL25Z128xxx4.s
   Uses
      At line 816 in file MKL25Z128xxx4.s
Comment: PORTE_PCR27_OFFSET used once
PORTE_PCR28 4004D070

Symbol: PORTE_PCR28
   Definitions
      At line 817 in file MKL25Z128xxx4.s
   Uses
      None
Comment: PORTE_PCR28 unused
PORTE_PCR28_OFFSET 00000070

Symbol: PORTE_PCR28_OFFSET
   Definitions
      At line 782 in file MKL25Z128xxx4.s
   Uses
      At line 817 in file MKL25Z128xxx4.s
Comment: PORTE_PCR28_OFFSET used once
PORTE_PCR29 4004D074

Symbol: PORTE_PCR29
   Definitions
      At line 818 in file MKL25Z128xxx4.s
   Uses
      None
Comment: PORTE_PCR29 unused
PORTE_PCR29_OFFSET 00000074

Symbol: PORTE_PCR29_OFFSET
   Definitions
      At line 783 in file MKL25Z128xxx4.s
   Uses
      At line 818 in file MKL25Z128xxx4.s
Comment: PORTE_PCR29_OFFSET used once
PORTE_PCR2_OFFSET 00000008

Symbol: PORTE_PCR2_OFFSET
   Definitions
      At line 756 in file MKL25Z128xxx4.s
   Uses
      At line 791 in file MKL25Z128xxx4.s
Comment: PORTE_PCR2_OFFSET used once
PORTE_PCR3 4004D00C



ARM Macro Assembler    Page 75 Alphabetic symbol ordering
Absolute symbols


Symbol: PORTE_PCR3
   Definitions
      At line 792 in file MKL25Z128xxx4.s
   Uses
      None
Comment: PORTE_PCR3 unused
PORTE_PCR30 4004D078

Symbol: PORTE_PCR30
   Definitions
      At line 819 in file MKL25Z128xxx4.s
   Uses
      None
Comment: PORTE_PCR30 unused
PORTE_PCR30_OFFSET 00000078

Symbol: PORTE_PCR30_OFFSET
   Definitions
      At line 784 in file MKL25Z128xxx4.s
   Uses
      At line 819 in file MKL25Z128xxx4.s
Comment: PORTE_PCR30_OFFSET used once
PORTE_PCR31 4004D07C

Symbol: PORTE_PCR31
   Definitions
      At line 820 in file MKL25Z128xxx4.s
   Uses
      None
Comment: PORTE_PCR31 unused
PORTE_PCR31_OFFSET 0000007C

Symbol: PORTE_PCR31_OFFSET
   Definitions
      At line 785 in file MKL25Z128xxx4.s
   Uses
      At line 820 in file MKL25Z128xxx4.s
Comment: PORTE_PCR31_OFFSET used once
PORTE_PCR3_OFFSET 0000000C

Symbol: PORTE_PCR3_OFFSET
   Definitions
      At line 757 in file MKL25Z128xxx4.s
   Uses
      At line 792 in file MKL25Z128xxx4.s
Comment: PORTE_PCR3_OFFSET used once
PORTE_PCR4 4004D010

Symbol: PORTE_PCR4
   Definitions
      At line 793 in file MKL25Z128xxx4.s
   Uses
      None
Comment: PORTE_PCR4 unused
PORTE_PCR4_OFFSET 00000010

Symbol: PORTE_PCR4_OFFSET
   Definitions



ARM Macro Assembler    Page 76 Alphabetic symbol ordering
Absolute symbols

      At line 758 in file MKL25Z128xxx4.s
   Uses
      At line 793 in file MKL25Z128xxx4.s
Comment: PORTE_PCR4_OFFSET used once
PORTE_PCR5 4004D014

Symbol: PORTE_PCR5
   Definitions
      At line 794 in file MKL25Z128xxx4.s
   Uses
      None
Comment: PORTE_PCR5 unused
PORTE_PCR5_OFFSET 00000014

Symbol: PORTE_PCR5_OFFSET
   Definitions
      At line 759 in file MKL25Z128xxx4.s
   Uses
      At line 794 in file MKL25Z128xxx4.s
Comment: PORTE_PCR5_OFFSET used once
PORTE_PCR6 4004D018

Symbol: PORTE_PCR6
   Definitions
      At line 795 in file MKL25Z128xxx4.s
   Uses
      None
Comment: PORTE_PCR6 unused
PORTE_PCR6_OFFSET 00000018

Symbol: PORTE_PCR6_OFFSET
   Definitions
      At line 760 in file MKL25Z128xxx4.s
   Uses
      At line 795 in file MKL25Z128xxx4.s
Comment: PORTE_PCR6_OFFSET used once
PORTE_PCR7 4004D01C

Symbol: PORTE_PCR7
   Definitions
      At line 796 in file MKL25Z128xxx4.s
   Uses
      None
Comment: PORTE_PCR7 unused
PORTE_PCR7_OFFSET 0000001C

Symbol: PORTE_PCR7_OFFSET
   Definitions
      At line 761 in file MKL25Z128xxx4.s
   Uses
      At line 796 in file MKL25Z128xxx4.s
Comment: PORTE_PCR7_OFFSET used once
PORTE_PCR8 4004D020

Symbol: PORTE_PCR8
   Definitions
      At line 797 in file MKL25Z128xxx4.s
   Uses
      None



ARM Macro Assembler    Page 77 Alphabetic symbol ordering
Absolute symbols

Comment: PORTE_PCR8 unused
PORTE_PCR8_OFFSET 00000020

Symbol: PORTE_PCR8_OFFSET
   Definitions
      At line 762 in file MKL25Z128xxx4.s
   Uses
      At line 797 in file MKL25Z128xxx4.s
Comment: PORTE_PCR8_OFFSET used once
PORTE_PCR9 4004D024

Symbol: PORTE_PCR9
   Definitions
      At line 798 in file MKL25Z128xxx4.s
   Uses
      None
Comment: PORTE_PCR9 unused
PORTE_PCR9_OFFSET 00000024

Symbol: PORTE_PCR9_OFFSET
   Definitions
      At line 763 in file MKL25Z128xxx4.s
   Uses
      At line 798 in file MKL25Z128xxx4.s
Comment: PORTE_PCR9_OFFSET used once
PTC3_MUX_UART1_RX 00000300

Symbol: PTC3_MUX_UART1_RX
   Definitions
      At line 45 in file StringOps.s
   Uses
      At line 47 in file StringOps.s
Comment: PTC3_MUX_UART1_RX used once
PTC4_MUX_UART1_TX 00000300

Symbol: PTC4_MUX_UART1_TX
   Definitions
      At line 46 in file StringOps.s
   Uses
      At line 48 in file StringOps.s
Comment: PTC4_MUX_UART1_TX used once
Q_BUF_SZ 00000004

Symbol: Q_BUF_SZ
   Definitions
      At line 36 in file StringOps.s
   Uses
      None
Comment: Q_BUF_SZ unused
Q_REC_SZ 00000012

Symbol: Q_REC_SZ
   Definitions
      At line 35 in file StringOps.s
   Uses
      None
Comment: Q_REC_SZ unused
RET_ADDR_T_MASK 00000001




ARM Macro Assembler    Page 78 Alphabetic symbol ordering
Absolute symbols

Symbol: RET_ADDR_T_MASK
   Definitions
      At line 24 in file MKL25Z128xxx4.s
   Uses
      None
Comment: RET_ADDR_T_MASK unused
SET_PTC3_UART1_RX 01000300

Symbol: SET_PTC3_UART1_RX
   Definitions
      At line 47 in file StringOps.s
   Uses
      At line 563 in file StringOps.s
Comment: SET_PTC3_UART1_RX used once
SET_PTC4_UART1_TX 01000300

Symbol: SET_PTC4_UART1_TX
   Definitions
      At line 48 in file StringOps.s
   Uses
      At line 567 in file StringOps.s
Comment: SET_PTC4_UART1_TX used once
SIM_BASE 40047000

Symbol: SIM_BASE
   Definitions
      At line 826 in file MKL25Z128xxx4.s
   Uses
      At line 832 in file MKL25Z128xxx4.s
      At line 833 in file MKL25Z128xxx4.s
      At line 834 in file MKL25Z128xxx4.s
      At line 835 in file MKL25Z128xxx4.s
      At line 836 in file MKL25Z128xxx4.s

SIM_CLKDIV1 40048044

Symbol: SIM_CLKDIV1
   Definitions
      At line 832 in file MKL25Z128xxx4.s
   Uses
      At line 1259 in file MKL25Z128xxx4.s
Comment: SIM_CLKDIV1 used once
SIM_CLKDIV1_OFFSET 00001044

Symbol: SIM_CLKDIV1_OFFSET
   Definitions
      At line 830 in file MKL25Z128xxx4.s
   Uses
      At line 832 in file MKL25Z128xxx4.s
Comment: SIM_CLKDIV1_OFFSET used once
SIM_CLKDIV1_OUTDIV1_DIV2_MASK 10000000

Symbol: SIM_CLKDIV1_OUTDIV1_DIV2_MASK
   Definitions
      At line 851 in file MKL25Z128xxx4.s
   Uses
      At line 853 in file MKL25Z128xxx4.s
Comment: SIM_CLKDIV1_OUTDIV1_DIV2_MASK used once
SIM_CLKDIV1_OUTDIV1_MASK F0000000



ARM Macro Assembler    Page 79 Alphabetic symbol ordering
Absolute symbols


Symbol: SIM_CLKDIV1_OUTDIV1_MASK
   Definitions
      At line 849 in file MKL25Z128xxx4.s
   Uses
      None
Comment: SIM_CLKDIV1_OUTDIV1_MASK unused
SIM_CLKDIV1_OUTDIV4_DIV2_MASK 00010000

Symbol: SIM_CLKDIV1_OUTDIV4_DIV2_MASK
   Definitions
      At line 852 in file MKL25Z128xxx4.s
   Uses
      At line 853 in file MKL25Z128xxx4.s
Comment: SIM_CLKDIV1_OUTDIV4_DIV2_MASK used once
SIM_CLKDIV1_OUTDIV4_MASK 00070000

Symbol: SIM_CLKDIV1_OUTDIV4_MASK
   Definitions
      At line 850 in file MKL25Z128xxx4.s
   Uses
      None
Comment: SIM_CLKDIV1_OUTDIV4_MASK unused
SIM_COPC 40048100

Symbol: SIM_COPC
   Definitions
      At line 833 in file MKL25Z128xxx4.s
   Uses
      At line 1096 in file MKL25Z128xxx4.s
Comment: SIM_COPC used once
SIM_COPC_OFFSET 00001100

Symbol: SIM_COPC_OFFSET
   Definitions
      At line 831 in file MKL25Z128xxx4.s
   Uses
      At line 833 in file MKL25Z128xxx4.s
Comment: SIM_COPC_OFFSET used once
SIM_CORE_DIV2_BUS_DIV2 10010000

Symbol: SIM_CORE_DIV2_BUS_DIV2
   Definitions
      At line 853 in file MKL25Z128xxx4.s
   Uses
      At line 1260 in file MKL25Z128xxx4.s
Comment: SIM_CORE_DIV2_BUS_DIV2 used once
SIM_SCGC4 40048034

Symbol: SIM_SCGC4
   Definitions
      At line 834 in file MKL25Z128xxx4.s
   Uses
      At line 550 in file StringOps.s
Comment: SIM_SCGC4 used once
SIM_SCGC4_CMP_MASK 00080000

Symbol: SIM_SCGC4_CMP_MASK
   Definitions



ARM Macro Assembler    Page 80 Alphabetic symbol ordering
Absolute symbols

      At line 891 in file MKL25Z128xxx4.s
   Uses
      None
Comment: SIM_SCGC4_CMP_MASK unused
SIM_SCGC4_I2C0_MASK 00000040

Symbol: SIM_SCGC4_I2C0_MASK
   Definitions
      At line 897 in file MKL25Z128xxx4.s
   Uses
      None
Comment: SIM_SCGC4_I2C0_MASK unused
SIM_SCGC4_I2C1_MASK 00000080

Symbol: SIM_SCGC4_I2C1_MASK
   Definitions
      At line 896 in file MKL25Z128xxx4.s
   Uses
      None
Comment: SIM_SCGC4_I2C1_MASK unused
SIM_SCGC4_OFFSET 00001034

Symbol: SIM_SCGC4_OFFSET
   Definitions
      At line 828 in file MKL25Z128xxx4.s
   Uses
      At line 834 in file MKL25Z128xxx4.s
Comment: SIM_SCGC4_OFFSET used once
SIM_SCGC4_SPI0_MASK 00400000

Symbol: SIM_SCGC4_SPI0_MASK
   Definitions
      At line 890 in file MKL25Z128xxx4.s
   Uses
      None
Comment: SIM_SCGC4_SPI0_MASK unused
SIM_SCGC4_SPI1_MASK 00800000

Symbol: SIM_SCGC4_SPI1_MASK
   Definitions
      At line 889 in file MKL25Z128xxx4.s
   Uses
      None
Comment: SIM_SCGC4_SPI1_MASK unused
SIM_SCGC4_UART0_MASK 00000400

Symbol: SIM_SCGC4_UART0_MASK
   Definitions
      At line 895 in file MKL25Z128xxx4.s
   Uses
      None
Comment: SIM_SCGC4_UART0_MASK unused
SIM_SCGC4_UART1_MASK 00000800

Symbol: SIM_SCGC4_UART1_MASK
   Definitions
      At line 894 in file MKL25Z128xxx4.s
   Uses
      At line 52 in file StringOps.s



ARM Macro Assembler    Page 81 Alphabetic symbol ordering
Absolute symbols

Comment: SIM_SCGC4_UART1_MASK used once
SIM_SCGC4_UART2_MASK 00001000

Symbol: SIM_SCGC4_UART2_MASK
   Definitions
      At line 893 in file MKL25Z128xxx4.s
   Uses
      None
Comment: SIM_SCGC4_UART2_MASK unused
SIM_SCGC4_USBOTG_MASK 00040000

Symbol: SIM_SCGC4_USBOTG_MASK
   Definitions
      At line 892 in file MKL25Z128xxx4.s
   Uses
      None
Comment: SIM_SCGC4_USBOTG_MASK unused
SIM_SCGC5 40048038

Symbol: SIM_SCGC5
   Definitions
      At line 835 in file MKL25Z128xxx4.s
   Uses
      At line 556 in file StringOps.s
Comment: SIM_SCGC5 used once
SIM_SCGC5_LPTMR_MASK 00000001

Symbol: SIM_SCGC5_LPTMR_MASK
   Definitions
      At line 920 in file MKL25Z128xxx4.s
   Uses
      None
Comment: SIM_SCGC5_LPTMR_MASK unused
SIM_SCGC5_OFFSET 00001038

Symbol: SIM_SCGC5_OFFSET
   Definitions
      At line 829 in file MKL25Z128xxx4.s
   Uses
      At line 835 in file MKL25Z128xxx4.s
Comment: SIM_SCGC5_OFFSET used once
SIM_SCGC5_PORTA_MASK 00000200

Symbol: SIM_SCGC5_PORTA_MASK
   Definitions
      At line 918 in file MKL25Z128xxx4.s
   Uses
      None
Comment: SIM_SCGC5_PORTA_MASK unused
SIM_SCGC5_PORTB_MASK 00000400

Symbol: SIM_SCGC5_PORTB_MASK
   Definitions
      At line 917 in file MKL25Z128xxx4.s
   Uses
      None
Comment: SIM_SCGC5_PORTB_MASK unused
SIM_SCGC5_PORTC_MASK 00000800




ARM Macro Assembler    Page 82 Alphabetic symbol ordering
Absolute symbols

Symbol: SIM_SCGC5_PORTC_MASK
   Definitions
      At line 916 in file MKL25Z128xxx4.s
   Uses
      At line 56 in file StringOps.s
Comment: SIM_SCGC5_PORTC_MASK used once
SIM_SCGC5_PORTD_MASK 00001000

Symbol: SIM_SCGC5_PORTD_MASK
   Definitions
      At line 915 in file MKL25Z128xxx4.s
   Uses
      None
Comment: SIM_SCGC5_PORTD_MASK unused
SIM_SCGC5_PORTE_MASK 00002000

Symbol: SIM_SCGC5_PORTE_MASK
   Definitions
      At line 914 in file MKL25Z128xxx4.s
   Uses
      None
Comment: SIM_SCGC5_PORTE_MASK unused
SIM_SCGC5_TSI_MASK 00000020

Symbol: SIM_SCGC5_TSI_MASK
   Definitions
      At line 919 in file MKL25Z128xxx4.s
   Uses
      None
Comment: SIM_SCGC5_TSI_MASK unused
SIM_SOPT5 40048010

Symbol: SIM_SOPT5
   Definitions
      At line 836 in file MKL25Z128xxx4.s
   Uses
      At line 544 in file StringOps.s
Comment: SIM_SOPT5 used once
SIM_SOPT5_OFFSET 00001010

Symbol: SIM_SOPT5_OFFSET
   Definitions
      At line 827 in file MKL25Z128xxx4.s
   Uses
      At line 836 in file MKL25Z128xxx4.s
Comment: SIM_SOPT5_OFFSET used once
SSTACK_SIZE 00000100

Symbol: SSTACK_SIZE
   Definitions
      At line 15 in file StringOps.s
   Uses
      At line 1288 in file MKL25Z128xxx4.s
Comment: SSTACK_SIZE used once
UART0ODE_MASK 00010000

Symbol: UART0ODE_MASK
   Definitions
      At line 948 in file MKL25Z128xxx4.s



ARM Macro Assembler    Page 83 Alphabetic symbol ordering
Absolute symbols

   Uses
      None
Comment: UART0ODE_MASK unused
UART0RXSRC_MASK 00000004

Symbol: UART0RXSRC_MASK
   Definitions
      At line 951 in file MKL25Z128xxx4.s
   Uses
      None
Comment: UART0RXSRC_MASK unused
UART0TXSRC_MASK 00000003

Symbol: UART0TXSRC_MASK
   Definitions
      At line 952 in file MKL25Z128xxx4.s
   Uses
      None
Comment: UART0TXSRC_MASK unused
UART1CGC_MASK 00000800

Symbol: UART1CGC_MASK
   Definitions
      At line 52 in file StringOps.s
   Uses
      At line 551 in file StringOps.s
Comment: UART1CGC_MASK used once
UART1ODE_MASK 00020000

Symbol: UART1ODE_MASK
   Definitions
      At line 947 in file MKL25Z128xxx4.s
   Uses
      At line 62 in file StringOps.s
Comment: UART1ODE_MASK used once
UART1RXSRC_MASK 00000040

Symbol: UART1RXSRC_MASK
   Definitions
      At line 949 in file MKL25Z128xxx4.s
   Uses
      At line 62 in file StringOps.s
Comment: UART1RXSRC_MASK used once
UART1TXSRC_MASK 00000030

Symbol: UART1TXSRC_MASK
   Definitions
      At line 950 in file MKL25Z128xxx4.s
   Uses
      At line 62 in file StringOps.s
Comment: UART1TXSRC_MASK used once
UART1_BASE 4006B000

Symbol: UART1_BASE
   Definitions
      At line 955 in file MKL25Z128xxx4.s
   Uses
      At line 965 in file MKL25Z128xxx4.s
      At line 966 in file MKL25Z128xxx4.s



ARM Macro Assembler    Page 84 Alphabetic symbol ordering
Absolute symbols

      At line 967 in file MKL25Z128xxx4.s
      At line 968 in file MKL25Z128xxx4.s
      At line 969 in file MKL25Z128xxx4.s
      At line 970 in file MKL25Z128xxx4.s
      At line 971 in file MKL25Z128xxx4.s
      At line 972 in file MKL25Z128xxx4.s
      At line 973 in file MKL25Z128xxx4.s
      At line 320 in file StringOps.s
      At line 339 in file StringOps.s
      At line 570 in file StringOps.s

UART1_BDH 4006B000

Symbol: UART1_BDH
   Definitions
      At line 965 in file MKL25Z128xxx4.s
   Uses
      None
Comment: UART1_BDH unused
UART1_BDL 4006B001

Symbol: UART1_BDL
   Definitions
      At line 966 in file MKL25Z128xxx4.s
   Uses
      None
Comment: UART1_BDL unused
UART1_C1 4006B002

Symbol: UART1_C1
   Definitions
      At line 967 in file MKL25Z128xxx4.s
   Uses
      None
Comment: UART1_C1 unused
UART1_C2 4006B003

Symbol: UART1_C2
   Definitions
      At line 968 in file MKL25Z128xxx4.s
   Uses
      None
Comment: UART1_C2 unused
UART1_C3 4006B006

Symbol: UART1_C3
   Definitions
      At line 971 in file MKL25Z128xxx4.s
   Uses
      None
Comment: UART1_C3 unused
UART1_C4 4006B008

Symbol: UART1_C4
   Definitions
      At line 973 in file MKL25Z128xxx4.s
   Uses
      None
Comment: UART1_C4 unused



ARM Macro Assembler    Page 85 Alphabetic symbol ordering
Absolute symbols

UART1_D 4006B007

Symbol: UART1_D
   Definitions
      At line 972 in file MKL25Z128xxx4.s
   Uses
      None
Comment: UART1_D unused
UART1_EXTERN_MASK_CLEAR 00020070

Symbol: UART1_EXTERN_MASK_CLEAR
   Definitions
      At line 62 in file StringOps.s
   Uses
      At line 545 in file StringOps.s
Comment: UART1_EXTERN_MASK_CLEAR used once
UART1_S1 4006B004

Symbol: UART1_S1
   Definitions
      At line 969 in file MKL25Z128xxx4.s
   Uses
      None
Comment: UART1_S1 unused
UART1_S2 4006B005

Symbol: UART1_S2
   Definitions
      At line 970 in file MKL25Z128xxx4.s
   Uses
      None
Comment: UART1_S2 unused
UART2ODE_MASK 00040000

Symbol: UART2ODE_MASK
   Definitions
      At line 946 in file MKL25Z128xxx4.s
   Uses
      None
Comment: UART2ODE_MASK unused
UART_8N1 00000000

Symbol: UART_8N1
   Definitions
      At line 92 in file StringOps.s
   Uses
      At line 575 in file StringOps.s
Comment: UART_8N1 used once
UART_9600H 00000000

Symbol: UART_9600H
   Definitions
      At line 73 in file StringOps.s
   Uses
      At line 571 in file StringOps.s
Comment: UART_9600H used once
UART_9600L 0000009C

Symbol: UART_9600L



ARM Macro Assembler    Page 86 Alphabetic symbol ordering
Absolute symbols

   Definitions
      At line 81 in file StringOps.s
   Uses
      At line 573 in file StringOps.s
Comment: UART_9600L used once
UART_BDH_OFFSET 00000000

Symbol: UART_BDH_OFFSET
   Definitions
      At line 956 in file MKL25Z128xxx4.s
   Uses
      At line 965 in file MKL25Z128xxx4.s
      At line 572 in file StringOps.s

UART_BDL_OFFSET 00000001

Symbol: UART_BDL_OFFSET
   Definitions
      At line 957 in file MKL25Z128xxx4.s
   Uses
      At line 966 in file MKL25Z128xxx4.s
      At line 574 in file StringOps.s

UART_C1_OFFSET 00000002

Symbol: UART_C1_OFFSET
   Definitions
      At line 958 in file MKL25Z128xxx4.s
   Uses
      At line 967 in file MKL25Z128xxx4.s
      At line 577 in file StringOps.s

UART_C2_OFFSET 00000003

Symbol: UART_C2_OFFSET
   Definitions
      At line 959 in file MKL25Z128xxx4.s
   Uses
      At line 968 in file MKL25Z128xxx4.s
      At line 584 in file StringOps.s

UART_C3_OFFSET 00000006

Symbol: UART_C3_OFFSET
   Definitions
      At line 962 in file MKL25Z128xxx4.s
   Uses
      At line 971 in file MKL25Z128xxx4.s
      At line 579 in file StringOps.s

UART_C4_OFFSET 00000008

Symbol: UART_C4_OFFSET
   Definitions
      At line 964 in file MKL25Z128xxx4.s
   Uses
      At line 973 in file MKL25Z128xxx4.s
      At line 581 in file StringOps.s




ARM Macro Assembler    Page 87 Alphabetic symbol ordering
Absolute symbols

UART_D_OFFSET 00000007

Symbol: UART_D_OFFSET
   Definitions
      At line 963 in file MKL25Z128xxx4.s
   Uses
      At line 972 in file MKL25Z128xxx4.s
      At line 326 in file StringOps.s
      At line 345 in file StringOps.s

UART_FEIE_MASK 00000002

Symbol: UART_FEIE_MASK
   Definitions
      At line 1039 in file MKL25Z128xxx4.s
   Uses
      None
Comment: UART_FEIE_MASK unused
UART_FE_MASK 00000002

Symbol: UART_FE_MASK
   Definitions
      At line 1067 in file MKL25Z128xxx4.s
   Uses
      None
Comment: UART_FE_MASK unused
UART_IDLE_MASK 00000010

Symbol: UART_IDLE_MASK
   Definitions
      At line 1064 in file MKL25Z128xxx4.s
   Uses
      None
Comment: UART_IDLE_MASK unused
UART_ILIE_MASK 00000010

Symbol: UART_ILIE_MASK
   Definitions
      At line 1018 in file MKL25Z128xxx4.s
   Uses
      None
Comment: UART_ILIE_MASK unused
UART_ILT_MASK 00000004

Symbol: UART_ILT_MASK
   Definitions
      At line 1002 in file MKL25Z128xxx4.s
   Uses
      None
Comment: UART_ILT_MASK unused
UART_LBKDIE_MASK 00000080

Symbol: UART_LBKDIE_MASK
   Definitions
      At line 980 in file MKL25Z128xxx4.s
   Uses
      None
Comment: UART_LBKDIE_MASK unused
UART_LOOPS_MASK 00000080



ARM Macro Assembler    Page 88 Alphabetic symbol ordering
Absolute symbols


Symbol: UART_LOOPS_MASK
   Definitions
      At line 997 in file MKL25Z128xxx4.s
   Uses
      None
Comment: UART_LOOPS_MASK unused
UART_M_MASK 00000010

Symbol: UART_M_MASK
   Definitions
      At line 1000 in file MKL25Z128xxx4.s
   Uses
      None
Comment: UART_M_MASK unused
UART_NEIE_MASK 00000004

Symbol: UART_NEIE_MASK
   Definitions
      At line 1038 in file MKL25Z128xxx4.s
   Uses
      None
Comment: UART_NEIE_MASK unused
UART_NF_MASK 00000004

Symbol: UART_NF_MASK
   Definitions
      At line 1066 in file MKL25Z128xxx4.s
   Uses
      None
Comment: UART_NF_MASK unused
UART_NO_DMA 00000000

Symbol: UART_NO_DMA
   Definitions
      At line 123 in file StringOps.s
   Uses
      At line 580 in file StringOps.s
Comment: UART_NO_DMA used once
UART_ORIE_MASK 00000008

Symbol: UART_ORIE_MASK
   Definitions
      At line 1037 in file MKL25Z128xxx4.s
   Uses
      None
Comment: UART_ORIE_MASK unused
UART_OR_MASK 00000008

Symbol: UART_OR_MASK
   Definitions
      At line 1065 in file MKL25Z128xxx4.s
   Uses
      None
Comment: UART_OR_MASK unused
UART_PEIE_MASK 00000001

Symbol: UART_PEIE_MASK
   Definitions



ARM Macro Assembler    Page 89 Alphabetic symbol ordering
Absolute symbols

      At line 1040 in file MKL25Z128xxx4.s
   Uses
      None
Comment: UART_PEIE_MASK unused
UART_PE_MASK 00000002

Symbol: UART_PE_MASK
   Definitions
      At line 1003 in file MKL25Z128xxx4.s
   Uses
      None
Comment: UART_PE_MASK unused
UART_PF_MASK 00000001

Symbol: UART_PF_MASK
   Definitions
      At line 1068 in file MKL25Z128xxx4.s
   Uses
      None
Comment: UART_PF_MASK unused
UART_PT_MASK 00000001

Symbol: UART_PT_MASK
   Definitions
      At line 1004 in file MKL25Z128xxx4.s
   Uses
      None
Comment: UART_PT_MASK unused
UART_R8_MASK 00000080

Symbol: UART_R8_MASK
   Definitions
      At line 1033 in file MKL25Z128xxx4.s
   Uses
      None
Comment: UART_R8_MASK unused
UART_RDMAS_MASK 00000020

Symbol: UART_RDMAS_MASK
   Definitions
      At line 1050 in file MKL25Z128xxx4.s
   Uses
      None
Comment: UART_RDMAS_MASK unused
UART_RDRF_MASK 00000020

Symbol: UART_RDRF_MASK
   Definitions
      At line 1063 in file MKL25Z128xxx4.s
   Uses
      At line 321 in file StringOps.s
Comment: UART_RDRF_MASK used once
UART_RE_MASK 00000004

Symbol: UART_RE_MASK
   Definitions
      At line 1020 in file MKL25Z128xxx4.s
   Uses
      At line 103 in file StringOps.s



ARM Macro Assembler    Page 90 Alphabetic symbol ordering
Absolute symbols

Comment: UART_RE_MASK used once
UART_RIE_MASK 00000020

Symbol: UART_RIE_MASK
   Definitions
      At line 1017 in file MKL25Z128xxx4.s
   Uses
      None
Comment: UART_RIE_MASK unused
UART_RSRC_MASK 00000020

Symbol: UART_RSRC_MASK
   Definitions
      At line 999 in file MKL25Z128xxx4.s
   Uses
      None
Comment: UART_RSRC_MASK unused
UART_RWU_MASK 00000002

Symbol: UART_RWU_MASK
   Definitions
      At line 1021 in file MKL25Z128xxx4.s
   Uses
      None
Comment: UART_RWU_MASK unused
UART_RXEDGIE_MASK 00000040

Symbol: UART_RXEDGIE_MASK
   Definitions
      At line 981 in file MKL25Z128xxx4.s
   Uses
      None
Comment: UART_RXEDGIE_MASK unused
UART_S1_OFFSET 00000004

Symbol: UART_S1_OFFSET
   Definitions
      At line 960 in file MKL25Z128xxx4.s
   Uses
      At line 969 in file MKL25Z128xxx4.s
      At line 322 in file StringOps.s
      At line 341 in file StringOps.s

UART_S2_OFFSET 00000005

Symbol: UART_S2_OFFSET
   Definitions
      At line 961 in file MKL25Z128xxx4.s
   Uses
      At line 970 in file MKL25Z128xxx4.s
Comment: UART_S2_OFFSET used once
UART_SBK_MASK 00000001

Symbol: UART_SBK_MASK
   Definitions
      At line 1022 in file MKL25Z128xxx4.s
   Uses
      None
Comment: UART_SBK_MASK unused



ARM Macro Assembler    Page 91 Alphabetic symbol ordering
Absolute symbols

UART_SBNS_MASK 00000020

Symbol: UART_SBNS_MASK
   Definitions
      At line 982 in file MKL25Z128xxx4.s
   Uses
      None
Comment: UART_SBNS_MASK unused
UART_SBR_12_0_MASK 0000001F

Symbol: UART_SBR_12_0_MASK
   Definitions
      At line 983 in file MKL25Z128xxx4.s
   Uses
      None
Comment: UART_SBR_12_0_MASK unused
UART_T8_MASK 00000040

Symbol: UART_T8_MASK
   Definitions
      At line 1034 in file MKL25Z128xxx4.s
   Uses
      None
Comment: UART_T8_MASK unused
UART_TCIE_MASK 00000040

Symbol: UART_TCIE_MASK
   Definitions
      At line 1016 in file MKL25Z128xxx4.s
   Uses
      None
Comment: UART_TCIE_MASK unused
UART_TC_MASK 00000040

Symbol: UART_TC_MASK
   Definitions
      At line 1062 in file MKL25Z128xxx4.s
   Uses
      None
Comment: UART_TC_MASK unused
UART_TDMAS_MASK 00000080

Symbol: UART_TDMAS_MASK
   Definitions
      At line 1049 in file MKL25Z128xxx4.s
   Uses
      None
Comment: UART_TDMAS_MASK unused
UART_TDRE_MASK 00000080

Symbol: UART_TDRE_MASK
   Definitions
      At line 1061 in file MKL25Z128xxx4.s
   Uses
      At line 340 in file StringOps.s
Comment: UART_TDRE_MASK used once
UART_TE_MASK 00000008

Symbol: UART_TE_MASK



ARM Macro Assembler    Page 92 Alphabetic symbol ordering
Absolute symbols

   Definitions
      At line 1019 in file MKL25Z128xxx4.s
   Uses
      At line 103 in file StringOps.s
Comment: UART_TE_MASK used once
UART_TIE_MASK 00000080

Symbol: UART_TIE_MASK
   Definitions
      At line 1015 in file MKL25Z128xxx4.s
   Uses
      None
Comment: UART_TIE_MASK unused
UART_TXDIR_MASK 00000020

Symbol: UART_TXDIR_MASK
   Definitions
      At line 1035 in file MKL25Z128xxx4.s
   Uses
      None
Comment: UART_TXDIR_MASK unused
UART_TXINV_MASK 00000010

Symbol: UART_TXINV_MASK
   Definitions
      At line 1036 in file MKL25Z128xxx4.s
   Uses
      None
Comment: UART_TXINV_MASK unused
UART_TX_NOT_INVERTED 00000000

Symbol: UART_TX_NOT_INVERTED
   Definitions
      At line 114 in file StringOps.s
   Uses
      At line 578 in file StringOps.s
Comment: UART_TX_NOT_INVERTED used once
UART_T_R 0000000C

Symbol: UART_T_R
   Definitions
      At line 103 in file StringOps.s
   Uses
      At line 583 in file StringOps.s
Comment: UART_T_R used once
UART_UARTSWAI_MASK 00000040

Symbol: UART_UARTSWAI_MASK
   Definitions
      At line 998 in file MKL25Z128xxx4.s
   Uses
      None
Comment: UART_UARTSWAI_MASK unused
UART_WAKE_MASK 00000008

Symbol: UART_WAKE_MASK
   Definitions
      At line 1001 in file MKL25Z128xxx4.s
   Uses



ARM Macro Assembler    Page 93 Alphabetic symbol ordering
Absolute symbols

      None
Comment: UART_WAKE_MASK unused
VECTOR_SIZE 00000004

Symbol: VECTOR_SIZE
   Definitions
      At line 30 in file MKL25Z128xxx4.s
   Uses
      At line 1077 in file MKL25Z128xxx4.s
Comment: VECTOR_SIZE used once
VECTOR_TABLE_SIZE 000000C0

Symbol: VECTOR_TABLE_SIZE
   Definitions
      At line 29 in file MKL25Z128xxx4.s
   Uses
      At line 1077 in file MKL25Z128xxx4.s
Comment: VECTOR_TABLE_SIZE used once
WORD_SIZE 00000004

Symbol: WORD_SIZE
   Definitions
      At line 21 in file MKL25Z128xxx4.s
   Uses
      None
Comment: WORD_SIZE unused
641 symbols
1069 symbols in table
